 newcarena

 Timestamp is 5e49d0be (Sun Feb 16 15:31:10 2020)

 Preferred load address is 00400000

 Start         Length     Name                   Class
 0001:00000000 00001af0H .text                   CODE
 0001:00001af0 00000870H .text$di                CODE
 0001:00002360 0017a010H .text$mn                CODE
 0001:0017c370 0000a470H .text$x                 CODE
 0001:001867e0 00000814H .text$yd                CODE
 0002:00000000 00000340H .idata$5                DATA
 0002:00000340 00000004H .00cfg                  DATA
 0002:00000344 00000004H .CRT$XCA                DATA
 0002:00000348 00000004H .CRT$XCAA               DATA
 0002:0000034c 0000001cH .CRT$XCC                DATA
 0002:00000368 00000008H .CRT$XCL                DATA
 0002:00000370 00000080H .CRT$XCU                DATA
 0002:000003f0 00000004H .CRT$XCZ                DATA
 0002:000003f4 00000004H .CRT$XIA                DATA
 0002:000003f8 00000004H .CRT$XIAA               DATA
 0002:000003fc 00000004H .CRT$XIAC               DATA
 0002:00000400 00000018H .CRT$XIC                DATA
 0002:00000418 00000004H .CRT$XIZ                DATA
 0002:0000041c 00000004H .CRT$XLA                DATA
 0002:00000420 00000004H .CRT$XLZ                DATA
 0002:00000424 00000004H .CRT$XPA                DATA
 0002:00000428 00000008H .CRT$XPX                DATA
 0002:00000430 00000004H .CRT$XPXA               DATA
 0002:00000434 00000004H .CRT$XPZ                DATA
 0002:00000438 00000004H .CRT$XTA                DATA
 0002:0000043c 00000004H .CRT$XTZ                DATA
 0002:00000440 00000000H .gfids$x                DATA
 0002:00000440 00000000H .gfids$y                DATA
 0002:00000440 00029368H .rdata                  DATA
 0002:000297a8 00000018H .rdata$T                DATA
 0002:000297c0 00002844H .rdata$r                DATA
 0002:0002c004 000003fcH .rdata$zzzdbg           DATA
 0002:0002c400 00000004H .rtc$IAA                DATA
 0002:0002c404 00000004H .rtc$IZZ                DATA
 0002:0002c408 00000004H .rtc$TAA                DATA
 0002:0002c40c 00000004H .rtc$TZZ                DATA
 0002:0002c410 00000004H .tls                    DATA
 0002:0002c414 00000004H .tls$                   DATA
 0002:0002c418 00000008H .tls$ZZZ                DATA
 0002:0002c420 0000dd64H .xdata$x                DATA
 0002:0003a184 00000000H .edata                  DATA
 0002:0003a184 000000f0H .idata$2                DATA
 0002:0003a274 00000014H .idata$3                DATA
 0002:0003a288 00000340H .idata$4                DATA
 0002:0003a5c8 00000ca6H .idata$6                DATA
 0003:00000000 0001cfc0H .data                   DATA
 0003:0001cfc0 00001478H .data$r                 DATA
 0003:0001e438 0d41ae8cH .bss                    DATA
 0004:00000000 000006e0H _RDATA                  DATA
 0005:00000000 000000f0H .rsrc$01                DATA
 0005:000000f0 00001040H .rsrc$02                DATA

  Address         Publics by Value              Rva+Base       Lib:Object

 0000:00000000       ___dynamic_value_reloc_table 00000000     <absolute>
 0000:00000000       ___guard_longjmp_count     00000000     <absolute>
 0000:00000000       ___guard_iat_count         00000000     <absolute>
 0000:00000000       ___volatile_metadata       00000000     <absolute>
 0000:00000000       ___enclave_config          00000000     <absolute>
 0000:00000000       ___guard_iat_table         00000000     <absolute>
 0000:00000000       ___hybrid_auxiliary_iat    00000000     <absolute>
 0000:00000000       ___guard_longjmp_table     00000000     <absolute>
 0000:00000000       ___guard_fids_count        00000000     <absolute>
 0000:00000000       __except_list              00000000     <absolute>
 0000:00000000       ___hybrid_code_map_count   00000000     <absolute>
 0000:00000000       ___safe_se_handler_count   00000000     <absolute>
 0000:00000000       ___hybrid_code_map         00000000     <absolute>
 0000:00000000       ___safe_se_handler_table   00000000     <absolute>
 0000:00000000       ___guard_fids_table        00000000     <absolute>
 0000:0000002c       __tls_array                0000002c     <absolute>
 0000:00000100       ___guard_flags             00000100     <absolute>
 0000:00000000       ___ImageBase               00400000     <linker-defined>
 0001:00002360       ??_H@YGXPAXIIP6EPAX0@Z@Z   00403360 f i ai.obj
 0001:00002390       ?getbotkey@@YA?AUkeys@@H@Z 00403390 f   ai.obj
 0001:000025c0       ??$_Destroy_range@V?$allocator@V?$basic_string@DU?$char_traits@D@std@@V?$allocator@D@2@@std@@@std@@@std@@YAXPAV?$basic_string@DU?$char_traits@D@std@@V?$allocator@D@2@@0@0AAV?$allocator@V?$basic_string@DU?$char_traits@D@std@@V?$allocator@D@2@@std@@@0@@Z 004035c0 f i avaj.obj
 0001:00002630       ??0?$basic_string@DU?$char_traits@D@std@@V?$allocator@D@2@@std@@QAE@ABV01@@Z 00403630 f i avaj.obj
 0001:000026f0       ??0avaj@@QAE@ABVjson@@@Z   004036f0 f   avaj.obj
 0001:00002920       ??1?$_String_alloc@U?$_String_base_types@DV?$allocator@D@std@@@std@@@std@@QAE@XZ 00403920 f i avaj.obj
 0001:00002930       ??1?$_Tree_comp_alloc@V?$_Tmap_traits@V?$basic_string@DU?$char_traits@D@std@@V?$allocator@D@2@@std@@Vjson@@U?$less@V?$basic_string@DU?$char_traits@D@std@@V?$allocator@D@2@@std@@@2@V?$allocator@U?$pair@$$CBV?$basic_string@DU?$char_traits@D@std@@V?$allocator@D@2@@std@@Vjson@@@std@@@2@$0A@@std@@@std@@QAE@XZ 00403930 f i avaj.obj
 0001:00002940       ??1?$basic_string@DU?$char_traits@D@std@@V?$allocator@D@2@@std@@QAE@XZ 00403940 f i avaj.obj
 0001:00002990       ??1?$vector@HV?$allocator@H@std@@@std@@QAE@XZ 00403990 f i avaj.obj
 0001:000029f0       ??1?$vector@V?$basic_string@DU?$char_traits@D@std@@V?$allocator@D@2@@std@@V?$allocator@V?$basic_string@DU?$char_traits@D@std@@V?$allocator@D@2@@std@@@2@@std@@QAE@XZ 004039f0 f i avaj.obj
 0001:00002a00       ??1?$vector@Vjson@@V?$allocator@Vjson@@@std@@@std@@QAE@XZ 00403a00 f i avaj.obj
 0001:00002a80       ??1json@@QAE@XZ            00403a80 f i avaj.obj
 0001:00002b20       ?_Erase@?$_Tree@V?$_Tmap_traits@V?$basic_string@DU?$char_traits@D@std@@V?$allocator@D@2@@std@@Vjson@@U?$less@V?$basic_string@DU?$char_traits@D@std@@V?$allocator@D@2@@std@@@2@V?$allocator@U?$pair@$$CBV?$basic_string@DU?$char_traits@D@std@@V?$allocator@D@2@@std@@Vjson@@@std@@@2@$0A@@std@@@std@@IAEXPAU?$_Tree_node@U?$pair@$$CBV?$basic_string@DU?$char_traits@D@std@@V?$allocator@D@2@@std@@Vjson@@@std@@PAX@2@@Z 00403b20 f i avaj.obj
 0001:00002bb0       ?_Tidy@?$_Tree@V?$_Tmap_traits@V?$basic_string@DU?$char_traits@D@std@@V?$allocator@D@2@@std@@Vjson@@U?$less@V?$basic_string@DU?$char_traits@D@std@@V?$allocator@D@2@@std@@@2@V?$allocator@U?$pair@$$CBV?$basic_string@DU?$char_traits@D@std@@V?$allocator@D@2@@std@@Vjson@@@std@@@2@$0A@@std@@@std@@IAEXXZ 00403bb0 f i avaj.obj
 0001:00002c10       ?_Tidy@?$vector@V?$basic_string@DU?$char_traits@D@std@@V?$allocator@D@2@@std@@V?$allocator@V?$basic_string@DU?$char_traits@D@std@@V?$allocator@D@2@@std@@@2@@std@@AAEXXZ 00403c10 f i avaj.obj
 0001:00002c90       ?_Xlen@?$basic_string@DU?$char_traits@D@std@@V?$allocator@D@2@@std@@SAXXZ 00403c90 f i avaj.obj
 0001:00002ca0       ?allocate@?$allocator@D@std@@QAEPADI@Z 00403ca0 f i avaj.obj
 0001:00002d00       ?assign@?$basic_string@DU?$char_traits@D@std@@V?$allocator@D@2@@std@@QAEAAV12@QBDI@Z 00403d00 f i avaj.obj
 0001:00002df0       ?randombot@avaj@@QAEXXZ    00403df0 f   avaj.obj
 0001:00002f20       ?save@avaj@@QBE?AVjson@@XZ 00403f20 f   avaj.obj
 0001:00003140       ?box2box@@YAHPAUpointf3@@00@Z 00404140 f   box2box.obj
 0001:000033a0       ?box2box_v2@@YAHPAUpointf3@@000000000@Z 004043a0 f   box2box.obj
 0001:000038a0       ?getcolpoint@@YAHPAUpointf3@@H000@Z 004048a0 f   box2box.obj
 0001:00003ba0       ?line2box@@YAHPAUpointf3@@000000@Z 00404ba0 f   box2box.obj
 0001:000047c0       ??0camatt@@QAE@PAVtree2@@@Z 004057c0 f   camera.obj
 0001:00004800       ?changemode@camatt@@QAEXXZ 00405800 f   camera.obj
 0001:00004820       ?getpos@camatt@@QBE?AUpointf3@@XZ 00405820 f   camera.obj
 0001:00004840       ?getrot@camatt@@QBE?AUpointf3@@XZ 00405840 f   camera.obj
 0001:00004860       ?getvel@camatt@@QBE?AUpointf3@@H@Z 00405860 f   camera.obj
 0001:00004920       ?proc@camatt@@QAEXH@Z      00405920 f   camera.obj
 0001:00004b50       ??$_Emplace_reallocate@V?$basic_string@DU?$char_traits@D@std@@V?$allocator@D@2@@std@@@?$vector@V?$basic_string@DU?$char_traits@D@std@@V?$allocator@D@2@@std@@V?$allocator@V?$basic_string@DU?$char_traits@D@std@@V?$allocator@D@2@@std@@@2@@std@@QAEPAV?$basic_string@DU?$char_traits@D@std@@V?$allocator@D@2@@1@QAV21@$$QAV21@@Z 00405b50 f i carclass.obj
 0001:00004ce0       ??$_Uninitialized_move@PAV?$basic_string@DU?$char_traits@D@std@@V?$allocator@D@2@@std@@PAV12@V?$allocator@V?$basic_string@DU?$char_traits@D@std@@V?$allocator@D@2@@std@@@2@@std@@YAPAV?$basic_string@DU?$char_traits@D@std@@V?$allocator@D@2@@0@QAV10@0PAV10@AAV?$allocator@V?$basic_string@DU?$char_traits@D@std@@V?$allocator@D@2@@std@@@0@@Z 00405ce0 f i carclass.obj
 0001:00004d50       ??0n_carclass@@QAE@PBDHH@Z 00405d50 f   carclass.obj
 0001:00004ed0       ??1n_carclass@@QAE@XZ      00405ed0 f   carclass.obj
 0001:00004ee0       ?_Xlength@?$vector@V?$basic_string@DU?$char_traits@D@std@@V?$allocator@D@2@@std@@V?$allocator@V?$basic_string@DU?$char_traits@D@std@@V?$allocator@D@2@@std@@@2@@std@@CAXXZ 00405ee0 f i carclass.obj
 0001:00004ef0       ?allocate@?$allocator@V?$basic_string@DU?$char_traits@D@std@@V?$allocator@D@2@@std@@@std@@QAEPAV?$basic_string@DU?$char_traits@D@std@@V?$allocator@D@2@@2@I@Z 00405ef0 f i carclass.obj
 0001:00004f60       ?getcarlist@n_carclass@@SAPAVscript@@XZ 00405f60 f   carclass.obj
 0001:00005370       ___local_stdio_printf_options 00406370 f i carclass.obj
 0001:00005380       _sprintf                   00406380 f i carclass.obj
 0001:000053c0       ??$_Destroy_range@V?$allocator@V?$vector@Uhashi@@V?$allocator@Uhashi@@@std@@@std@@@std@@@std@@YAXPAV?$vector@Uhashi@@V?$allocator@Uhashi@@@std@@@0@0AAV?$allocator@V?$vector@Uhashi@@V?$allocator@Uhashi@@@std@@@std@@@0@@Z 004063c0 f i carenagame.obj
 0001:00005430       ??$_Emplace_reallocate@ABUkeys@@@?$vector@Ukeys@@V?$allocator@Ukeys@@@std@@@std@@QAEPAUkeys@@QAU2@ABU2@@Z 00406430 f i carenagame.obj
 0001:000055d0       ??$_Emplace_reallocate@ABUpointf3x@@@?$vector@Upointf3x@@V?$allocator@Upointf3x@@@std@@@std@@QAEPAUpointf3x@@QAU2@ABU2@@Z 004065d0 f i carenagame.obj
 0001:00005760       ??$_Emplace_reallocate@ABUpointi2@@@?$vector@Upointi2@@V?$allocator@Upointi2@@@std@@@std@@QAEPAUpointi2@@QAU2@ABU2@@Z 00406760 f i carenagame.obj
 0001:00005840       ??$_Emplace_reallocate@Upointi2@@@?$vector@Upointi2@@V?$allocator@Upointi2@@@std@@@std@@QAEPAUpointi2@@QAU2@$$QAU2@@Z 00406840 f i carenagame.obj
 0001:00005920       ??$_Range_construct_or_tidy@PAD@?$vector@EV?$allocator@E@std@@@std@@AAEXPAD0Uforward_iterator_tag@1@@Z 00406920 f i carenagame.obj
 0001:000059c0       ??0?$vector@V?$vector@Uhashi@@V?$allocator@Uhashi@@@std@@@std@@V?$allocator@V?$vector@Uhashi@@V?$allocator@Uhashi@@@std@@@std@@@2@@std@@QAE@IABV?$allocator@V?$vector@Uhashi@@V?$allocator@Uhashi@@@std@@@std@@@1@@Z 004069c0 f i carenagame.obj
 0001:00005a90       ??1?$vector@EV?$allocator@E@std@@@std@@QAE@XZ 00406a90 f i carenagame.obj
 0001:00005ae0       ??1?$vector@Ukeys@@V?$allocator@Ukeys@@@std@@@std@@QAE@XZ 00406ae0 f i carenagame.obj
 0001:00005b40       ??1?$vector@Upointf3x@@V?$allocator@Upointf3x@@@std@@@std@@QAE@XZ 00406b40 f i carenagame.obj
 0001:00005ba0       ??1?$vector@Upointi2@@V?$allocator@Upointi2@@@std@@@std@@QAE@XZ 00406ba0 f i carenagame.obj
 0001:00005c00       ??1?$vector@Vfs@@V?$allocator@Vfs@@@std@@@std@@QAE@XZ 00406c00 f i carenagame.obj
 0001:00005c70       ??1gamerunj@@QAE@XZ        00406c70 f i carenagame.obj
 0001:00005e30       ?_Change_array@?$vector@Upointi2@@V?$allocator@Upointi2@@@std@@@std@@AAEXQAUpointi2@@II@Z 00406e30 f i carenagame.obj
 0001:00005e90       ?_Erase@?$_Tree@V?$_Tset_traits@Vfs@@P6A_NABV1@0@ZV?$allocator@Vfs@@@std@@$0A@@std@@@std@@IAEXPAU?$_Tree_node@Vfs@@PAX@2@@Z 00406e90 f i carenagame.obj
 0001:00005ed0       ?_Tidy@?$vector@Ucaroj@@V?$allocator@Ucaroj@@@std@@@std@@AAEXXZ 00406ed0 f i carenagame.obj
 0001:00006050       ?_Tidy@?$vector@V?$vector@Uhashi@@V?$allocator@Uhashi@@@std@@@std@@V?$allocator@V?$vector@Uhashi@@V?$allocator@Uhashi@@@std@@@std@@@2@@std@@AAEXXZ 00407050 f i carenagame.obj
 0001:000060d0       ?_Tidy_deallocate@?$basic_string@DU?$char_traits@D@std@@V?$allocator@D@2@@std@@QAEXXZ 004070d0 f i carenagame.obj
 0001:00006120       ?_Xlength@?$vector@EV?$allocator@E@std@@@std@@CAXXZ 00407120 f i carenagame.obj
 0001:00006130       ?_Xlength@?$vector@Ukeys@@V?$allocator@Ukeys@@@std@@@std@@CAXXZ 00407130 f i carenagame.obj
 0001:00006140       ?_Xlength@?$vector@Upointf3x@@V?$allocator@Upointf3x@@@std@@@std@@CAXXZ 00407140 f i carenagame.obj
 0001:00006150       ?_Xlength@?$vector@Upointi2@@V?$allocator@Upointi2@@@std@@@std@@CAXXZ 00407150 f i carenagame.obj
 0001:00006160       ?_Xlength@?$vector@V?$vector@Uhashi@@V?$allocator@Uhashi@@@std@@@std@@V?$allocator@V?$vector@Uhashi@@V?$allocator@Uhashi@@@std@@@std@@@2@@std@@CAXXZ 00407160 f i carenagame.obj
 0001:00006170       ?allocate@?$allocator@Upointi2@@@std@@QAEPAUpointi2@@I@Z 00407170 f i carenagame.obj
 0001:000061e0       ?append@?$basic_string@DU?$char_traits@D@std@@V?$allocator@D@2@@std@@QAEAAV12@ID@Z 004071e0 f i carenagame.obj
 0001:00006340       ?carenagamedraw3d@@YAXXZ   00407340 f   carenagame.obj
 0001:00006870       ?carenagameexit@@YAXXZ     00407870 f   carenagame.obj
 0001:00006b80       ?carenagameinit@@YAXXZ     00407b80 f   carenagame.obj
 0001:00007400       ?carenagameproc@@YAXXZ     00408400 f   carenagame.obj
 0001:000082f0       ?gametick@@YAXABV?$vector@Ukeys@@V?$allocator@Ukeys@@@std@@@std@@@Z 004092f0 f   carenagame.obj
 0001:00008490       ?getkeys@@YA?AV?$vector@Ukeys@@V?$allocator@Ukeys@@@std@@@std@@XZ 00409490 f   carenagame.obj
 0001:00008c40       ??$_Resize@V<lambda_b43231e041eddc147f2670fff5a276a3>@@@?$vector@HV?$allocator@H@std@@@std@@AAEXIV<lambda_b43231e041eddc147f2670fff5a276a3>@@@Z 00409c40 f i carenalobby.obj
 0001:00008d70       ??$find@Vedit@res3d@@@shape@res3d@@QAEPAVedit@1@PBD@Z 00409d70 f i carenalobby.obj
 0001:00008de0       ??$find@Vhscroll@res3d@@@shape@res3d@@QAEPAVhscroll@1@PBD@Z 00409de0 f i carenalobby.obj
 0001:00008e50       ??$find@Vlistbox@res3d@@@shape@res3d@@QAEPAVlistbox@1@PBD@Z 00409e50 f i carenalobby.obj
 0001:00008ec0       ??$find@Vpbut@res3d@@@shape@res3d@@QAEPAVpbut@1@PBD@Z 00409ec0 f i carenalobby.obj
 0001:00008f30       ??$find@Vtext@res3d@@@shape@res3d@@QAEPAVtext@1@PBD@Z 00409f30 f i carenalobby.obj
 0001:00008fa0       ??1gamedescj@@QAE@XZ       00409fa0 f i carenalobby.obj
 0001:00009180       ?_Xlength@?$vector@HV?$allocator@H@std@@@std@@CAXXZ 0040a180 f i carenalobby.obj
 0001:00009190       ?allocate@?$allocator@H@std@@QAEPAHI@Z 0040a190 f i carenalobby.obj
 0001:00009c40       ?carenalobbydraw2d@@YAXXZ  0040ac40 f   carenalobby.obj
 0001:00009ce0       ?carenalobbydraw3d@@YAXXZ  0040ace0 f   carenalobby.obj
 0001:00009ec0       ?carenalobbyexit@@YAXXZ    0040aec0 f   carenalobby.obj
 0001:0000a0a0       ?carenalobbyinit@@YAXXZ    0040b0a0 f   carenalobby.obj
 0001:0000a340       ?carenalobbyproc@@YAXXZ    0040b340 f   carenalobby.obj
 0001:0000aaa0       ?gettrackscene@@YAPAVtree2@@XZ 0040baa0 f   carenalobby.obj
 0001:0000b170       _fprintf                   0040c170 f i carenalobby.obj
 0001:0000b1a0       ??$?0V?$allocator@U?$_Tree_node@U?$pair@$$CBV?$basic_string@DU?$char_traits@D@std@@V?$allocator@D@2@@std@@Vjson@@@std@@PAX@std@@@std@@@?$_Tree@V?$_Tmap_traits@V?$basic_string@DU?$char_traits@D@std@@V?$allocator@D@2@@std@@Vjson@@U?$less@V?$basic_string@DU?$char_traits@D@std@@V?$allocator@D@2@@std@@@2@V?$allocator@U?$pair@$$CBV?$basic_string@DU?$char_traits@D@std@@V?$allocator@D@2@@std@@Vjson@@@std@@@2@$0A@@std@@@std@@QAE@ABV01@$$QAV?$allocator@U?$_Tree_node@U?$pair@$$CBV?$basic_string@DU?$char_traits@D@std@@V?$allocator@D@2@@std@@Vjson@@@std@@PAX@std@@@1@@Z 0040c1a0 f i connectpackets.obj
 0001:0000b270       ??$_Buynode@AAU?$pair@$$CBV?$basic_string@DU?$char_traits@D@std@@V?$allocator@D@2@@std@@Vjson@@@std@@@?$_Tree_comp_alloc@V?$_Tmap_traits@V?$basic_string@DU?$char_traits@D@std@@V?$allocator@D@2@@std@@Vjson@@U?$less@V?$basic_string@DU?$char_traits@D@std@@V?$allocator@D@2@@std@@@2@V?$allocator@U?$pair@$$CBV?$basic_string@DU?$char_traits@D@std@@V?$allocator@D@2@@std@@Vjson@@@std@@@2@$0A@@std@@@std@@QAEPAU?$_Tree_node@U?$pair@$$CBV?$basic_string@DU?$char_traits@D@std@@V?$allocator@D@2@@std@@Vjson@@@std@@PAX@1@AAU?$pair@$$CBV?$basic_string@DU?$char_traits@D@std@@V?$allocator@D@2@@std@@Vjson@@@1@@Z 0040c270 f i connectpackets.obj
 0001:0000b300       ??$_Copy_nodes@U_Copy_tag@?$_Tree@V?$_Tmap_traits@V?$basic_string@DU?$char_traits@D@std@@V?$allocator@D@2@@std@@Vjson@@U?$less@V?$basic_string@DU?$char_traits@D@std@@V?$allocator@D@2@@std@@@2@V?$allocator@U?$pair@$$CBV?$basic_string@DU?$char_traits@D@std@@V?$allocator@D@2@@std@@Vjson@@@std@@@2@$0A@@std@@@std@@@?$_Tree@V?$_Tmap_traits@V?$basic_string@DU?$char_traits@D@std@@V?$allocator@D@2@@std@@Vjson@@U?$less@V?$basic_string@DU?$char_traits@D@std@@V?$allocator@D@2@@std@@@2@V?$allocator@U?$pair@$$CBV?$basic_string@DU?$char_traits@D@std@@V?$allocator@D@2@@std@@Vjson@@@std@@@2@$0A@@std@@@std@@IAEPAU?$_Tree_node@U?$pair@$$CBV?$basic_string@DU?$char_traits@D@std@@V?$allocator@D@2@@std@@Vjson@@@std@@PAX@1@PAU21@0U_Copy_tag@01@@Z 0040c300 f i connectpackets.obj
 0001:0000b3b0       ??$insert_object_object@Vavaj@@V1@@json@@QAEXV?$basic_string@DU?$char_traits@D@std@@V?$allocator@D@2@@std@@0ABVavaj@@@Z 0040c3b0 f i connectpackets.obj
 0001:0000b570       ??$insert_object_object@Venvj@@V1@@json@@QAEXV?$basic_string@DU?$char_traits@D@std@@V?$allocator@D@2@@std@@0ABVenvj@@@Z 0040c570 f i connectpackets.obj
 0001:0000b730       ??0?$vector@Vjson@@V?$allocator@Vjson@@@std@@@std@@QAE@ABV01@@Z 0040c730 f i connectpackets.obj
 0001:0000b850       ??0hij@@QAE@ABVjson@@@Z    0040c850 f   connectpackets.obj
 0001:0000b950       ??0json@@QAE@ABV0@@Z       0040c950 f i connectpackets.obj
 0001:0000b9d0       ??0welcomej@@QAE@ABVjson@@@Z 0040c9d0 f   connectpackets.obj
 0001:0000bb10       ??0welcomej@@QAE@XZ        0040cb10 f   connectpackets.obj
 0001:0000bba0       ??1?$_Uninitialized_backout_al@PAVjson@@V?$allocator@Vjson@@@std@@@std@@QAE@XZ 0040cba0 f i connectpackets.obj
 0001:0000bbd0       ??1?$map@V?$basic_string@DU?$char_traits@D@std@@V?$allocator@D@2@@std@@Vjson@@U?$less@V?$basic_string@DU?$char_traits@D@std@@V?$allocator@D@2@@std@@@2@V?$allocator@U?$pair@$$CBV?$basic_string@DU?$char_traits@D@std@@V?$allocator@D@2@@std@@Vjson@@@std@@@2@@std@@QAE@XZ 0040cbd0 f i connectpackets.obj
 0001:0000bc30       ??1avaj@@QAE@XZ            0040cc30 f i connectpackets.obj
 0001:0000bd20       ??1envj@@QAE@XZ            0040cd20 f i connectpackets.obj
 0001:0000bde0       ?_Buyheadnode@?$_Tree_comp_alloc@V?$_Tmap_traits@V?$basic_string@DU?$char_traits@D@std@@V?$allocator@D@2@@std@@Vjson@@U?$less@V?$basic_string@DU?$char_traits@D@std@@V?$allocator@D@2@@std@@@2@V?$allocator@U?$pair@$$CBV?$basic_string@DU?$char_traits@D@std@@V?$allocator@D@2@@std@@Vjson@@@std@@@2@$0A@@std@@@std@@QAEPAU?$_Tree_node@U?$pair@$$CBV?$basic_string@DU?$char_traits@D@std@@V?$allocator@D@2@@std@@Vjson@@@std@@PAX@2@XZ 0040cde0 f i connectpackets.obj
 0001:0000be00       ?_Buynode0@?$_Tree_comp_alloc@V?$_Tmap_traits@V?$basic_string@DU?$char_traits@D@std@@V?$allocator@D@2@@std@@Vjson@@U?$less@V?$basic_string@DU?$char_traits@D@std@@V?$allocator@D@2@@std@@@2@V?$allocator@U?$pair@$$CBV?$basic_string@DU?$char_traits@D@std@@V?$allocator@D@2@@std@@Vjson@@@std@@@2@$0A@@std@@@std@@QAEPAU?$_Tree_node@U?$pair@$$CBV?$basic_string@DU?$char_traits@D@std@@V?$allocator@D@2@@std@@Vjson@@@std@@PAX@2@XZ 0040ce00 f i connectpackets.obj
 0001:0000be20       ?_Freenode0@?$_Tree_comp_alloc@V?$_Tmap_traits@V?$basic_string@DU?$char_traits@D@std@@V?$allocator@D@2@@std@@Vjson@@U?$less@V?$basic_string@DU?$char_traits@D@std@@V?$allocator@D@2@@std@@@2@V?$allocator@U?$pair@$$CBV?$basic_string@DU?$char_traits@D@std@@V?$allocator@D@2@@std@@Vjson@@@std@@@2@$0A@@std@@@std@@QAEXPAU?$_Tree_node@U?$pair@$$CBV?$basic_string@DU?$char_traits@D@std@@V?$allocator@D@2@@std@@Vjson@@@std@@PAX@2@@Z 0040ce20 f i connectpackets.obj
 0001:0000be40       ?_Tidy@?$vector@Vjson@@V?$allocator@Vjson@@@std@@@std@@AAEXXZ 0040ce40 f i connectpackets.obj
 0001:0000bec0       ?_Xlength@?$vector@Vjson@@V?$allocator@Vjson@@@std@@@std@@CAXXZ 0040cec0 f i connectpackets.obj
 0001:0000bed0       ?save@hij@@QBE?AVjson@@XZ  0040ced0 f   connectpackets.obj
 0001:0000bfe0       ?save@welcomej@@QBE?AVjson@@XZ 0040cfe0 f   connectpackets.obj
 0001:0000c120       ?carenaconnectdraw2d@@YAXXZ 0040d120 f   connectstate.obj
 0001:0000c160       ?carenaconnectexit@@YAXXZ  0040d160 f   connectstate.obj
 0001:0000c250       ?carenaconnectinit@@YAXXZ  0040d250 f   connectstate.obj
 0001:0000c470       ?carenaconnectproc@@YAXXZ  0040d470 f   connectstate.obj
 0001:0000c640       ?carenastatusdraw2d@@YAXXZ 0040d640 f   connectstate.obj
 0001:0000c680       ?carenastatusexit@@YAXXZ   0040d680 f   connectstate.obj
 0001:0000c6e0       ?carenastatusinit@@YAXXZ   0040d6e0 f   connectstate.obj
 0001:0000c7c0       ?carenastatusproc@@YAXXZ   0040d7c0 f   connectstate.obj
 0001:0000c800       ??$?HDU?$char_traits@D@std@@V?$allocator@D@1@@std@@YA?AV?$basic_string@DU?$char_traits@D@std@@V?$allocator@D@2@@0@ABV10@QBD@Z 0040d800 f i constructor.obj
 0001:0000c9b0       ??$fill@PAHH@std@@YAXPAH0ABH@Z 0040d9b0 f i constructor.obj
 0001:0000ca30       ??$find@Vpbut@res2d@@@shape@res2d@@QAEPAVpbut@1@PBD@Z 0040da30 f i constructor.obj
 0001:0000caa0       ??$find@Vtext@res2d@@@shape@res2d@@QAEPAVtext@1@PBD@Z 0040daa0 f i constructor.obj
 0001:0000cb10       ??$find@Vvscroll@res2d@@@shape@res2d@@QAEPAVvscroll@1@PBD@Z 0040db10 f i constructor.obj
 0001:0000cb80       ??$get_object_array_object@Upiece@@U1@@json@@QBE_NV?$basic_string@DU?$char_traits@D@std@@V?$allocator@D@2@@std@@0PAUpiece@@I@Z 0040db80 f i constructor.obj
 0001:0000ccd0       ??$insert_array_object@Upiece@@U1@@json@@QAEXV?$basic_string@DU?$char_traits@D@std@@V?$allocator@D@2@@std@@0PBUpiece@@I@Z 0040dcd0 f i constructor.obj
 0001:0000cee0       ??0?$basic_string@DU?$char_traits@D@std@@V?$allocator@D@2@@std@@QAE@QBD@Z 0040dee0 f i constructor.obj
 0001:0000cf50       ??0piece@@QAE@ABVjson@@@Z  0040df50 f   constructor.obj
 0001:0000d120       ??0piece@@QAE@XZ           0040e120 f   constructor.obj
 0001:0000d190       ??0trk@@QAE@ABVjson@@@Z    0040e190 f   constructor.obj
 0001:0000d400       ??0trkt@@QAE@ABVjson@@@Z   0040e400 f   constructor.obj
 0001:0000d440       ?_Become_small@?$basic_string@DU?$char_traits@D@std@@V?$allocator@D@2@@std@@QAEXXZ 0040e440 f i constructor.obj
 0001:0000d490       ?append@?$basic_string@DU?$char_traits@D@std@@V?$allocator@D@2@@std@@QAEAAV12@QBDI@Z 0040e490 f i constructor.obj
 0001:0000d5f0       ?buildbacksnd@trkt@@QAEPAUwavehandle@@XZ 0040e5f0 f   constructor.obj
 0001:00010780       ?buildtrack@trkt@@QAEX_N@Z 00411780 f   constructor.obj
 0001:00010dc0       ?constructordraw2d@@YAXXZ  00411dc0 f   constructor.obj
 0001:00010e60       ?constructordraw3d@@YAXXZ  00411e60 f   constructor.obj
 0001:00010f40       ?constructorexit@@YAXXZ    00411f40 f   constructor.obj
 0001:000110c0       ?constructorinit@@YAXXZ    004120c0 f   constructor.obj
 0001:00011a90       ?constructorproc@@YAXXZ    00412a90 f   constructor.obj
 0001:000126c0       ?getconstructeddir@@YAPBDXZ 004136c0 f   constructor.obj
 0001:00012b60       ?save@piece@@QBE?AVjson@@XZ 00413b60 f   constructor.obj
 0001:00012ce0       ?save@trk@@QBE?AVjson@@XZ  00413ce0 f   constructor.obj
 0001:00013300       ??$?6U?$char_traits@D@std@@@std@@YAAAV?$basic_ostream@DU?$char_traits@D@std@@@0@AAV10@PBD@Z 00414300 f i enums.obj
 0001:00013580       ??$_Immortalize_impl@V_Iostream_error_category@std@@@std@@YGHPAX0PAPAX@Z 00414580 f i enums.obj
 0001:000135a0       ??$use_facet@V?$ctype@D@std@@@std@@YAABV?$ctype@D@0@ABVlocale@0@@Z 004145a0 f i enums.obj
 0001:00013710       ??$use_facet@V?$numpunct@D@std@@@std@@YAABV?$numpunct@D@0@ABVlocale@0@@Z 00414710 f i enums.obj
 0001:00013880       ??0?$basic_istream@DU?$char_traits@D@std@@@std@@QAE@PAV?$basic_streambuf@DU?$char_traits@D@std@@@1@_N@Z 00414880 f i enums.obj
 0001:00013a60       ??0?$basic_string@DU?$char_traits@D@std@@V?$allocator@D@2@@std@@QAE@ID@Z 00414a60 f i enums.obj
 0001:00013b90       ??0?$basic_stringstream@DU?$char_traits@D@std@@V?$allocator@D@2@@std@@QAE@H@Z 00414b90 f i enums.obj
 0001:00013d30       ??0_Locinfo@std@@QAE@PBD@Z 00414d30 f i enums.obj
 0001:00013de0       ??0_System_error@std@@IAE@Verror_code@1@ABV?$basic_string@DU?$char_traits@D@std@@V?$allocator@D@2@@1@@Z 00414de0 f i enums.obj
 0001:00013f50       ??0_System_error@std@@QAE@ABV01@@Z 00414f50 f i enums.obj
 0001:00013fa0       ??0bad_cast@std@@QAE@ABV01@@Z 00414fa0 f i enums.obj
 0001:00013fe0       ??0exception@std@@QAE@ABV01@@Z 00414fe0 f i enums.obj
 0001:00014010       ??0failure@ios_base@std@@QAE@ABV012@@Z 00415010 f i enums.obj
 0001:00014060       ??0failure@ios_base@std@@QAE@PBDABVerror_code@2@@Z 00415060 f i enums.obj
 0001:00014130       ??0keys@@QAE@E@Z           00415130 f   enums.obj
 0001:00014190       ??0runtime_error@std@@QAE@ABV01@@Z 00415190 f i enums.obj
 0001:000141d0       ??0runtime_error@std@@QAE@PBD@Z 004151d0 f i enums.obj
 0001:00014220       ??0sentry@?$basic_ostream@DU?$char_traits@D@std@@@std@@QAE@AAV12@@Z 00415220 f i enums.obj
 0001:00014370       ??0system_error@std@@QAE@ABV01@@Z 00415370 f i enums.obj
 0001:000143c0       ??1?$_Yarn@D@std@@QAE@XZ   004153c0 f i enums.obj
 0001:000143e0       ??1?$_Yarn@_W@std@@QAE@XZ  004153e0 f i enums.obj
 0001:00014400       ??1?$basic_ios@DU?$char_traits@D@std@@@std@@UAE@XZ 00415400 f i enums.obj
 0001:00014440       ??1?$basic_iostream@DU?$char_traits@D@std@@@std@@UAE@XZ 00415440 f i enums.obj
 0001:000144a0       ??1?$basic_istream@DU?$char_traits@D@std@@@std@@UAE@XZ 004154a0 f i enums.obj
 0001:000144c0       ??1?$basic_ostream@DU?$char_traits@D@std@@@std@@UAE@XZ 004154c0 f i enums.obj
 0001:000144e0       ??1?$basic_streambuf@DU?$char_traits@D@std@@@std@@UAE@XZ 004154e0 f i enums.obj
 0001:00014540       ??1?$basic_stringbuf@DU?$char_traits@D@std@@V?$allocator@D@2@@std@@UAE@XZ 00415540 f i enums.obj
 0001:00014640       ??1?$basic_stringstream@DU?$char_traits@D@std@@V?$allocator@D@2@@std@@UAE@XZ 00415640 f i enums.obj
 0001:000146c0       ??1?$ctype@D@std@@MAE@XZ   004156c0 f i enums.obj
 0001:00014700       ??1?$num_put@DV?$ostreambuf_iterator@DU?$char_traits@D@std@@@std@@@std@@MAE@XZ 00415700 f i enums.obj
 0001:00014710       ??1?$numpunct@D@std@@MAE@XZ 00415710 f i enums.obj
 0001:00014740       ??1?$unique_ptr@V_Facet_base@std@@U?$default_delete@V_Facet_base@std@@@2@@std@@QAE@XZ 00415740 f i enums.obj
 0001:00014750       ??1_Facet_base@std@@UAE@XZ 00415750 f i enums.obj
 0001:00014760       ??1_Locinfo@std@@QAE@XZ    00415760 f i enums.obj
 0001:00014830       ??1_Sentry_base@?$basic_ostream@DU?$char_traits@D@std@@@std@@QAE@XZ 00415830 f i enums.obj
 0001:00014870       ??1bad_cast@std@@UAE@XZ    00415870 f i enums.obj
 0001:00014890       ??1error_category@std@@UAE@XZ 00415890 f i enums.obj
 0001:000148a0       ??1exception@std@@UAE@XZ   004158a0 f i enums.obj
 0001:000148c0       ??1facet@locale@std@@MAE@XZ 004158c0 f i enums.obj
 0001:000148d0       ??1failure@ios_base@std@@UAE@XZ 004158d0 f i enums.obj
 0001:000148f0       ??1ios_base@std@@UAE@XZ    004158f0 f i enums.obj
 0001:00014930       ??1locale@std@@QAE@XZ      00415930 f i enums.obj
 0001:00014970       ??1runtime_error@std@@UAE@XZ 00415970 f i enums.obj
 0001:00014990       ??1sentry@?$basic_ostream@DU?$char_traits@D@std@@@std@@QAE@XZ 00415990 f i enums.obj
 0001:000149f0       ??6?$basic_ostream@DU?$char_traits@D@std@@@std@@QAEAAV01@H@Z 004159f0 f i enums.obj
 0001:00014c80       ??_D?$basic_stringstream@DU?$char_traits@D@std@@V?$allocator@D@2@@std@@QAEXXZ 00415c80 f i enums.obj
 0001:00014d34       ??_E?$basic_iostream@DU?$char_traits@D@std@@@std@@$4PPPPPPPM@A@AEPAXI@Z 00415d34 f i enums.obj
 0001:00014d3c       ??_E?$basic_istream@DU?$char_traits@D@std@@@std@@$4PPPPPPPM@A@AEPAXI@Z 00415d3c f i enums.obj
 0001:00014d44       ??_E?$basic_ostream@DU?$char_traits@D@std@@@std@@$4PPPPPPPM@A@AEPAXI@Z 00415d44 f i enums.obj
 0001:00014d4c       ??_E?$basic_stringstream@DU?$char_traits@D@std@@V?$allocator@D@2@@std@@$4PPPPPPPM@A@AEPAXI@Z 00415d4c f i enums.obj
 0001:00014d60       ??_G?$basic_ios@DU?$char_traits@D@std@@@std@@UAEPAXI@Z 00415d60 f i enums.obj
 0001:00014d60       ??_E?$basic_ios@DU?$char_traits@D@std@@@std@@UAEPAXI@Z 00415d60 f i enums.obj
 0001:00014dc0       ??_G?$basic_iostream@DU?$char_traits@D@std@@@std@@UAEPAXI@Z 00415dc0 f i enums.obj
 0001:00014dc0       ??_E?$basic_iostream@DU?$char_traits@D@std@@@std@@UAEPAXI@Z 00415dc0 f i enums.obj
 0001:00014e70       ??_E?$basic_istream@DU?$char_traits@D@std@@@std@@UAEPAXI@Z 00415e70 f i enums.obj
 0001:00014e70       ??_G?$basic_istream@DU?$char_traits@D@std@@@std@@UAEPAXI@Z 00415e70 f i enums.obj
 0001:00014ee0       ??_E?$basic_ostream@DU?$char_traits@D@std@@@std@@UAEPAXI@Z 00415ee0 f i enums.obj
 0001:00014ee0       ??_G?$basic_ostream@DU?$char_traits@D@std@@@std@@UAEPAXI@Z 00415ee0 f i enums.obj
 0001:00014f50       ??_E?$basic_streambuf@DU?$char_traits@D@std@@@std@@UAEPAXI@Z 00415f50 f i enums.obj
 0001:00014f50       ??_G?$basic_streambuf@DU?$char_traits@D@std@@@std@@UAEPAXI@Z 00415f50 f i enums.obj
 0001:00014fd0       ??_G?$basic_stringbuf@DU?$char_traits@D@std@@V?$allocator@D@2@@std@@UAEPAXI@Z 00415fd0 f i enums.obj
 0001:00014fd0       ??_E?$basic_stringbuf@DU?$char_traits@D@std@@V?$allocator@D@2@@std@@UAEPAXI@Z 00415fd0 f i enums.obj
 0001:00015000       ??_E?$basic_stringstream@DU?$char_traits@D@std@@V?$allocator@D@2@@std@@UAEPAXI@Z 00416000 f i enums.obj
 0001:00015000       ??_G?$basic_stringstream@DU?$char_traits@D@std@@V?$allocator@D@2@@std@@UAEPAXI@Z 00416000 f i enums.obj
 0001:00015030       ??_G?$ctype@D@std@@MAEPAXI@Z 00416030 f i enums.obj
 0001:00015030       ??_E?$ctype@D@std@@MAEPAXI@Z 00416030 f i enums.obj
 0001:00015090       ??_E?$num_put@DV?$ostreambuf_iterator@DU?$char_traits@D@std@@@std@@@std@@MAEPAXI@Z 00416090 f i enums.obj
 0001:00015090       ??_G?$num_put@DV?$ostreambuf_iterator@DU?$char_traits@D@std@@@std@@@std@@MAEPAXI@Z 00416090 f i enums.obj
 0001:000150c0       ??_E?$numpunct@D@std@@MAEPAXI@Z 004160c0 f i enums.obj
 0001:000150c0       ??_G?$numpunct@D@std@@MAEPAXI@Z 004160c0 f i enums.obj
 0001:00015110       ??_G_Facet_base@std@@UAEPAXI@Z 00416110 f i enums.obj
 0001:00015110       ??_E_Facet_base@std@@UAEPAXI@Z 00416110 f i enums.obj
 0001:00015140       ??_E_Generic_error_category@std@@UAEPAXI@Z 00416140 f i enums.obj
 0001:00015140       ??_G_Generic_error_category@std@@UAEPAXI@Z 00416140 f i enums.obj
 0001:00015160       ??_E_Iostream_error_category@std@@UAEPAXI@Z 00416160 f i enums.obj
 0001:00015160       ??_G_Iostream_error_category@std@@UAEPAXI@Z 00416160 f i enums.obj
 0001:00015180       ??_E_System_error@std@@UAEPAXI@Z 00416180 f i enums.obj
 0001:00015180       ??_G_System_error@std@@UAEPAXI@Z 00416180 f i enums.obj
 0001:000151b0       ??_Ebad_cast@std@@UAEPAXI@Z 004161b0 f i enums.obj
 0001:000151b0       ??_Gbad_cast@std@@UAEPAXI@Z 004161b0 f i enums.obj
 0001:000151e0       ??_Ectype_base@std@@UAEPAXI@Z 004161e0 f i enums.obj
 0001:000151e0       ??_Gctype_base@std@@UAEPAXI@Z 004161e0 f i enums.obj
 0001:00015210       ??_Eexception@std@@UAEPAXI@Z 00416210 f i enums.obj
 0001:00015210       ??_Gexception@std@@UAEPAXI@Z 00416210 f i enums.obj
 0001:00015240       ??_Gfacet@locale@std@@MAEPAXI@Z 00416240 f i enums.obj
 0001:00015240       ??_Efacet@locale@std@@MAEPAXI@Z 00416240 f i enums.obj
 0001:00015270       ??_Gfailure@ios_base@std@@UAEPAXI@Z 00416270 f i enums.obj
 0001:00015270       ??_Efailure@ios_base@std@@UAEPAXI@Z 00416270 f i enums.obj
 0001:000152a0       ??_Eios_base@std@@UAEPAXI@Z 004162a0 f i enums.obj
 0001:000152a0       ??_Gios_base@std@@UAEPAXI@Z 004162a0 f i enums.obj
 0001:00015300       ??_Eruntime_error@std@@UAEPAXI@Z 00416300 f i enums.obj
 0001:00015300       ??_Gruntime_error@std@@UAEPAXI@Z 00416300 f i enums.obj
 0001:00015330       ??_Esystem_error@std@@UAEPAXI@Z 00416330 f i enums.obj
 0001:00015330       ??_Gsystem_error@std@@UAEPAXI@Z 00416330 f i enums.obj
 0001:00015360       ?_Decref@facet@locale@std@@UAEPAV_Facet_base@3@XZ 00416360 f i enums.obj
 0001:00015380       ?_Ffmt@?$num_put@DV?$ostreambuf_iterator@DU?$char_traits@D@std@@@std@@@std@@ABAPADPADDH@Z 00416380 f i enums.obj
 0001:00015440       ?_Fput@?$num_put@DV?$ostreambuf_iterator@DU?$char_traits@D@std@@@std@@@std@@ABA?AV?$ostreambuf_iterator@DU?$char_traits@D@std@@@2@V32@AAVios_base@2@DPBDI@Z 00416440 f i enums.obj
 0001:000159d0       ?_Gnavail@?$basic_streambuf@DU?$char_traits@D@std@@@std@@IBE_JXZ 004169d0 f i enums.obj
 0001:000159f0       ?_Ifmt@?$num_put@DV?$ostreambuf_iterator@DU?$char_traits@D@std@@@std@@@std@@ABAPADPADPBDH@Z 004169f0 f i enums.obj
 0001:00015a80       ?_Incref@facet@locale@std@@UAEXXZ 00416a80 f i enums.obj
 0001:00015a90       ?_Init@?$numpunct@D@std@@IAEXABV_Locinfo@2@_N@Z 00416a90 f i enums.obj
 0001:00015c20       ?_Iput@?$num_put@DV?$ostreambuf_iterator@DU?$char_traits@D@std@@@std@@@std@@ABA?AV?$ostreambuf_iterator@DU?$char_traits@D@std@@@2@V32@AAVios_base@2@DPADI@Z 00416c20 f i enums.obj
 0001:00016110       ?_Lock@?$basic_streambuf@DU?$char_traits@D@std@@@std@@UAEXXZ 00417110 f i enums.obj
 0001:00016120       ?_Osfx@?$basic_ostream@DU?$char_traits@D@std@@@std@@QAEXXZ 00417120 f i enums.obj
 0001:000161f0       ?_Pnavail@?$basic_streambuf@DU?$char_traits@D@std@@@std@@IBE_JXZ 004171f0 f i enums.obj
 0001:00016210       ?_Put@?$num_put@DV?$ostreambuf_iterator@DU?$char_traits@D@std@@@std@@@std@@ABA?AV?$ostreambuf_iterator@DU?$char_traits@D@std@@@2@V32@PBDI@Z 00417210 f i enums.obj
 0001:00016290       ?_Rep@?$num_put@DV?$ostreambuf_iterator@DU?$char_traits@D@std@@@std@@@std@@ABA?AV?$ostreambuf_iterator@DU?$char_traits@D@std@@@2@V32@DI@Z 00417290 f i enums.obj
 0001:00016300       ?_Tidy@?$numpunct@D@std@@AAEXXZ 00417300 f i enums.obj
 0001:00016320       ?_Unlock@?$basic_streambuf@DU?$char_traits@D@std@@@std@@UAEXXZ 00417320 f i enums.obj
 0001:00016330       ?_Xran@?$_String_val@U?$_Simple_types@D@std@@@std@@SAXXZ 00417330 f i enums.obj
 0001:00016340       ?clear@ios_base@std@@QAEXH_N@Z 00417340 f i enums.obj
 0001:000163c0       ?deallocate@?$allocator@D@std@@QAEXQADI@Z 004173c0 f i enums.obj
 0001:00016400       ?default_error_condition@error_category@std@@UBE?AVerror_condition@2@H@Z 00417400 f i enums.obj
 0001:00016420       ?do_decimal_point@?$numpunct@D@std@@MBEDXZ 00417420 f i enums.obj
 0001:00016430       ?do_falsename@?$numpunct@D@std@@MBE?AV?$basic_string@DU?$char_traits@D@std@@V?$allocator@D@2@@2@XZ 00417430 f i enums.obj
 0001:000164a0       ?do_grouping@?$numpunct@D@std@@MBE?AV?$basic_string@DU?$char_traits@D@std@@V?$allocator@D@2@@2@XZ 004174a0 f i enums.obj
 0001:00016510       ?do_narrow@?$ctype@D@std@@MBEDDD@Z 00417510 f i enums.obj
 0001:00016520       ?do_narrow@?$ctype@D@std@@MBEPBDPBD0DPAD@Z 00417520 f i enums.obj
 0001:00016540       ?do_put@?$num_put@DV?$ostreambuf_iterator@DU?$char_traits@D@std@@@std@@@std@@MBE?AV?$ostreambuf_iterator@DU?$char_traits@D@std@@@2@V32@AAVios_base@2@DJ@Z 00417540 f i enums.obj
 0001:000165a0       ?do_put@?$num_put@DV?$ostreambuf_iterator@DU?$char_traits@D@std@@@std@@@std@@MBE?AV?$ostreambuf_iterator@DU?$char_traits@D@std@@@2@V32@AAVios_base@2@DK@Z 004175a0 f i enums.obj
 0001:00016600       ?do_put@?$num_put@DV?$ostreambuf_iterator@DU?$char_traits@D@std@@@std@@@std@@MBE?AV?$ostreambuf_iterator@DU?$char_traits@D@std@@@2@V32@AAVios_base@2@DN@Z 00417600 f i enums.obj
 0001:000167b0       ?do_put@?$num_put@DV?$ostreambuf_iterator@DU?$char_traits@D@std@@@std@@@std@@MBE?AV?$ostreambuf_iterator@DU?$char_traits@D@std@@@2@V32@AAVios_base@2@DO@Z 004177b0 f i enums.obj
 0001:00016960       ?do_put@?$num_put@DV?$ostreambuf_iterator@DU?$char_traits@D@std@@@std@@@std@@MBE?AV?$ostreambuf_iterator@DU?$char_traits@D@std@@@2@V32@AAVios_base@2@DPBX@Z 00417960 f i enums.obj
 0001:000169b0       ?do_put@?$num_put@DV?$ostreambuf_iterator@DU?$char_traits@D@std@@@std@@@std@@MBE?AV?$ostreambuf_iterator@DU?$char_traits@D@std@@@2@V32@AAVios_base@2@D_J@Z 004179b0 f i enums.obj
 0001:00016a10       ?do_put@?$num_put@DV?$ostreambuf_iterator@DU?$char_traits@D@std@@@std@@@std@@MBE?AV?$ostreambuf_iterator@DU?$char_traits@D@std@@@2@V32@AAVios_base@2@D_K@Z 00417a10 f i enums.obj
 0001:00016a70       ?do_put@?$num_put@DV?$ostreambuf_iterator@DU?$char_traits@D@std@@@std@@@std@@MBE?AV?$ostreambuf_iterator@DU?$char_traits@D@std@@@2@V32@AAVios_base@2@D_N@Z 00417a70 f i enums.obj
 0001:00016c70       ?do_thousands_sep@?$numpunct@D@std@@MBEDXZ 00417c70 f i enums.obj
 0001:00016c80       ?do_tolower@?$ctype@D@std@@MBEDD@Z 00417c80 f i enums.obj
 0001:00016ca0       ?do_tolower@?$ctype@D@std@@MBEPBDPADPBD@Z 00417ca0 f i enums.obj
 0001:00016cf0       ?do_toupper@?$ctype@D@std@@MBEDD@Z 00417cf0 f i enums.obj
 0001:00016d10       ?do_toupper@?$ctype@D@std@@MBEPBDPADPBD@Z 00417d10 f i enums.obj
 0001:00016d60       ?do_truename@?$numpunct@D@std@@MBE?AV?$basic_string@DU?$char_traits@D@std@@V?$allocator@D@2@@2@XZ 00417d60 f i enums.obj
 0001:00016dd0       ?do_widen@?$ctype@D@std@@MBEDD@Z 00417dd0 f i enums.obj
 0001:00016de0       ?do_widen@?$ctype@D@std@@MBEPBDPBD0PAD@Z 00417de0 f i enums.obj
 0001:00016e00       ?drawlines@@YAXPAUviewport2@@PAVmodelb@@UC32@@@Z 00417e00 f   enums.obj
 0001:00016e10       ?equivalent@error_category@std@@UBE_NABVerror_code@2@H@Z 00417e10 f i enums.obj
 0001:00016e40       ?equivalent@error_category@std@@UBE_NHABVerror_condition@2@@Z 00417e40 f i enums.obj
 0001:00016e80       ?findcarwheels@@YAXPAVtree2@@PAPAV1@@Z 00417e80 f   enums.obj
 0001:00016f10       ?findtreestrstrrec@@YAPAVtree2@@PAV1@PBD@Z 00417f10 f   enums.obj
 0001:00016f70       ?getpack@keys@@QBEEXZ      00417f70 f   enums.obj
 0001:00016fa0       ?imbue@?$basic_streambuf@DU?$char_traits@D@std@@@std@@MAEXABVlocale@2@@Z 00417fa0 f i enums.obj
 0001:00016fb0       ?intersectline2d@@YAHPBUpointf3@@000PAU1@PAM2@Z 00417fb0 f   enums.obj
 0001:00017100       ?log@keys@@QBE?AV?$basic_string@DU?$char_traits@D@std@@V?$allocator@D@2@@std@@XZ 00418100 f   enums.obj
 0001:000172a0       ?make_error_code@std@@YA?AVerror_code@1@W4io_errc@1@@Z 004182a0 f i enums.obj
 0001:000172e0       ?message@_Generic_error_category@std@@UBE?AV?$basic_string@DU?$char_traits@D@std@@V?$allocator@D@2@@2@H@Z 004182e0 f i enums.obj
 0001:00017350       ?message@_Iostream_error_category@std@@UBE?AV?$basic_string@DU?$char_traits@D@std@@V?$allocator@D@2@@2@H@Z 00418350 f i enums.obj
 0001:000173f0       ?name@_Generic_error_category@std@@UBEPBDXZ 004183f0 f i enums.obj
 0001:00017400       ?name@_Iostream_error_category@std@@UBEPBDXZ 00418400 f i enums.obj
 0001:00017410       ?overflow@?$basic_streambuf@DU?$char_traits@D@std@@@std@@MAEHH@Z 00418410 f i enums.obj
 0001:00017420       ?overflow@?$basic_stringbuf@DU?$char_traits@D@std@@V?$allocator@D@2@@std@@MAEHH@Z 00418420 f i enums.obj
 0001:00017580       ?pbackfail@?$basic_streambuf@DU?$char_traits@D@std@@@std@@MAEHH@Z 00418580 f i enums.obj
 0001:00017590       ?pbackfail@?$basic_stringbuf@DU?$char_traits@D@std@@V?$allocator@D@2@@std@@MAEHH@Z 00418590 f i enums.obj
 0001:000175f0       ?seekoff@?$basic_streambuf@DU?$char_traits@D@std@@@std@@MAE?AV?$fpos@U_Mbstatet@@@2@_JHH@Z 004185f0 f i enums.obj
 0001:00017620       ?seekoff@?$basic_stringbuf@DU?$char_traits@D@std@@V?$allocator@D@2@@std@@MAE?AV?$fpos@U_Mbstatet@@@2@_JHH@Z 00418620 f i enums.obj
 0001:00017780       ?seekpos@?$basic_streambuf@DU?$char_traits@D@std@@@std@@MAE?AV?$fpos@U_Mbstatet@@@2@V32@H@Z 00418780 f i enums.obj
 0001:000177b0       ?seekpos@?$basic_stringbuf@DU?$char_traits@D@std@@V?$allocator@D@2@@std@@MAE?AV?$fpos@U_Mbstatet@@@2@V32@H@Z 004187b0 f i enums.obj
 0001:000178a0       ?setbuf@?$basic_streambuf@DU?$char_traits@D@std@@@std@@MAEPAV12@PAD_J@Z 004188a0 f i enums.obj
 0001:000178b0       ?setstate@?$basic_ios@DU?$char_traits@D@std@@@std@@QAEXH_N@Z 004188b0 f i enums.obj
 0001:000178e0       ?showmanyc@?$basic_streambuf@DU?$char_traits@D@std@@@std@@MAE_JXZ 004188e0 f i enums.obj
 0001:000178f0       ?sync@?$basic_streambuf@DU?$char_traits@D@std@@@std@@MAEHXZ 004188f0 f i enums.obj
 0001:00017900       ?uflow@?$basic_streambuf@DU?$char_traits@D@std@@@std@@MAEHXZ 00418900 f i enums.obj
 0001:00017930       ?underflow@?$basic_streambuf@DU?$char_traits@D@std@@@std@@MAEHXZ 00418930 f i enums.obj
 0001:00017940       ?underflow@?$basic_stringbuf@DU?$char_traits@D@std@@V?$allocator@D@2@@std@@MAEHXZ 00418940 f i enums.obj
 0001:000179a0       ?what@exception@std@@UBEPBDXZ 004189a0 f i enums.obj
 0001:000179b0       ?xsgetn@?$basic_streambuf@DU?$char_traits@D@std@@@std@@MAE_JPAD_J@Z 004189b0 f i enums.obj
 0001:00017a80       ?xsputn@?$basic_streambuf@DU?$char_traits@D@std@@@std@@MAE_JPBD_J@Z 00418a80 f i enums.obj
 0001:00017b40       _sprintf_s                 00418b40 f i enums.obj
 0001:00017b70       ??$get_object_array_object@Upointf3@@Vpointf3j@@@json@@QBE_NV?$basic_string@DU?$char_traits@D@std@@V?$allocator@D@2@@std@@0PAUpointf3@@I@Z 00418b70 f i envj.obj
 0001:00017cb0       ??$get_object_object@Uhashj@@U1@@json@@QBE_NV?$basic_string@DU?$char_traits@D@std@@V?$allocator@D@2@@std@@0AAUhashj@@@Z 00418cb0 f i envj.obj
 0001:00017db0       ??$get_object_object@Upointf3@@Vpointf3j@@@json@@QBE_NV?$basic_string@DU?$char_traits@D@std@@V?$allocator@D@2@@std@@0AAUpointf3@@@Z 00418db0 f i envj.obj
 0001:00017eb0       ??$get_object_object@Vcalc@@Vcalcj@@@json@@QBE_NV?$basic_string@DU?$char_traits@D@std@@V?$allocator@D@2@@std@@0AAVcalc@@@Z 00418eb0 f i envj.obj
 0001:00017fc0       ??$insert_array_object@Upointf3@@Vpointf3j@@@json@@QAEXV?$basic_string@DU?$char_traits@D@std@@V?$allocator@D@2@@std@@0PBUpointf3@@I@Z 00418fc0 f i envj.obj
 0001:000181d0       ??$insert_object_object@Uhashj@@U1@@json@@QAEXV?$basic_string@DU?$char_traits@D@std@@V?$allocator@D@2@@std@@0ABUhashj@@@Z 004191d0 f i envj.obj
 0001:00018390       ??$insert_object_object@Upointf3@@Vpointf3j@@@json@@QAEXV?$basic_string@DU?$char_traits@D@std@@V?$allocator@D@2@@std@@0ABVpointf3j@@@Z 00419390 f i envj.obj
 0001:00018550       ??$insert_object_object@Vcalc@@Vcalcj@@@json@@QAEXV?$basic_string@DU?$char_traits@D@std@@V?$allocator@D@2@@std@@0ABVcalcj@@@Z 00419550 f i envj.obj
 0001:00018710       ??0calc@@QAE@XZ            00419710 f   envj.obj
 0001:00018730       ??0calcj@@QAE@ABVjson@@@Z  00419730 f   envj.obj
 0001:000193a0       ??0calcj@@QAE@XZ           0041a3a0 f   envj.obj
 0001:000193c0       ??0envj@@QAE@ABVjson@@@Z   0041a3c0 f   envj.obj
 0001:000197c0       ??4envj@@QAEAAV0@ABV0@@Z   0041a7c0 f   envj.obj
 0001:000198a0       ?buildtrackhash@envj@@QAEXXZ 0041a8a0 f   envj.obj
 0001:00019a00       ?buildtrackhashtree@envj@@QAEXXZ 0041aa00 f   envj.obj
 0001:00019b70       ?save@calcj@@QBE?AVjson@@XZ 0041ab70 f   envj.obj
 0001:0001a860       ?save@envj@@QBE?AVjson@@XZ 0041b860 f   envj.obj
 0001:0001aa90       ??$insert_object_object@Vnetdescj@@V1@@json@@QAEXV?$basic_string@DU?$char_traits@D@std@@V?$allocator@D@2@@std@@0ABVnetdescj@@@Z 0041ba90 f i gamedescj.obj
 0001:0001ac50       ??0gamedescj@@QAE@ABVjson@@@Z 0041bc50 f   gamedescj.obj
 0001:0001ae80       ?save@gamedescj@@QBE?AVjson@@XZ 0041be80 f   gamedescj.obj
 0001:0001b0b0       ??$_Buynode@ABVfs@@@?$_Tree_comp_alloc@V?$_Tset_traits@Vfs@@P6A_NABV1@0@ZV?$allocator@Vfs@@@std@@$0A@@std@@@std@@QAEPAU?$_Tree_node@Vfs@@PAX@1@ABVfs@@@Z 0041c0b0 f i gamerunj.obj
 0001:0001b0e0       ??$_Emplace_reallocate@ABVfs@@@?$vector@Vfs@@V?$allocator@Vfs@@@std@@@std@@QAEPAVfs@@QAV2@ABV2@@Z 0041c0e0 f i gamerunj.obj
 0001:0001b280       ??$_Insert_at@ABVfs@@U_Not_a_node_tag@std@@@?$_Tree@V?$_Tset_traits@Vfs@@P6A_NABV1@0@ZV?$allocator@Vfs@@@std@@$0A@@std@@@std@@IAE?AV?$_Tree_const_iterator@V?$_Tree_val@U?$_Tree_simple_types@Vfs@@@std@@@std@@@1@_NPAU?$_Tree_node@Vfs@@PAX@1@ABVfs@@U_Not_a_node_tag@1@@Z 0041c280 f i gamerunj.obj
 0001:0001b3e0       ??$_Insert_nohint@ABVfs@@U_Not_a_node_tag@std@@@?$_Tree@V?$_Tset_traits@Vfs@@P6A_NABV1@0@ZV?$allocator@Vfs@@@std@@$0A@@std@@@std@@IAE?AU?$pair@V?$_Tree_const_iterator@V?$_Tree_val@U?$_Tree_simple_types@Vfs@@@std@@@std@@@std@@_N@1@_NABVfs@@U_Not_a_node_tag@1@@Z 0041c3e0 f i gamerunj.obj
 0001:0001b550       ??0?$vector@Vfs@@V?$allocator@Vfs@@@std@@@std@@QAE@IABVfs@@ABV?$allocator@Vfs@@@1@@Z 0041c550 f i gamerunj.obj
 0001:0001b5d0       ??0placer@@QAE@H@Z         0041c5d0 f   gamerunj.obj
 0001:0001b680       ??1?$set@Vfs@@P6A_NABV1@0@ZV?$allocator@Vfs@@@std@@@std@@QAE@XZ 0041c680 f i gamerunj.obj
 0001:0001b6b0       ??E?$_Tree_const_iterator@V?$_Tree_val@U?$_Tree_simple_types@Vfs@@@std@@@std@@@std@@QAEAAV01@XZ 0041c6b0 f i gamerunj.obj
 0001:0001b710       ?_Buy@?$vector@Vfs@@V?$allocator@Vfs@@@std@@@std@@AAE_NI@Z 0041c710 f i gamerunj.obj
 0001:0001b770       ?_Buyheadnode@?$_Tree_comp_alloc@V?$_Tset_traits@Vfs@@P6A_NABV1@0@ZV?$allocator@Vfs@@@std@@$0A@@std@@@std@@QAEPAU?$_Tree_node@Vfs@@PAX@2@XZ 0041c770 f i gamerunj.obj
 0001:0001b790       ?_Buynode0@?$_Tree_comp_alloc@V?$_Tset_traits@Vfs@@P6A_NABV1@0@ZV?$allocator@Vfs@@@std@@$0A@@std@@@std@@QAEPAU?$_Tree_node@Vfs@@PAX@2@XZ 0041c790 f i gamerunj.obj
 0001:0001b7b0       ?_Extract@?$_Tree_val@U?$_Tree_simple_types@Vfs@@@std@@@std@@QAEPAU?$_Tree_node@Vfs@@PAX@2@V?$_Tree_const_iterator@V?$_Tree_val@U?$_Tree_simple_types@Vfs@@@std@@@std@@@2@@Z 0041c7b0 f i gamerunj.obj
 0001:0001ba20       ?_Lrotate@?$_Tree_val@U?$_Tree_simple_types@Vfs@@@std@@@std@@QAEXPAU?$_Tree_node@Vfs@@PAX@2@@Z 0041ca20 f i gamerunj.obj
 0001:0001ba80       ?_Rrotate@?$_Tree_val@U?$_Tree_simple_types@Vfs@@@std@@@std@@QAEXPAU?$_Tree_node@Vfs@@PAX@2@@Z 0041ca80 f i gamerunj.obj
 0001:0001bae0       ?_Xlength@?$vector@Vfs@@V?$allocator@Vfs@@@std@@@std@@CAXXZ 0041cae0 f i gamerunj.obj
 0001:0001baf0       ?allocate@?$allocator@Vfs@@@std@@QAEPAVfs@@I@Z 0041caf0 f i gamerunj.obj
 0001:0001bb60       ?clear@?$_Tree@V?$_Tset_traits@Vfs@@P6A_NABV1@0@ZV?$allocator@Vfs@@@std@@$0A@@std@@@std@@QAEXXZ 0041cb60 f i gamerunj.obj
 0001:0001bbe0       ?deallocate@?$allocator@Vfs@@@std@@QAEXQAVfs@@I@Z 0041cbe0 f i gamerunj.obj
 0001:0001bc20       ?erase@?$_Tree@V?$_Tset_traits@Vfs@@P6A_NABV1@0@ZV?$allocator@Vfs@@@std@@$0A@@std@@@std@@QAE?AV?$_Tree_const_iterator@V?$_Tree_val@U?$_Tree_simple_types@Vfs@@@std@@@std@@@2@V32@0@Z 0041cc20 f i gamerunj.obj
 0001:0001bc90       ?fcomp@fs@@SA_NABV1@0@Z    0041cc90 f   gamerunj.obj
 0001:0001bcc0       ?find@?$_Tree@V?$_Tset_traits@Vfs@@P6A_NABV1@0@ZV?$allocator@Vfs@@@std@@$0A@@std@@@std@@QAE?AV?$_Tree_const_iterator@V?$_Tree_val@U?$_Tree_simple_types@Vfs@@@std@@@std@@@2@ABVfs@@@Z 0041ccc0 f i gamerunj.obj
 0001:0001bd40       ?getplace@placer@@QAEHH@Z  0041cd40 f   gamerunj.obj
 0001:0001bdd0       ?gettime@placer@@QAEHH@Z   0041cdd0 f   gamerunj.obj
 0001:0001be70       ?hashadd@gamerunj@@QBEXABUhashi@@@Z 0041ce70 f   gamerunj.obj
 0001:0001bed0       ?log@gamerunj@@QBEXABV?$vector@Ukeys@@V?$allocator@Ukeys@@@std@@@std@@@Z 0041ced0 f   gamerunj.obj
 0001:0001c020       ?reset@placer@@QAEXXZ      0041d020 f   gamerunj.obj
 0001:0001c160       ?update@placer@@QAEXHHHH@Z 0041d160 f   gamerunj.obj
 0001:0001c320       ??$_Emplace_reallocate@ABUhashi@@@?$vector@Uhashi@@V?$allocator@Uhashi@@@std@@@std@@QAEPAUhashi@@QAU2@ABU2@@Z 0041d320 f i gamestatecheck.obj
 0001:0001c4b0       ??$_Range_construct_or_tidy@PAE@?$vector@EV?$allocator@E@std@@@std@@AAEXPAE0Uforward_iterator_tag@1@@Z 0041d4b0 f i gamestatecheck.obj
 0001:0001c550       ?_Xlength@?$vector@Uhashi@@V?$allocator@Uhashi@@@std@@@std@@CAXXZ 0041d550 f i gamestatecheck.obj
 0001:0001c560       ?readgamestate@gamestate@@QAEXIABV?$vector@EV?$allocator@E@std@@@std@@@Z 0041d560 f   gamestatecheck.obj
 0001:0001c7a0       ?writegamestate@gamestate@@QAEXABV?$vector@Ukeys@@V?$allocator@Ukeys@@@std@@@std@@@Z 0041d7a0 f   gamestatecheck.obj
 0001:0001c8b0       ??0hashi@@QAE@PAEH@Z       0041d8b0 f   hash.obj
 0001:0001c930       ??0hashi@@QAE@XZ           0041d930 f   hash.obj
 0001:0001c970       ??0hashj@@QAE@ABVjson@@@Z  0041d970 f   hash.obj
 0001:0001ca10       ??6?$basic_ostream@DU?$char_traits@D@std@@@std@@QAEAAV01@I@Z 0041da10 f i hash.obj
 0001:0001cca0       ??8hashi@@QAE_NABU0@@Z     0041dca0 f   hash.obj
 0001:0001ccd0       ??9hashi@@QAE_NABU0@@Z     0041dcd0 f   hash.obj
 0001:0001cd00       ?add@hashi@@QBEXPAEH@Z     0041dd00 f   hash.obj
 0001:0001cd50       ?dump@hashi@@QBE?AV?$basic_string@DU?$char_traits@D@std@@V?$allocator@D@2@@std@@XZ 0041dd50 f   hash.obj
 0001:0001ceb0       ?final@hashi@@QAEXXZ       0041deb0 f   hash.obj
 0001:0001cec0       ?hex@std@@YAAAVios_base@1@AAV21@@Z 0041dec0 f i hash.obj
 0001:0001cee0       ?save@hashj@@QBE?AVjson@@XZ 0041dee0 f   hash.obj
 0001:0001cf80       ?uppercase@std@@YAAAVios_base@1@AAV21@@Z 0041df80 f i hash.obj
 0001:0001cf90       ??$_Emplace_reallocate@ABQAVtree2@@@?$vector@PAVtree2@@V?$allocator@PAVtree2@@@std@@@std@@QAEPAPAVtree2@@QAPAV2@ABQAV2@@Z 0041df90 f i helper.obj
 0001:0001d0f0       ??0helper@@QAE@PAVtree2@@@Z 0041e0f0 f   helper.obj
 0001:0001d1b0       ??1?$vector@PAVtree2@@V?$allocator@PAVtree2@@@std@@@std@@QAE@XZ 0041e1b0 f i helper.obj
 0001:0001d210       ?_Xlength@?$vector@PAVtree2@@V?$allocator@PAVtree2@@@std@@@std@@CAXXZ 0041e210 f i helper.obj
 0001:0001d220       ?addhelper@helper@@QAEXABUpointf3@@@Z 0041e220 f   helper.obj
 0001:0001d290       ?dontdraw@helper@@CAXPAVtree2@@@Z 0041e290 f   helper.obj
 0001:0001d2a0       ?resethelper@helper@@QAEXXZ 0041e2a0 f   helper.obj
 0001:0001d2e0       ??$_Resize@V<lambda_4dc5461d69b675381ab5835c6839cbc5>@@@?$vector@Uface@@V?$allocator@Uface@@@std@@@std@@AAEXIV<lambda_4dc5461d69b675381ab5835c6839cbc5>@@@Z 0041e2e0 f i jrmcars.obj
 0001:0001d460       ??$_Resize@V<lambda_6ad02696023777bee21b4e536321c9aa>@@@?$vector@Upointf3@@V?$allocator@Upointf3@@@std@@@std@@AAEXIV<lambda_6ad02696023777bee21b4e536321c9aa>@@@Z 0041e460 f i jrmcars.obj
 0001:0001d5e0       ??$_Resize@V<lambda_a889b173e7d3e9778bd1b706d5c5dbaa>@@@?$vector@Uuv@@V?$allocator@Uuv@@@std@@@std@@AAEXIV<lambda_a889b173e7d3e9778bd1b706d5c5dbaa>@@@Z 0041e5e0 f i jrmcars.obj
 0001:0001d750       ??1?$vector@Uface@@V?$allocator@Uface@@@std@@@std@@QAE@XZ 0041e750 f i jrmcars.obj
 0001:0001d7b0       ??1?$vector@Upointf3@@V?$allocator@Upointf3@@@std@@@std@@QAE@XZ 0041e7b0 f i jrmcars.obj
 0001:0001d810       ??1?$vector@Uuv@@V?$allocator@Uuv@@@std@@@std@@QAE@XZ 0041e810 f i jrmcars.obj
 0001:0001d870       ?_Xlength@?$vector@Uface@@V?$allocator@Uface@@@std@@@std@@CAXXZ 0041e870 f i jrmcars.obj
 0001:0001d880       ?_Xlength@?$vector@Upointf3@@V?$allocator@Upointf3@@@std@@@std@@CAXXZ 0041e880 f i jrmcars.obj
 0001:0001d890       ?_Xlength@?$vector@Uuv@@V?$allocator@Uuv@@@std@@@std@@CAXXZ 0041e890 f i jrmcars.obj
 0001:0001dc60       ?deleterc@?$referencecount@Vtextureb@@@@QAEXPAVtextureb@@@Z 0041ec60 f i jrmcars.obj
 0001:0001dd10       ?loadnewjrms2@@YAPAVtree2@@PBDHH@Z 0041ed10 f   jrmcars.obj
 0001:0001f260       ??0?$vector@HV?$allocator@H@std@@@std@@QAE@IABV?$allocator@H@1@@Z 00420260 f i line2road.obj
 0001:0001f300       ?addbbox2collgrid@n_line2road@@YAXPBVtree2@@@Z 00420300 f   line2road.obj
 0001:0001f460       ?addcolltree@n_line2road@@YAXHPBVtree2@@PAPAUpointf3@@PBU3@22@Z 00420460 f   line2road.obj
 0001:0001f840       ?gettrackchecksum@n_line2road@@YAHXZ 00420840 f   line2road.obj
 0001:0001f850       ?initcolltree@n_line2road@@YAXXZ 00420850 f   line2road.obj
 0001:0001fab0       ?remcolltree@n_line2road@@YAXH@Z 00420ab0 f   line2road.obj
 0001:000200f0       ?st2_callsurffunc@n_line2road@@YAXXZ 004210f0 f   line2road.obj
 0001:00020150       ?st2_enablesurffunc@n_line2road@@YAXXZ 00421150 f   line2road.obj
 0001:00020160       ?st2_freecollgrids@n_line2road@@YAXXZ 00421160 f   line2road.obj
 0001:000201d0       ?st2_line2road@n_line2road@@YA_NPBUpointf3@@0PAU2@1@Z 004211d0 f   line2road.obj
 0001:00020660       ?st2_line2roadlo@n_line2road@@YA_NPBUpointf3@@0PAU2@1@Z 00421660 f   line2road.obj
 0001:00020870       ?st2_loadcollist@n_line2road@@YAXPBDPBVtree2@@@Z 00421870 f   line2road.obj
 0001:00020b50       ?st2_setupmatfuncs@n_line2road@@YAXPAUqmatfunc@1@H@Z 00421b50 f   line2road.obj
 0001:000212e0       ??0player@@QAE@XZ          004222e0 f i match_game1.obj
 0001:000212f0       ?freegamesockers@@YAXXZ    004222f0 f   match_game1.obj
 0001:00021440       ?match_game1draw2d@@YAXXZ  00422440 f   match_game1.obj
 0001:000214e0       ?match_game1exit@@YAXXZ    004224e0 f   match_game1.obj
 0001:000215d0       ?match_game1init@@YAXXZ    004225d0 f   match_game1.obj
 0001:00021750       ?match_game1proc@@YAXXZ    00422750 f   match_game1.obj
 0001:00021e70       ??$_Emplace_reallocate@ABQAVshape@res2d@@@?$vector@PAVshape@res2d@@V?$allocator@PAVshape@res2d@@@std@@@std@@QAEPAPAVshape@res2d@@QAPAV23@ABQAV23@@Z 00422e70 f i match_hiscores.obj
 0001:00021fd0       ??$_Traits_compare@U?$char_traits@D@std@@@std@@YAHQBDI0I@Z 00422fd0 f i match_hiscores.obj
 0001:00022060       ??1?$factory2@Vshape@res2d@@@@QAE@XZ 00423060 f i match_hiscores.obj
 0001:000220c0       ??_Gshape@res2d@@UAEPAXI@Z 004230c0 f i match_hiscores.obj
 0001:000220c0       ??_Eshape@res2d@@UAEPAXI@Z 004230c0 f i match_hiscores.obj
 0001:000220f0       ?_Erase@?$_Tree@V?$_Tmap_traits@V?$basic_string@DU?$char_traits@D@std@@V?$allocator@D@2@@std@@P6APAXAAVscript@@@ZU?$less@V?$basic_string@DU?$char_traits@D@std@@V?$allocator@D@2@@std@@@2@V?$allocator@U?$pair@$$CBV?$basic_string@DU?$char_traits@D@std@@V?$allocator@D@2@@std@@P6APAXAAVscript@@@Z@std@@@2@$0A@@std@@@std@@IAEXPAU?$_Tree_node@U?$pair@$$CBV?$basic_string@DU?$char_traits@D@std@@V?$allocator@D@2@@std@@P6APAXAAVscript@@@Z@std@@PAX@2@@Z 004230f0 f i match_hiscores.obj
 0001:00022180       ?_Xlength@?$vector@PAVshape@res2d@@V?$allocator@PAVshape@res2d@@@std@@@std@@CAXXZ 00423180 f i match_hiscores.obj
 0001:00022190       ?deactivate@shape@res2d@@UAEXXZ 00423190 f i match_hiscores.obj
 0001:000221a0       ?isinside@shape@res2d@@UAEHXZ 004231a0 f i match_hiscores.obj
 0001:000221b0       ?match_hiscoresdraw2d@@YAXXZ 004231b0 f   match_hiscores.obj
 0001:00022230       ?match_hiscoresexit@@YAXXZ 00423230 f   match_hiscores.obj
 0001:00022270       ?match_hiscoresinit@@YAXXZ 00423270 f   match_hiscores.obj
 0001:00022590       ?match_hiscoresproc@@YAXXZ 00423590 f   match_hiscores.obj
 0001:000225f0       ?newclass_from_handle@?$factory2@Vshape@res2d@@@@QAEPAVshape@res2d@@AAVscript@@@Z 004235f0 f i match_hiscores.obj
 0001:00022990       ??$find@Vlistbox@res2d@@@shape@res2d@@QAEPAVlistbox@1@PBD@Z 00423990 f i match_lobby.obj
 0001:00022a00       ?match_lobby_draw2d@@YAXXZ 00423a00 f   match_lobby.obj
 0001:00022a80       ?match_lobby_exit@@YAXXZ   00423a80 f   match_lobby.obj
 0001:00022af0       ?match_lobby_init@@YAXXZ   00423af0 f   match_lobby.obj
 0001:00022eb0       ?match_lobby_proc@@YAXXZ   00423eb0 f   match_lobby.obj
 0001:00023700       ??$_Emplace_reallocate@ABV?$basic_string@DU?$char_traits@D@std@@V?$allocator@D@2@@std@@@?$vector@V?$basic_string@DU?$char_traits@D@std@@V?$allocator@D@2@@std@@V?$allocator@V?$basic_string@DU?$char_traits@D@std@@V?$allocator@D@2@@std@@@2@@std@@QAEPAV?$basic_string@DU?$char_traits@D@std@@V?$allocator@D@2@@1@QAV21@ABV21@@Z 00424700 f i match_logon.obj
 0001:00023860       ?_Change_array@?$vector@V?$basic_string@DU?$char_traits@D@std@@V?$allocator@D@2@@std@@V?$allocator@V?$basic_string@DU?$char_traits@D@std@@V?$allocator@D@2@@std@@@2@@std@@AAEXQAV?$basic_string@DU?$char_traits@D@std@@V?$allocator@D@2@@2@II@Z 00424860 f i match_logon.obj
 0001:000238f0       ?_Destroy@?$vector@V?$basic_string@DU?$char_traits@D@std@@V?$allocator@D@2@@std@@V?$allocator@V?$basic_string@DU?$char_traits@D@std@@V?$allocator@D@2@@std@@@2@@std@@AAEXPAV?$basic_string@DU?$char_traits@D@std@@V?$allocator@D@2@@2@0@Z 004248f0 f i match_logon.obj
 0001:00023910       ?canbequick@@YA_NI@Z       00424910 f   match_logon.obj
 0001:00023930       ?deallocate@?$allocator@V?$basic_string@DU?$char_traits@D@std@@V?$allocator@D@2@@std@@@std@@QAEXQAV?$basic_string@DU?$char_traits@D@std@@V?$allocator@D@2@@2@I@Z 00424930 f i match_logon.obj
 0001:00023970       ?getgamehoststate@@YAHI@Z  00424970 f   match_logon.obj
 0001:00023990       ?getgameidx@@YAHPBD@Z      00424990 f   match_logon.obj
 0001:00023a00       ?getgamejoinstate@@YAHI@Z  00424a00 f   match_logon.obj
 0001:00023a20       ?getgamemasterport@@YAHI@Z 00424a20 f   match_logon.obj
 0001:00023a40       ?getgamename@@YAPBDI@Z     00424a40 f   match_logon.obj
 0001:00023a60       ?getngames@@YAIXZ          00424a60 f   match_logon.obj
 0001:00023a70       ?makecgisock@@YAPAUsocker@@PAPAU1@@Z 00424a70 f   match_logon.obj
 0001:00023b60       ?match_logon_draw3d@@YAXXZ 00424b60 f   match_logon.obj
 0001:00023e10       ?match_logon_exit@@YAXXZ   00424e10 f   match_logon.obj
 0001:00023f30       ?match_logon_init@@YAXXZ   00424f30 f   match_logon.obj
 0001:00024b20       ?match_logon_proc@@YAXXZ   00425b20 f   match_logon.obj
 0001:00025070       ?push_back@?$vector@V?$basic_string@DU?$char_traits@D@std@@V?$allocator@D@2@@std@@V?$allocator@V?$basic_string@DU?$char_traits@D@std@@V?$allocator@D@2@@std@@@2@@std@@QAEX$$QAV?$basic_string@DU?$char_traits@D@std@@V?$allocator@D@2@@2@@Z 00426070 f i match_logon.obj
 0001:000250d0       ?match_optionsdraw2d@@YAXXZ 004260d0 f   match_options.obj
 0001:00025150       ?match_optionsexit@@YAXXZ  00426150 f   match_options.obj
 0001:000251b0       ?match_optionsinit@@YAXXZ  004261b0 f   match_options.obj
 0001:00025350       ?match_optionsproc@@YAXXZ  00426350 f   match_options.obj
 0001:000253e0       ?match_pickgamedraw2d@@YAXXZ 004263e0 f   match_pickgame.obj
 0001:00025460       ?match_pickgameexit@@YAXXZ 00426460 f   match_pickgame.obj
 0001:000254c0       ?match_pickgameinit@@YAXXZ 004264c0 f   match_pickgame.obj
 0001:00025710       ?match_pickgameproc@@YAXXZ 00426710 f   match_pickgame.obj
 0001:000257d0       ?match_pickserverdraw3d@@YAXXZ 004267d0 f   match_pickserver.obj
 0001:00025960       ?match_pickserverexit@@YAXXZ 00426960 f   match_pickserver.obj
 0001:00025a90       ?match_pickserverinit@@YAXXZ 00426a90 f   match_pickserver.obj
 0001:000260b0       ?match_pickserverproc@@YAXXZ 004270b0 f   match_pickserver.obj
 0001:000262a0       ??$find@Vedit@res2d@@@shape@res2d@@QAEPAVedit@1@PBD@Z 004272a0 f i match_quickgame.obj
 0001:00026310       ?idx@script@@QAEAAV?$basic_string@DU?$char_traits@D@std@@V?$allocator@D@2@@std@@H@Z 00427310 f i match_quickgame.obj
 0001:00026360       ?match_quickgamedraw2d@@YAXXZ 00427360 f   match_quickgame.obj
 0001:000263e0       ?match_quickgameexit@@YAXXZ 004273e0 f   match_quickgame.obj
 0001:00026570       ?match_quickgameinit@@YAXXZ 00427570 f   match_quickgame.obj
 0001:00026df0       ?match_quickgameproc@@YAXXZ 00427df0 f   match_quickgame.obj
 0001:00027330       ??$?RAAV?$vector@V?$basic_string@DU?$char_traits@D@std@@V?$allocator@D@2@@std@@V?$allocator@V?$basic_string@DU?$char_traits@D@std@@V?$allocator@D@2@@std@@@2@@std@@AAV01@@?$less@X@std@@QBE_NAAV?$vector@V?$basic_string@DU?$char_traits@D@std@@V?$allocator@D@2@@std@@V?$allocator@V?$basic_string@DU?$char_traits@D@std@@V?$allocator@D@2@@std@@@2@@1@0@Z 00428330 f i match_register.obj
 0001:000273e0       ??$_Emplace_reallocate@ABV?$vector@V?$basic_string@DU?$char_traits@D@std@@V?$allocator@D@2@@std@@V?$allocator@V?$basic_string@DU?$char_traits@D@std@@V?$allocator@D@2@@std@@@2@@std@@@?$vector@V?$vector@V?$basic_string@DU?$char_traits@D@std@@V?$allocator@D@2@@std@@V?$allocator@V?$basic_string@DU?$char_traits@D@std@@V?$allocator@D@2@@std@@@2@@std@@V?$allocator@V?$vector@V?$basic_string@DU?$char_traits@D@std@@V?$allocator@D@2@@std@@V?$allocator@V?$basic_string@DU?$char_traits@D@std@@V?$allocator@D@2@@std@@@2@@std@@@2@@std@@QAEPAV?$vector@V?$basic_string@DU?$char_traits@D@std@@V?$allocator@D@2@@std@@V?$allocator@V?$basic_string@DU?$char_traits@D@std@@V?$allocator@D@2@@std@@@2@@1@QAV21@ABV21@@Z 004283e0 f i match_register.obj
 0001:000275f0       ??$_Insertion_sort_unchecked@PAV?$vector@V?$basic_string@DU?$char_traits@D@std@@V?$allocator@D@2@@std@@V?$allocator@V?$basic_string@DU?$char_traits@D@std@@V?$allocator@D@2@@std@@@2@@std@@U?$less@X@2@@std@@YAPAV?$vector@V?$basic_string@DU?$char_traits@D@std@@V?$allocator@D@2@@std@@V?$allocator@V?$basic_string@DU?$char_traits@D@std@@V?$allocator@D@2@@std@@@2@@0@PAV10@QAV10@U?$less@X@0@@Z 004285f0 f i match_register.obj
 0001:000278a0       ??$_Med3_unchecked@PAV?$vector@V?$basic_string@DU?$char_traits@D@std@@V?$allocator@D@2@@std@@V?$allocator@V?$basic_string@DU?$char_traits@D@std@@V?$allocator@D@2@@std@@@2@@std@@U?$less@X@2@@std@@YAXPAV?$vector@V?$basic_string@DU?$char_traits@D@std@@V?$allocator@D@2@@std@@V?$allocator@V?$basic_string@DU?$char_traits@D@std@@V?$allocator@D@2@@std@@@2@@0@00U?$less@X@0@@Z 004288a0 f i match_register.obj
 0001:00027950       ??$_Partition_by_median_guess_unchecked@PAV?$vector@V?$basic_string@DU?$char_traits@D@std@@V?$allocator@D@2@@std@@V?$allocator@V?$basic_string@DU?$char_traits@D@std@@V?$allocator@D@2@@std@@@2@@std@@U?$less@X@2@@std@@YA?AU?$pair@PAV?$vector@V?$basic_string@DU?$char_traits@D@std@@V?$allocator@D@2@@std@@V?$allocator@V?$basic_string@DU?$char_traits@D@std@@V?$allocator@D@2@@std@@@2@@std@@PAV12@@0@PAV?$vector@V?$basic_string@DU?$char_traits@D@std@@V?$allocator@D@2@@std@@V?$allocator@V?$basic_string@DU?$char_traits@D@std@@V?$allocator@D@2@@std@@@2@@0@0U?$less@X@0@@Z 00428950 f i match_register.obj
 0001:00028100       ??$_Pop_heap_hole_by_index@PAV?$vector@V?$basic_string@DU?$char_traits@D@std@@V?$allocator@D@2@@std@@V?$allocator@V?$basic_string@DU?$char_traits@D@std@@V?$allocator@D@2@@std@@@2@@std@@V12@U?$less@X@2@@std@@YAXPAV?$vector@V?$basic_string@DU?$char_traits@D@std@@V?$allocator@D@2@@std@@V?$allocator@V?$basic_string@DU?$char_traits@D@std@@V?$allocator@D@2@@std@@@2@@0@HH$$QAV10@U?$less@X@0@@Z 00429100 f i match_register.obj
 0001:00028290       ??$_Push_heap_by_index@PAV?$vector@V?$basic_string@DU?$char_traits@D@std@@V?$allocator@D@2@@std@@V?$allocator@V?$basic_string@DU?$char_traits@D@std@@V?$allocator@D@2@@std@@@2@@std@@V12@U?$less@X@2@@std@@YAXPAV?$vector@V?$basic_string@DU?$char_traits@D@std@@V?$allocator@D@2@@std@@V?$allocator@V?$basic_string@DU?$char_traits@D@std@@V?$allocator@D@2@@std@@@2@@0@HH$$QAV10@U?$less@X@0@@Z 00429290 f i match_register.obj
 0001:000283e0       ??$_Sort_unchecked@PAV?$vector@V?$basic_string@DU?$char_traits@D@std@@V?$allocator@D@2@@std@@V?$allocator@V?$basic_string@DU?$char_traits@D@std@@V?$allocator@D@2@@std@@@2@@std@@U?$less@X@2@@std@@YAXPAV?$vector@V?$basic_string@DU?$char_traits@D@std@@V?$allocator@D@2@@std@@V?$allocator@V?$basic_string@DU?$char_traits@D@std@@V?$allocator@D@2@@std@@@2@@0@0HU?$less@X@0@@Z 004293e0 f i match_register.obj
 0001:00028620       ??$_Uninitialized_move@PAV?$vector@V?$basic_string@DU?$char_traits@D@std@@V?$allocator@D@2@@std@@V?$allocator@V?$basic_string@DU?$char_traits@D@std@@V?$allocator@D@2@@std@@@2@@std@@PAV12@V?$allocator@V?$vector@V?$basic_string@DU?$char_traits@D@std@@V?$allocator@D@2@@std@@V?$allocator@V?$basic_string@DU?$char_traits@D@std@@V?$allocator@D@2@@std@@@2@@std@@@2@@std@@YAPAV?$vector@V?$basic_string@DU?$char_traits@D@std@@V?$allocator@D@2@@std@@V?$allocator@V?$basic_string@DU?$char_traits@D@std@@V?$allocator@D@2@@std@@@2@@0@QAV10@0PAV10@AAV?$allocator@V?$vector@V?$basic_string@DU?$char_traits@D@std@@V?$allocator@D@2@@std@@V?$allocator@V?$basic_string@DU?$char_traits@D@std@@V?$allocator@D@2@@std@@@2@@std@@@0@@Z 00429620 f i match_register.obj
 0001:00028690       ??0?$vector@V?$basic_string@DU?$char_traits@D@std@@V?$allocator@D@2@@std@@V?$allocator@V?$basic_string@DU?$char_traits@D@std@@V?$allocator@D@2@@std@@@2@@std@@QAE@ABV01@@Z 00429690 f i match_register.obj
 0001:00028780       ??1?$_Uninitialized_backout_al@PAV?$basic_string@DU?$char_traits@D@std@@V?$allocator@D@2@@std@@V?$allocator@V?$basic_string@DU?$char_traits@D@std@@V?$allocator@D@2@@std@@@2@@std@@QAE@XZ 00429780 f i match_register.obj
 0001:000287a0       ??1?$vector@V?$vector@V?$basic_string@DU?$char_traits@D@std@@V?$allocator@D@2@@std@@V?$allocator@V?$basic_string@DU?$char_traits@D@std@@V?$allocator@D@2@@std@@@2@@std@@V?$allocator@V?$vector@V?$basic_string@DU?$char_traits@D@std@@V?$allocator@D@2@@std@@V?$allocator@V?$basic_string@DU?$char_traits@D@std@@V?$allocator@D@2@@std@@@2@@std@@@2@@std@@QAE@XZ 004297a0 f i match_register.obj
 0001:00028820       ?_Destroy@?$vector@V?$vector@V?$basic_string@DU?$char_traits@D@std@@V?$allocator@D@2@@std@@V?$allocator@V?$basic_string@DU?$char_traits@D@std@@V?$allocator@D@2@@std@@@2@@std@@V?$allocator@V?$vector@V?$basic_string@DU?$char_traits@D@std@@V?$allocator@D@2@@std@@V?$allocator@V?$basic_string@DU?$char_traits@D@std@@V?$allocator@D@2@@std@@@2@@std@@@2@@std@@AAEXPAV?$vector@V?$basic_string@DU?$char_traits@D@std@@V?$allocator@D@2@@std@@V?$allocator@V?$basic_string@DU?$char_traits@D@std@@V?$allocator@D@2@@std@@@2@@2@0@Z 00429820 f i match_register.obj
 0001:00028850       ?_Xlength@?$vector@V?$vector@V?$basic_string@DU?$char_traits@D@std@@V?$allocator@D@2@@std@@V?$allocator@V?$basic_string@DU?$char_traits@D@std@@V?$allocator@D@2@@std@@@2@@std@@V?$allocator@V?$vector@V?$basic_string@DU?$char_traits@D@std@@V?$allocator@D@2@@std@@V?$allocator@V?$basic_string@DU?$char_traits@D@std@@V?$allocator@D@2@@std@@@2@@std@@@2@@std@@CAXXZ 00429850 f i match_register.obj
 0001:00028f80       ?deallocate@?$allocator@V?$vector@V?$basic_string@DU?$char_traits@D@std@@V?$allocator@D@2@@std@@V?$allocator@V?$basic_string@DU?$char_traits@D@std@@V?$allocator@D@2@@std@@@2@@std@@@std@@QAEXQAV?$vector@V?$basic_string@DU?$char_traits@D@std@@V?$allocator@D@2@@std@@V?$allocator@V?$basic_string@DU?$char_traits@D@std@@V?$allocator@D@2@@std@@@2@@2@I@Z 00429f80 f i match_register.obj
 0001:00028fd0       ?match_registerdraw3d@@YAXXZ 00429fd0 f   match_register.obj
 0001:00029250       ?match_registerexit@@YAXXZ 0042a250 f   match_register.obj
 0001:000292c0       ?match_registerinit@@YAXXZ 0042a2c0 f   match_register.obj
 0001:000299b0       ?match_registerproc@@YAXXZ 0042a9b0 f   match_register.obj
 0001:00029df0       ?match_results_draw2d@@YAXXZ 0042adf0 f   match_results.obj
 0001:00029e70       ?match_results_exit@@YAXXZ 0042ae70 f   match_results.obj
 0001:00029eb0       ?match_results_init@@YAXXZ 0042aeb0 f   match_results.obj
 0001:0002a1c0       ?match_results_proc@@YAXXZ 0042b1c0 f   match_results.obj
 0001:0002a220       ??$_Emplace_reallocate@ABUuserprofile@@@?$vector@Uuserprofile@@V?$allocator@Uuserprofile@@@std@@@std@@QAEPAUuserprofile@@QAU2@ABU2@@Z 0042b220 f i match_server.obj
 0001:0002a4b0       ??$_Emplace_reallocate@H@?$vector@HV?$allocator@H@std@@@std@@QAEPAHQAH$$QAH@Z 0042b4b0 f i match_server.obj
 0001:0002a5c0       ??$_Insertion_sort_unchecked@PAUuserprofile@@P6A_NABU1@0@Z@std@@YAPAUuserprofile@@PAU1@QAU1@P6A_NABU1@2@Z@Z 0042b5c0 f i match_server.obj
 0001:0002aa80       ??$_Med3_unchecked@PAUuserprofile@@P6A_NABU1@0@Z@std@@YAXPAUuserprofile@@00P6A_NABU1@1@Z@Z 0042ba80 f i match_server.obj
 0001:0002ab30       ??$_Partition_by_median_guess_unchecked@PAUuserprofile@@P6A_NABU1@0@Z@std@@YA?AU?$pair@PAUuserprofile@@PAU1@@0@PAUuserprofile@@0P6A_NABU2@1@Z@Z 0042bb30 f i match_server.obj
 0001:0002ae40       ??$_Pop_heap_hole_by_index@PAUuserprofile@@U1@P6A_NABU1@0@Z@std@@YAXPAUuserprofile@@HH$$QAU1@P6A_NABU1@2@Z@Z 0042be40 f i match_server.obj
 0001:0002b0f0       ??$_Sort_unchecked@PAUuserprofile@@P6A_NABU1@0@Z@std@@YAXPAUuserprofile@@0HP6A_NABU1@1@Z@Z 0042c0f0 f i match_server.obj
 0001:0002b3d0       ??0userprofile@@QAE@$$QAU0@@Z 0042c3d0 f i match_server.obj
 0001:0002b440       ??1userprofile@@QAE@XZ     0042c440 f i match_server.obj
 0001:0002b4d0       ??4userprofile@@QAEAAU0@$$QAU0@@Z 0042c4d0 f i match_server.obj
 0001:0002b540       ?_Destroy@?$vector@Uuserprofile@@V?$allocator@Uuserprofile@@@std@@@std@@AAEXPAUuserprofile@@0@Z 0042c540 f i match_server.obj
 0001:0002b570       ?_Xlength@?$vector@Uuserprofile@@V?$allocator@Uuserprofile@@@std@@@std@@CAXXZ 0042c570 f i match_server.obj
 0001:0002b580       ?deallocate@?$allocator@H@std@@QAEXQAHI@Z 0042c580 f i match_server.obj
 0001:0002b5c0       ?deallocate@?$allocator@Uuserprofile@@@std@@QAEXQAUuserprofile@@I@Z 0042c5c0 f i match_server.obj
 0001:0002b600       ?match_server_draw3d@@YAXXZ 0042c600 f   match_server.obj
 0001:0002b680       ?match_server_exit@@YAXXZ  0042c680 f   match_server.obj
 0001:0002b900       ?match_server_init@@YAXXZ  0042c900 f   match_server.obj
 0001:0002c6a0       ?match_server_proc@@YAXXZ  0042d6a0 f   match_server.obj
 0001:0002e380       ?match_titledraw3d@@YAXXZ  0042f380 f   match_title.obj
 0001:0002e440       ?match_titleexit@@YAXXZ    0042f440 f   match_title.obj
 0001:0002e490       ?match_titleinit@@YAXXZ    0042f490 f   match_title.obj
 0001:0002e5c0       ?match_titleproc@@YAXXZ    0042f5c0 f   match_title.obj
 0001:0002e650       ?MD5Final@@YAXQAEPAUMD5_CTX@@@Z 0042f650 f   md5.obj
 0001:0002e720       ?MD5Init@@YAXPAUMD5_CTX@@@Z 0042f720 f   md5.obj
 0001:0002ee50       ?MD5Update@@YAXPAUMD5_CTX@@PAEI@Z 0042fe50 f   md5.obj
 0001:0002ef20       ??0netdescj@@QAE@ABVjson@@@Z 0042ff20 f   netdescj.obj
 0001:0002f080       ?save@netdescj@@QBE?AVjson@@XZ 00430080 f   netdescj.obj
 0001:0002f210       ??$_Buynode@ABUmessage@@@?$_List_buy@Umessage@@V?$allocator@Umessage@@@std@@@std@@QAEPAU?$_List_node@Umessage@@PAX@1@PAU21@0ABUmessage@@@Z 00430210 f i netobj.obj
 0001:0002f290       ??$_Construct@V?$_Deque_const_iterator@V?$_Deque_val@U?$_Deque_simple_types@E@std@@@std@@@std@@@?$deque@EV?$allocator@E@std@@@std@@QAEXV?$_Deque_const_iterator@V?$_Deque_val@U?$_Deque_simple_types@E@std@@@std@@@1@0@Z 00430290 f i netobj.obj
 0001:0002f3a0       ??$_Insert_range@V?$_List_const_iterator@V?$_List_val@U?$_List_simple_types@Umessage@@@std@@@std@@@std@@@?$list@Umessage@@V?$allocator@Umessage@@@std@@@std@@QAEXV?$_List_unchecked_const_iterator@V?$_List_val@U?$_List_simple_types@Umessage@@@std@@@std@@U_Iterator_base0@2@@1@V?$_List_const_iterator@V?$_List_val@U?$_List_simple_types@Umessage@@@std@@@std@@@1@1Uforward_iterator_tag@1@@Z 004303a0 f i netobj.obj
 0001:0002f470       ??$_Resize@V<lambda_5a1a9a772ca875e6cbe5700b6bf6707c>@@@?$vector@V?$deque@EV?$allocator@E@std@@@std@@V?$allocator@V?$deque@EV?$allocator@E@std@@@std@@@2@@std@@AAEXIV<lambda_5a1a9a772ca875e6cbe5700b6bf6707c>@@@Z 00430470 f i netobj.obj
 0001:0002f770       ??$_Resize@V<lambda_77c53aedb3537c2c87ee6928de6070ac>@@@?$vector@Ucaroj@@V?$allocator@Ucaroj@@@std@@@std@@AAEXIV<lambda_77c53aedb3537c2c87ee6928de6070ac>@@@Z 00430770 f i netobj.obj
 0001:0002faf0       ??$_Resize@V<lambda_893948a86eab03968a4c76de76643f1e>@@@?$vector@V?$list@Umessage@@V?$allocator@Umessage@@@std@@@std@@V?$allocator@V?$list@Umessage@@V?$allocator@Umessage@@@std@@@std@@@2@@std@@AAEXIV<lambda_893948a86eab03968a4c76de76643f1e>@@@Z 00430af0 f i netobj.obj
 0001:0002fd20       ??$fill@PAPAVtree2@@PAV1@@std@@YAXPAPAVtree2@@0ABQAV1@@Z 00430d20 f i netobj.obj
 0001:0002fda0       ??0?$list@Umessage@@V?$allocator@Umessage@@@std@@@std@@QAE@ABV01@@Z 00430da0 f i netobj.obj
 0001:0002fe30       ??0?$vector@EV?$allocator@E@std@@@std@@QAE@ABV01@@Z 00430e30 f i netobj.obj
 0001:0002fea0       ??0?$vector@HV?$allocator@H@std@@@std@@QAE@ABV01@@Z 00430ea0 f i netobj.obj
 0001:0002ff60       ??0netobj@@QAE@PAVgamedescj@@@Z 00430f60 f   netobj.obj
 0001:000305b0       ??0twcaro@@QAE@XZ          004315b0 f i netobj.obj
 0001:000306c0       ??1?$_Deque_alloc@U?$_Deque_base_types@EV?$allocator@E@std@@@std@@@std@@QAE@XZ 004316c0 f i netobj.obj
 0001:000306e0       ??1?$_Deque_const_iterator@V?$_Deque_val@U?$_Deque_simple_types@E@std@@@std@@@std@@QAE@XZ 004316e0 f i netobj.obj
 0001:000306f0       ??1?$_List_buy@Umessage@@V?$allocator@Umessage@@@std@@@std@@QAE@XZ 004316f0 f i netobj.obj
 0001:00030700       ??1?$_Uninitialized_backout_al@PAV?$deque@EV?$allocator@E@std@@@std@@V?$allocator@V?$deque@EV?$allocator@E@std@@@std@@@2@@std@@QAE@XZ 00431700 f i netobj.obj
 0001:00030740       ??1?$_Uninitialized_backout_al@PAV?$list@Umessage@@V?$allocator@Umessage@@@std@@@std@@V?$allocator@V?$list@Umessage@@V?$allocator@Umessage@@@std@@@std@@@2@@std@@QAE@XZ 00431740 f i netobj.obj
 0001:00030770       ??1?$vector@Ucaroj@@V?$allocator@Ucaroj@@@std@@@std@@QAE@XZ 00431770 f i netobj.obj
 0001:00030800       ??1?$vector@V?$deque@EV?$allocator@E@std@@@std@@V?$allocator@V?$deque@EV?$allocator@E@std@@@std@@@2@@std@@QAE@XZ 00431800 f i netobj.obj
 0001:000308a0       ??1?$vector@V?$list@Umessage@@V?$allocator@Umessage@@@std@@@std@@V?$allocator@V?$list@Umessage@@V?$allocator@Umessage@@@std@@@std@@@2@@std@@QAE@XZ 004318a0 f i netobj.obj
 0001:00030920       ??1message@@QAE@XZ         00431920 f i netobj.obj
 0001:00030970       ??1netobj@@UAE@XZ          00431970 f i netobj.obj
 0001:00030af0       ??4?$vector@EV?$allocator@E@std@@@std@@QAEAAV01@ABV01@@Z 00431af0 f i netobj.obj
 0001:00030bf0       ??R<lambda_5a1a9a772ca875e6cbe5700b6bf6707c>@@QBEPAV?$deque@EV?$allocator@E@std@@@std@@PAV12@I@Z 00431bf0 f i netobj.obj
 0001:00030c80       ??R<lambda_77c53aedb3537c2c87ee6928de6070ac>@@QBEPAUcaroj@@PAU1@I@Z 00431c80 f i netobj.obj
 0001:00030d80       ??R<lambda_893948a86eab03968a4c76de76643f1e>@@QBEPAV?$list@Umessage@@V?$allocator@Umessage@@@std@@@std@@PAV12@I@Z 00431d80 f i netobj.obj
 0001:00030e00       ??_Fpointi2x@@QAEXXZ       00431e00 f i netobj.obj
 0001:00030e10       ??_Gnetobj@@UAEPAXI@Z      00431e10 f i netobj.obj
 0001:00030e10       ??_Enetobj@@UAEPAXI@Z      00431e10 f i netobj.obj
 0001:00030fb0       ?_Buy@?$vector@EV?$allocator@E@std@@@std@@AAE_NI@Z 00431fb0 f i netobj.obj
 0001:00031010       ?_Buynode0@?$_List_alloc@U?$_List_base_types@Umessage@@V?$allocator@Umessage@@@std@@@std@@@std@@QAEPAU?$_List_node@Umessage@@PAX@2@PAU32@0@Z 00432010 f i netobj.obj
 0001:00031040       ?_Destroy@?$vector@V?$deque@EV?$allocator@E@std@@@std@@V?$allocator@V?$deque@EV?$allocator@E@std@@@std@@@2@@std@@AAEXPAV?$deque@EV?$allocator@E@std@@@2@0@Z 00432040 f i netobj.obj
 0001:00031080       ?_Destroy@?$vector@V?$list@Umessage@@V?$allocator@Umessage@@@std@@@std@@V?$allocator@V?$list@Umessage@@V?$allocator@Umessage@@@std@@@std@@@2@@std@@AAEXPAV?$list@Umessage@@V?$allocator@Umessage@@@std@@@2@0@Z 00432080 f i netobj.obj
 0001:000310b0       ?_Freenode@?$_List_buy@Umessage@@V?$allocator@Umessage@@@std@@@std@@QAEXPAU?$_List_node@Umessage@@PAX@2@@Z 004320b0 f i netobj.obj
 0001:00031120       ?_Getal@?$_Vector_alloc@U?$_Vec_base_types@V?$deque@EV?$allocator@E@std@@@std@@V?$allocator@V?$deque@EV?$allocator@E@std@@@std@@@2@@std@@@std@@QAEAAV?$allocator@V?$deque@EV?$allocator@E@std@@@std@@@2@XZ 00432120 f i netobj.obj
 0001:00031130       ?_Getal@?$_Vector_alloc@U?$_Vec_base_types@V?$list@Umessage@@V?$allocator@Umessage@@@std@@@std@@V?$allocator@V?$list@Umessage@@V?$allocator@Umessage@@@std@@@std@@@2@@std@@@std@@QAEAAV?$allocator@V?$list@Umessage@@V?$allocator@Umessage@@@std@@@std@@@2@XZ 00432130 f i netobj.obj
 0001:00031140       ?_Growmap@?$deque@EV?$allocator@E@std@@@std@@IAEXI@Z 00432140 f i netobj.obj
 0001:000312e0       ?_Tidy@?$deque@EV?$allocator@E@std@@@std@@IAEXXZ 004322e0 f i netobj.obj
 0001:00031380       ?_Tidy@?$list@Umessage@@V?$allocator@Umessage@@@std@@@std@@QAEXXZ 00432380 f i netobj.obj
 0001:00031410       ?_Tidy@?$vector@HV?$allocator@H@std@@@std@@AAEXXZ 00432410 f i netobj.obj
 0001:00031470       ?_Unchecked_erase@?$list@Umessage@@V?$allocator@Umessage@@@std@@@std@@QAEXV?$_List_unchecked_const_iterator@V?$_List_val@U?$_List_simple_types@Umessage@@@std@@@std@@U_Iterator_base0@2@@2@@Z 00432470 f i netobj.obj
 0001:000314a0       ?_Xlen@?$deque@EV?$allocator@E@std@@@std@@IBEXXZ 004324a0 f i netobj.obj
 0001:000314b0       ?_Xlength@?$vector@Ucaroj@@V?$allocator@Ucaroj@@@std@@@std@@CAXXZ 004324b0 f i netobj.obj
 0001:000314c0       ?_Xlength@?$vector@V?$deque@EV?$allocator@E@std@@@std@@V?$allocator@V?$deque@EV?$allocator@E@std@@@std@@@2@@std@@CAXXZ 004324c0 f i netobj.obj
 0001:000314d0       ?_Xlength@?$vector@V?$list@Umessage@@V?$allocator@Umessage@@@std@@@std@@V?$allocator@V?$list@Umessage@@V?$allocator@Umessage@@@std@@@std@@@2@@std@@CAXXZ 004324d0 f i netobj.obj
 0001:000314e0       ?allocate@?$allocator@E@std@@QAEPAEI@Z 004324e0 f i netobj.obj
 0001:00031540       ?buildkeyques@netobj@@QAEXXZ 00432540 f   netobj.obj
 0001:00031570       ?canreadkey@netobj@@QAE_NIH@Z 00432570 f   netobj.obj
 0001:000315c0       ?clearearlykeydata@netobj@@QAEXH@Z 004325c0 f   netobj.obj
 0001:00031650       ?create@netobj@@SAPAV1@PAVgamedescj@@@Z 00432650 f   netobj.obj
 0001:00031730       ?deallocate@?$allocator@E@std@@QAEXQAEI@Z 00432730 f i netobj.obj
 0001:00031770       ?deallocate@?$allocator@U?$_List_node@Umessage@@PAX@std@@@std@@QAEXQAU?$_List_node@Umessage@@PAX@2@I@Z 00432770 f i netobj.obj
 0001:000317b0       ?deallocate@?$allocator@V?$deque@EV?$allocator@E@std@@@std@@@std@@QAEXQAV?$deque@EV?$allocator@E@std@@@2@I@Z 004327b0 f i netobj.obj
 0001:000317f0       ?deallocate@?$allocator@V?$list@Umessage@@V?$allocator@Umessage@@@std@@@std@@@std@@QAEXQAV?$list@Umessage@@V?$allocator@Umessage@@@std@@@2@I@Z 004327f0 f i netobj.obj
 0001:00031830       ?drawkeybuff3d@netobj@@QAEXXZ 00432830 f   netobj.obj
 0001:00031a10       ?drawkeybuff@netobj@@QAEXXZ 00432a10 f   netobj.obj
 0001:00031ae0       ?farthestvalidtime@netobj@@QAEHH@Z 00432ae0 f   netobj.obj
 0001:00031b80       ?getgamerunj@netobj@@QAEPAVgamerunj@@XZ 00432b80 f   netobj.obj
 0001:00031bf0       ?lastvalidkeytime@netobj@@QAEHI@Z 00432bf0 f   netobj.obj
 0001:00031c10       ?lastvalidtime@netobj@@QAEHXZ 00432c10 f   netobj.obj
 0001:00031c90       ?readgen@netobj@@QAE_NIAAW4PACK_KIND@@AAV?$vector@EV?$allocator@E@std@@@std@@@Z 00432c90 f   netobj.obj
 0001:00031d00       ?readkey@netobj@@QAE?AUkeys@@IH@Z 00432d00 f   netobj.obj
 0001:00031d70       ?readlastkey@netobj@@QAE?AUkeys@@I@Z 00432d70 f   netobj.obj
 0001:00031e20       ?writegen@netobj@@UAEXW4PACK_KIND@@ABV?$vector@EV?$allocator@E@std@@@std@@@Z 00432e20 f   netobj.obj
 0001:00031f00       ?writekey@netobj@@UAEXABUkeys@@@Z 00432f00 f   netobj.obj
 0001:00031fa0       ?writenone@netobj@@UAEXXZ  00432fa0 f i netobj.obj
 0001:00031fb0       ??0netbotgameobj@@QAE@PAVgamedescj@@@Z 00432fb0 f   netobjbot.obj
 0001:00031fe0       ??_Gnetbotgameobj@@UAEPAXI@Z 00432fe0 f i netobjbot.obj
 0001:00031fe0       ??_Enetbotgameobj@@UAEPAXI@Z 00432fe0 f i netobjbot.obj
 0001:00032010       ?_Tidy@?$vector@V?$deque@EV?$allocator@E@std@@@std@@V?$allocator@V?$deque@EV?$allocator@E@std@@@std@@@2@@std@@AAEXXZ 00433010 f i netobjbot.obj
 0001:00032130       ?getnumsockets@netbotgameobj@@UAEHXZ 00433130 f   netobjbot.obj
 0001:00032140       ?getwritebuffsize@netbotgameobj@@UAEHH@Z 00433140 f   netobjbot.obj
 0001:00032150       ?getwritebuffused@netbotgameobj@@UAEHH@Z 00433150 f   netobjbot.obj
 0001:00032160       ?proc@netbotgameobj@@UAE?AV?$basic_string@DU?$char_traits@D@std@@V?$allocator@D@2@@std@@XZ 00433160 f   netobjbot.obj
 0001:000321e0       ??$_Emplace_reallocate@ABUcaroj@@@?$vector@Ucaroj@@V?$allocator@Ucaroj@@@std@@@std@@QAEPAUcaroj@@QAU2@ABU2@@Z 004331e0 f i netobjclient.obj
 0001:00032340       ??$_Insert_string@DU?$char_traits@D@std@@I@std@@YAAAV?$basic_ostream@DU?$char_traits@D@std@@@0@AAV10@QBDI@Z 00433340 f i netobjclient.obj
 0001:00032590       ??$_Uninitialized_move@PAUcaroj@@PAU1@V?$allocator@Ucaroj@@@std@@@std@@YAPAUcaroj@@QAU1@0PAU1@AAV?$allocator@Ucaroj@@@0@@Z 00433590 f i netobjclient.obj
 0001:00032750       ??$construct@Ucaroj@@ABU1@@?$_Default_allocator_traits@V?$allocator@Ucaroj@@@std@@@std@@SAXAAV?$allocator@Ucaroj@@@1@QAUcaroj@@ABU3@@Z 00433750 f i netobjclient.obj
 0001:00032870       ??$get_object_array_object@Ucaroj@@U1@@json@@QBE_NV?$basic_string@DU?$char_traits@D@std@@V?$allocator@D@2@@std@@0AAV?$vector@Ucaroj@@V?$allocator@Ucaroj@@@std@@@2@@Z 00433870 f i netobjclient.obj
 0001:00032bd0       ??0caroj@@QAE@ABVavaj@@@Z  00433bd0 f i netobjclient.obj
 0001:00032cd0       ??0netclientobj@@QAE@PAVgamedescj@@@Z 00433cd0 f   netobjclient.obj
 0001:00032dd0       ??1caroj@@QAE@XZ           00433dd0 f i netobjclient.obj
 0001:00032de0       ??1hij@@QAE@XZ             00433de0 f i netobjclient.obj
 0001:00032df0       ??1netclientobj@@UAE@XZ    00433df0 f   netobjclient.obj
 0001:00032e70       ??1tracklist@@QAE@XZ       00433e70 f i netobjclient.obj
 0001:00032ed0       ??_Enetclientobj@@UAEPAXI@Z 00433ed0 f i netobjclient.obj
 0001:00032ed0       ??_Gnetclientobj@@UAEPAXI@Z 00433ed0 f i netobjclient.obj
 0001:00032f70       ?_Change_array@?$vector@Ucaroj@@V?$allocator@Ucaroj@@@std@@@std@@AAEXQAUcaroj@@II@Z 00433f70 f i netobjclient.obj
 0001:00033010       ?_Destroy@?$vector@Ucaroj@@V?$allocator@Ucaroj@@@std@@@std@@AAEXPAUcaroj@@0@Z 00434010 f i netobjclient.obj
 0001:00033040       ?_Tidy@?$vector@EV?$allocator@E@std@@@std@@AAEXXZ 00434040 f i netobjclient.obj
 0001:00033090       ?allocate@?$allocator@Ucaroj@@@std@@QAEPAUcaroj@@I@Z 00434090 f i netobjclient.obj
 0001:00033100       ?deallocate@?$allocator@Ucaroj@@@std@@QAEXQAUcaroj@@I@Z 00434100 f i netobjclient.obj
 0001:00033140       ?getnumsockets@netclientobj@@UAEHXZ 00434140 f   netobjclient.obj
 0001:00033150       ?getwritebuffsize@netclientobj@@UAEHH@Z 00434150 f   netobjclient.obj
 0001:00033160       ?getwritebuffused@netclientobj@@UAEHH@Z 00434160 f   netobjclient.obj
 0001:00033180       ?proc@netclientobj@@UAE?AV?$basic_string@DU?$char_traits@D@std@@V?$allocator@D@2@@std@@XZ 00434180 f   netobjclient.obj
 0001:000342a0       ?writegen@netclientobj@@UAEXW4PACK_KIND@@ABV?$vector@EV?$allocator@E@std@@@std@@@Z 004352a0 f   netobjclient.obj
 0001:000342e0       ?writekey@netclientobj@@UAEXABUkeys@@@Z 004352e0 f   netobjclient.obj
 0001:00034320       ?writenone@netclientobj@@UAEXXZ 00435320 f   netobjclient.obj
 0001:00034350       ??$_Emplace_reallocate@ABE@?$vector@EV?$allocator@E@std@@@std@@QAEPAEQAEABE@Z 00435350 f i netobjserver.obj
 0001:00034420       ??$_Emplace_reallocate@E@?$vector@EV?$allocator@E@std@@@std@@QAEPAEQAE$$QAE@Z 00435420 f i netobjserver.obj
 0001:000344f0       ??$_Insert_range@PAD@?$vector@EV?$allocator@E@std@@@std@@AAEXV?$_Vector_const_iterator@V?$_Vector_val@U?$_Simple_types@E@std@@@std@@@1@PAD1Uforward_iterator_tag@1@@Z 004354f0 f i netobjserver.obj
 0001:00034680       ??$_Insert_range@PBE@?$vector@EV?$allocator@E@std@@@std@@AAEXV?$_Vector_const_iterator@V?$_Vector_val@U?$_Simple_types@E@std@@@std@@@1@PBE1Uforward_iterator_tag@1@@Z 00435680 f i netobjserver.obj
 0001:00034810       ??$_Resize@V<lambda_fcb97b98c0e3b3a1a10adaa4d1a9f85a>@@@?$vector@Uclnt@@V?$allocator@Uclnt@@@std@@@std@@AAEXIV<lambda_fcb97b98c0e3b3a1a10adaa4d1a9f85a>@@@Z 00435810 f i netobjserver.obj
 0001:000349a0       ??$insert_array_object@Ucaroj@@U1@@json@@QAEXV?$basic_string@DU?$char_traits@D@std@@V?$allocator@D@2@@std@@0ABV?$vector@Ucaroj@@V?$allocator@Ucaroj@@@std@@@2@@Z 004359a0 f i netobjserver.obj
 0001:00034cf0       ??$use_facet@V?$num_put@DV?$ostreambuf_iterator@DU?$char_traits@D@std@@@std@@@std@@@std@@YAABV?$num_put@DV?$ostreambuf_iterator@DU?$char_traits@D@std@@@std@@@0@ABVlocale@0@@Z 00435cf0 f i netobjserver.obj
 0001:00034e40       ??0netserverobj@@QAE@PAVgamedescj@@@Z 00435e40 f   netobjserver.obj
 0001:00034f30       ??1?$vector@Uclnt@@V?$allocator@Uclnt@@@std@@@std@@QAE@XZ 00435f30 f i netobjserver.obj
 0001:00034f90       ??1netserverobj@@UAE@XZ    00435f90 f   netobjserver.obj
 0001:00035060       ??1welcomej@@QAE@XZ        00436060 f i netobjserver.obj
 0001:00035070       ??_Enetserverobj@@UAEPAXI@Z 00436070 f i netobjserver.obj
 0001:00035070       ??_Gnetserverobj@@UAEPAXI@Z 00436070 f i netobjserver.obj
 0001:00035170       ?_Change_array@?$vector@EV?$allocator@E@std@@@std@@AAEXQAEII@Z 00436170 f i netobjserver.obj
 0001:000351d0       ?_Xlength@?$vector@Uclnt@@V?$allocator@Uclnt@@@std@@@std@@CAXXZ 004361d0 f i netobjserver.obj
 0001:000351e0       ?getnumsockets@netserverobj@@UAEHXZ 004361e0 f   netobjserver.obj
 0001:000351f0       ?getwritebuffsize@netserverobj@@UAEHH@Z 004361f0 f   netobjserver.obj
 0001:00035210       ?getwritebuffused@netserverobj@@UAEHH@Z 00436210 f   netobjserver.obj
 0001:00035240       ?proc@netserverobj@@UAE?AV?$basic_string@DU?$char_traits@D@std@@V?$allocator@D@2@@std@@XZ 00436240 f   netobjserver.obj
 0001:00036820       ?writegen@netserverobj@@UAEXW4PACK_KIND@@ABV?$vector@EV?$allocator@E@std@@@std@@@Z 00437820 f   netobjserver.obj
 0001:00036920       ?writekey@netserverobj@@UAEXABUkeys@@@Z 00437920 f   netobjserver.obj
 0001:00036980       ??$_Emplace_reallocate@ABUsection@@@?$vector@Usection@@V?$allocator@Usection@@@std@@@std@@QAEPAUsection@@QAU2@ABU2@@Z 00437980 f i newconstructor.obj
 0001:00036a90       ??$_Resize@V<lambda_558e93fc29cdd5bef27241ba1ff8d118>@@@?$vector@Usection@@V?$allocator@Usection@@@std@@@std@@AAEXIV<lambda_558e93fc29cdd5bef27241ba1ff8d118>@@@Z 00437a90 f i newconstructor.obj
 0001:00036ba0       ??$range@H@@YAHABH00@Z     00437ba0 f i newconstructor.obj
 0001:00036bc0       ??1?$vector@Usection@@V?$allocator@Usection@@@std@@@std@@QAE@XZ 00437bc0 f i newconstructor.obj
 0001:00036c30       ??1facevert@@QAE@XZ        00437c30 f i newconstructor.obj
 0001:00036d70       ??1script@@QAE@XZ          00437d70 f i newconstructor.obj
 0001:00036dd0       ??_Gpolylist@@QAEPAXI@Z    00437dd0 f i newconstructor.obj
 0001:00036f00       ?_Change_array@?$vector@Usection@@V?$allocator@Usection@@@std@@@std@@AAEXQAUsection@@II@Z 00437f00 f i newconstructor.obj
 0001:00036f80       ?_Xlength@?$vector@Usection@@V?$allocator@Usection@@@std@@@std@@CAXXZ 00437f80 f i newconstructor.obj
 0001:00036f90       ?allocate@?$allocator@Usection@@@std@@QAEPAUsection@@I@Z 00437f90 f i newconstructor.obj
 0001:00037000       ?buildnewconsscene@@YAPAVtree2@@PBUnewtrack@@@Z 00438000 f   newconstructor.obj
 0001:00037880       ?freenewtrackscript@@YAXPAUnewtrack@@@Z 00438880 f   newconstructor.obj
 0001:000378b0       ?loadnewtrackscript@@YAPAUnewtrack@@PBD@Z 004388b0 f   newconstructor.obj
 0001:00038150       ?newconstructordraw2d@@YAXXZ 00439150 f   newconstructor.obj
 0001:000382a0       ?newconstructordraw3d@@YAXXZ 004392a0 f   newconstructor.obj
 0001:00038370       ?newconstructorexit@@YAXXZ 00439370 f   newconstructor.obj
 0001:00038470       ?newconstructorinit@@YAXXZ 00439470 f   newconstructor.obj
 0001:00038cc0       ?newconstructorproc@@YAXXZ 00439cc0 f   newconstructor.obj
 0001:00039590       ?readnewtrack@@YAPAUnewtrack@@PBEI@Z 0043a590 f   newconstructor.obj
 0001:00039610       ?savenewconstrack@@YA?AV?$basic_string@DU?$char_traits@D@std@@V?$allocator@D@2@@std@@PBDPBUnewtrack@@H@Z 0043a610 f   newconstructor.obj
 0001:00039d90       ?writenewtrack@@YAPAEPBUnewtrack@@PAI@Z 0043ad90 f   newconstructor.obj
 0001:00039df0       ??$_Resize@V<lambda_12dfaeae96405c9c4e8f5553d7661d39>@@@?$vector@Uedge@@V?$allocator@Uedge@@@std@@@std@@AAEXIV<lambda_12dfaeae96405c9c4e8f5553d7661d39>@@@Z 0043adf0 f i n_faceverts.obj
 0001:00039f60       ??0facevert@@QAE@XZ        0043af60 f i n_faceverts.obj
 0001:00039fc0       ?_Xlength@?$vector@Uedge@@V?$allocator@Uedge@@@std@@@std@@CAXXZ 0043afc0 f i n_faceverts.obj
 0001:00039fd0       ?buildbackgndsectionfv@@YAPAUfacevert@@PAUbackgndsectioninfo@@@Z 0043afd0 f   n_faceverts.obj
 0001:0003a210       ?buildtracksectionfv@@YAPAUfacevert@@PAUtracksectioninfo@@@Z 0043b210 f   n_faceverts.obj
 0001:0003a480       ?getbacky@@YAXPAUpointf3@@@Z 0043b480 f   n_faceverts.obj
 0001:0003a4d0       ??$_Emplace_reallocate@ABUface@@@?$vector@Uface@@V?$allocator@Uface@@@std@@@std@@QAEPAUface@@QAU2@ABU2@@Z 0043b4d0 f i n_marching.obj
 0001:0003a5f0       ??$_Emplace_reallocate@ABUpointf3@@@?$vector@Upointf3@@V?$allocator@Upointf3@@@std@@@std@@QAEPAUpointf3@@QAU2@ABU2@@Z 0043b5f0 f i n_marching.obj
 0001:0003a750       ??$_Emplace_reallocate@ABUuv@@@?$vector@Uuv@@V?$allocator@Uuv@@@std@@@std@@QAEPAUuv@@QAU2@ABU2@@Z 0043b750 f i n_marching.obj
 0001:0003a8c0       ??$buildpatch@Vspheref_surf@@@@YAXPAVmodelb@@HHMMVspheref_surf@@PBD2@Z 0043b8c0 f i n_marching.obj
 0001:0003ac70       ??0?$vector@Uface@@V?$allocator@Uface@@@std@@@std@@QAE@ABV01@@Z 0043bc70 f i n_marching.obj
 0001:0003acf0       ??_G?$vector@Upointf3@@V?$allocator@Upointf3@@@std@@@std@@QAEPAXI@Z 0043bcf0 f i n_marching.obj
 0001:0003b420       ?allocate@?$allocator@Uface@@@std@@QAEPAUface@@I@Z 0043c420 f i n_marching.obj
 0001:0003b990       ?march_test1@@YAPAVtree2@@XZ 0043c990 f   n_marching.obj
 0001:0003ba60       ?march_test2@@YAPAVtree2@@MH@Z 0043ca60 f   n_marching.obj
 0001:0003bba0       ?march_test@@YAPAVtree2@@MHABUpointf3@@0P6AMMMM@Z@Z 0043cba0 f   n_marching.obj
 0001:0003bef0       ?isosurface1@@YAMMMM@Z     0043cef0 f   n_marchingtest.obj
 0001:0003bf20       ?isosurface2@@YAMMMM@Z     0043cf20 f   n_marchingtest.obj
 0001:0003bf80       ?isosurface@@YAMMMM@Z      0043cf80 f   n_marchingtest.obj
 0001:0003c050       ?marchingcubestest_draw3d@@YAXXZ 0043d050 f   n_marchingtest.obj
 0001:0003c080       ?marchingcubestest_exit@@YAXXZ 0043d080 f   n_marchingtest.obj
 0001:0003c0f0       ?marchingcubestest_init@@YAXXZ 0043d0f0 f   n_marchingtest.obj
 0001:0003c260       ?marchingcubestest_proc@@YAXXZ 0043d260 f   n_marchingtest.obj
 0001:0003c580       ??$_Insert_range@PAUpointf3@@@?$vector@Upointf3@@V?$allocator@Upointf3@@@std@@@std@@AAEXV?$_Vector_const_iterator@V?$_Vector_val@U?$_Simple_types@Upointf3@@@std@@@std@@@1@PAUpointf3@@1Uforward_iterator_tag@1@@Z 0043d580 f i n_meshtest.obj
 0001:0003c740       ??$_Insert_range@PAUuv@@@?$vector@Uuv@@V?$allocator@Uuv@@@std@@@std@@AAEXV?$_Vector_const_iterator@V?$_Vector_val@U?$_Simple_types@Uuv@@@std@@@std@@@1@PAUuv@@1Uforward_iterator_tag@1@@Z 0043d740 f i n_meshtest.obj
 0001:0003c900       ??$_Insert_range@PBUpointf3@@@?$vector@Upointf3@@V?$allocator@Upointf3@@@std@@@std@@AAEXV?$_Vector_const_iterator@V?$_Vector_val@U?$_Simple_types@Upointf3@@@std@@@std@@@1@PBUpointf3@@1Uforward_iterator_tag@1@@Z 0043d900 f i n_meshtest.obj
 0001:0003cac0       ??$_Insert_range@PBUuv@@@?$vector@Uuv@@V?$allocator@Uuv@@@std@@@std@@AAEXV?$_Vector_const_iterator@V?$_Vector_val@U?$_Simple_types@Uuv@@@std@@@std@@@1@PBUuv@@1Uforward_iterator_tag@1@@Z 0043dac0 f i n_meshtest.obj
 0001:0003cc80       ??$range@M@@YAMABM00@Z     0043dc80 f i n_meshtest.obj
 0001:0003ccd0       ??0?$vector@Uface@@V?$allocator@Uface@@@std@@@std@@QAE@XZ 0043dcd0 f i n_meshtest.obj
 0001:0003ccf0       ??0?$vector@Upointf3@@V?$allocator@Upointf3@@@std@@@std@@QAE@XZ 0043dcf0 f i n_meshtest.obj
 0001:0003cd10       ??0?$vector@Uuv@@V?$allocator@Uuv@@@std@@@std@@QAE@IABV?$allocator@Uuv@@@1@@Z 0043dd10 f i n_meshtest.obj
 0001:0003cd90       ??0?$vector@Uuv@@V?$allocator@Uuv@@@std@@@std@@QAE@XZ 0043dd90 f i n_meshtest.obj
 0001:0003cdb0       ?_Change_array@?$vector@Upointf3@@V?$allocator@Upointf3@@@std@@@std@@AAEXQAUpointf3@@II@Z 0043ddb0 f i n_meshtest.obj
 0001:0003ce10       ?_Change_array@?$vector@Uuv@@V?$allocator@Uuv@@@std@@@std@@AAEXQAUuv@@II@Z 0043de10 f i n_meshtest.obj
 0001:0003ce70       ?allocate@?$allocator@Upointf3@@@std@@QAEPAUpointf3@@I@Z 0043de70 f i n_meshtest.obj
 0001:0003cee0       ?allocate@?$allocator@Uuv@@@std@@QAEPAUuv@@I@Z 0043dee0 f i n_meshtest.obj
 0001:0003cf50       ?buildfaces@@YAPAUface@@PBUpointf3@@HPAH@Z 0043df50 f   n_meshtest.obj
 0001:0003d290       ?buildmt@@YAPAVtree2@@PBD0PAUpointf3@@PAUuv@@H@Z 0043e290 f   n_meshtest.obj
 0001:0003d430       ?buildmts@@YAPAVtree2@@PBD0ABUpolylist@@0@Z 0043e430 f   n_meshtest.obj
 0001:0003ded0       ?meshtestdraw2d@@YAXXZ     0043eed0 f   n_meshtest.obj
 0001:0003dee0       ?meshtestdraw3d@@YAXXZ     0043eee0 f   n_meshtest.obj
 0001:0003dfa0       ?meshtestexit@@YAXXZ       0043efa0 f   n_meshtest.obj
 0001:0003e070       ?meshtestinit@@YAXXZ       0043f070 f   n_meshtest.obj
 0001:0003e240       ?meshtestproc@@YAXXZ       0043f240 f   n_meshtest.obj
 0001:0003e820       ??$_Assign_range@PAUpoly@@@?$vector@Upoly@@V?$allocator@Upoly@@@std@@@std@@AAEXPAUpoly@@0Uforward_iterator_tag@1@@Z 0043f820 f i n_polylist.obj
 0001:0003e990       ??$_Copy_unchecked@PAUpoly@@PAU1@@std@@YAPAUpoly@@PAU1@00@Z 0043f990 f i n_polylist.obj
 0001:0003e9e0       ??$_Resize@V<lambda_d59c6f660a77e94666973ade55898cdf>@@@?$vector@Upoly@@V?$allocator@Upoly@@@std@@@std@@AAEXIV<lambda_d59c6f660a77e94666973ade55898cdf>@@@Z 0043f9e0 f i n_polylist.obj
 0001:0003ebd0       ??$_Ucopy@PAUpoly@@@?$vector@Upoly@@V?$allocator@Upoly@@@std@@@std@@AAEPAUpoly@@PAU2@00@Z 0043fbd0 f i n_polylist.obj
 0001:0003ec60       ??0?$vector@Upointf3@@V?$allocator@Upointf3@@@std@@@std@@QAE@ABV01@@Z 0043fc60 f i n_polylist.obj
 0001:0003ece0       ??0?$vector@Uuv@@V?$allocator@Uuv@@@std@@@std@@QAE@ABV01@@Z 0043fce0 f i n_polylist.obj
 0001:0003ed60       ??1?$_Uninitialized_backout_al@PAUpoly@@V?$allocator@Upoly@@@std@@@std@@QAE@XZ 0043fd60 f i n_polylist.obj
 0001:0003ed90       ??1poly@@QAE@XZ            0043fd90 f i n_polylist.obj
 0001:0003ee30       ??4?$vector@Upointf3@@V?$allocator@Upointf3@@@std@@@std@@QAEAAV01@ABV01@@Z 0043fe30 f i n_polylist.obj
 0001:0003ef40       ??4?$vector@Uuv@@V?$allocator@Uuv@@@std@@@std@@QAEAAV01@ABV01@@Z 0043ff40 f i n_polylist.obj
 0001:0003f050       ??R<lambda_d59c6f660a77e94666973ade55898cdf>@@QBEPAUpoly@@PAU1@I@Z 00440050 f i n_polylist.obj
 0001:0003f0b0       ?_Buy@?$vector@Upointf3@@V?$allocator@Upointf3@@@std@@@std@@AAE_NI@Z 004400b0 f i n_polylist.obj
 0001:0003f110       ?_Buy@?$vector@Uuv@@V?$allocator@Uuv@@@std@@@std@@AAE_NI@Z 00440110 f i n_polylist.obj
 0001:0003f170       ?_Tidy@?$vector@Upoly@@V?$allocator@Upoly@@@std@@@std@@AAEXXZ 00440170 f i n_polylist.obj
 0001:0003f1e0       ?_Xlength@?$vector@Upoly@@V?$allocator@Upoly@@@std@@@std@@CAXXZ 004401e0 f i n_polylist.obj
 0001:0003f1f0       ?addlinearuvspolylist@@YAXPAUpolylist@@MMMM@Z 004401f0 f   n_polylist.obj
 0001:0003f280       ?allocate@?$allocator@Upoly@@@std@@QAEPAUpoly@@I@Z 00440280 f i n_polylist.obj
 0001:0003f2f0       ?backypolylist@@YAXPAUpolylist@@@Z 004402f0 f   n_polylist.obj
 0001:0003f330       ?boolab@@YAPAUpolylist@@PAU1@0W4boolop@@@Z 00440330 f   n_polylist.obj
 0001:0003f400       ?boolabintsectm1@@YAPAUpolylist@@PBU1@ABV?$vector@Upointf3@@V?$allocator@Upointf3@@@std@@@std@@ABV?$vector@Uedge@@V?$allocator@Uedge@@@std@@@3@@Z 00440400 f   n_polylist.obj
 0001:0003fbf0       ?boolabs@@YAXPBUpoly@@0PAUpolylist@@W4boolop@@@Z 00440bf0 f   n_polylist.obj
 0001:00040bf0       ?buildapolylist@@YAPAVtree2@@PAUpolylist@@PAD11@Z 00441bf0 f   n_polylist.obj
 0001:00040f70       ?convertfaceverts2polylist@@YAPAUpolylist@@PAUfacevert@@@Z 00441f70 f   n_polylist.obj
 0001:00041130       ?convertfaceverts2polylisto@@YAPAUpolylist@@PAUfacevert@@@Z 00442130 f   n_polylist.obj
 0001:000414c0       ?copypolylist@@YAPAUpolylist@@PAU1@@Z 004424c0 f   n_polylist.obj
 0001:00041520       ?deallocate@?$allocator@Upointf3@@@std@@QAEXQAUpointf3@@I@Z 00442520 f i n_polylist.obj
 0001:00041560       ?deallocate@?$allocator@Upoly@@@std@@QAEXQAUpoly@@I@Z 00442560 f i n_polylist.obj
 0001:000415a0       ?deallocate@?$allocator@Uuv@@@std@@QAEXQAUuv@@I@Z 004425a0 f i n_polylist.obj
 0001:000415e0       ?freepolylist@@YAXPAUpolylist@@@Z 004425e0 f   n_polylist.obj
 0001:000416f0       ?inside@@YAHPAUpoly@@PAUpointf3@@@Z 004426f0 f   n_polylist.obj
 0001:00041800       ?offsetpolylist@@YAXPAUpolylist@@PAUpointf3@@@Z 00442800 f   n_polylist.obj
 0001:00041850       ?rotpolylist@@YAXPAUpolylist@@M@Z 00442850 f   n_polylist.obj
 0001:00041940       ?setm1tobackgnd@@YAXPAUpolylist@@@Z 00442940 f   n_polylist.obj
 0001:00041b10       ?zeroypolylist@@YAXPAUpolylist@@@Z 00442b10 f   n_polylist.obj
 0001:00041b50       ?bbox2transscale@n_physics@@YAXABUpointf3@@0AAU2@1@Z 00442b50 f   physics.obj
 0001:00041bd0       ?calccollisioninfo@n_physics@@YAXPAUtwcaro@@PAVcalco@@@Z 00442bd0 f   physics.obj
 0001:000421b0       ?checkcar2car@n_physics@@YAXPAUcaroj@@0@Z 004431b0 f   physics.obj
 0001:00042410       ?doroadcollisions@n_physics@@YAXPAUcaroj@@PAVcalco@@ABUkeys@@@Z 00443410 f   physics.obj
 0001:00044070       ?getphysicsdir@@YAPBDXZ    00445070 f   physics.obj
 0001:00044090       ?physics_do@n_physics@@YAXABV?$vector@Ukeys@@V?$allocator@Ukeys@@@std@@@std@@@Z 00445090 f   physics.obj
 0001:00044790       ?physics_exit@n_physics@@YAXXZ 00445790 f   physics.obj
 0001:00044810       ?physics_init@n_physics@@YAXXZ 00445810 f   physics.obj
 0001:000448e0       ?resetcar2car@n_physics@@YAXXZ 004458e0 f   physics.obj
 0001:00044b70       ?updaterot@n_physics@@YAXPAUtwcaro@@ABUkeys@@@Z 00445b70 f   physics.obj
 0001:00044eb0       ?updatetrans@n_physics@@YAXPAUtwcaro@@@Z 00445eb0 f   physics.obj
 0001:00044f20       ?checkendgamerabbits@@YAXXZ 00445f20 f   rabbits.obj
 0001:00044ff0       ?dorabbits@@YAXI@Z         00445ff0 f   rabbits.obj
 0001:00045390       ?initrabbits@@YAXXZ        00446390 f   rabbits.obj
 0001:00045490       ?pointi22rot@@YAHABUpointi2@@@Z 00446490 f   rabbits.obj
 0001:000454f0       ?rot2pointi2@@YA?AUpointi2@@H@Z 004464f0 f   rabbits.obj
 0001:00045520       ?rotmod@@YAHHH@Z           00446520 f   rabbits.obj
 0001:00045530       ?drawrematch@@YAXXZ        00446530 f   rematch.obj
 0001:00045540       ?freerematch@@YAXXZ        00446540 f   rematch.obj
 0001:00045560       ?getrematchbuts@@YA?AW4rematch@@XZ 00446560 f   rematch.obj
 0001:00045570       ?isrematchon@@YA_NXZ       00446570 f   rematch.obj
 0001:00045580       ?loadrematch@@YAXXZ        00446580 f   rematch.obj
 0001:000456f0       ?procrematch@@YAXXZ        004466f0 f   rematch.obj
 0001:000457b0       ?rematchoff@@YAXXZ         004467b0 f   rematch.obj
 0001:000457e0       ?rematchon@@YAXXZ          004467e0 f   rematch.obj
 0001:00045810       ?setrematchbuts@@YAXW4rematch@@@Z 00446810 f   rematch.obj
 0001:00045820       ?drawsptscrline@@YAXHH@Z   00446820 f   scrline.obj
 0001:00045c70       ?exitscrline@@YAXXZ        00446c70 f   scrline.obj
 0001:00045cb0       ?getmsh@@YA?AV?$basic_string@DU?$char_traits@D@std@@V?$allocator@D@2@@std@@H@Z 00446cb0 f   scrline.obj
 0001:00045d90       ?getplacestr@@YA?AV?$basic_string@DU?$char_traits@D@std@@V?$allocator@D@2@@std@@H@Z 00446d90 f   scrline.obj
 0001:00045ee0       ?getsh@@YA?AV?$basic_string@DU?$char_traits@D@std@@V?$allocator@D@2@@std@@H@Z 00446ee0 f   scrline.obj
 0001:00045f90       ?initscrline@@YAXXZ        00446f90 f   scrline.obj
 0001:00046040       ?procscrline@@YAXXZ        00447040 f   scrline.obj
 0001:00046050       ??$_Emplace_reallocate@ABQAUwavehandle@@@?$vector@PAUwavehandle@@V?$allocator@PAUwavehandle@@@std@@@std@@QAEPAPAUwavehandle@@QAPAU2@ABQAU2@@Z 00447050 f i soundemit.obj
 0001:00046130       ??$_Emplace_reallocate@PAVsoundemit@@@?$vector@PAVsoundemit@@V?$allocator@PAVsoundemit@@@std@@@std@@QAEPAPAVsoundemit@@QAPAV2@$$QAPAV2@@Z 00447130 f i soundemit.obj
 0001:00046290       ??0soundemit@@QAE@AAVsoundemitman@@W4motor@@@Z 00447290 f   soundemit.obj
 0001:00046320       ??0soundemitman@@QAE@XZ    00447320 f   soundemit.obj
 0001:00046470       ??1?$vector@PAUwavehandle@@V?$allocator@PAUwavehandle@@@std@@@std@@QAE@XZ 00447470 f i soundemit.obj
 0001:000464d0       ??1?$vector@PAVsoundemit@@V?$allocator@PAVsoundemit@@@std@@@std@@QAE@XZ 004474d0 f i soundemit.obj
 0001:00046530       ??1soundemit@@QAE@XZ       00447530 f   soundemit.obj
 0001:000465b0       ??1soundemitman@@QAE@XZ    004475b0 f   soundemit.obj
 0001:000467d0       ?_Change_array@?$vector@PAUwavehandle@@V?$allocator@PAUwavehandle@@@std@@@std@@AAEXQAPAUwavehandle@@II@Z 004477d0 f i soundemit.obj
 0001:00046830       ?_Xlength@?$vector@PAUwavehandle@@V?$allocator@PAUwavehandle@@@std@@@std@@CAXXZ 00447830 f i soundemit.obj
 0001:00046840       ?_Xlength@?$vector@PAVsoundemit@@V?$allocator@PAVsoundemit@@@std@@@std@@CAXXZ 00447840 f i soundemit.obj
 0001:00046850       ?allocate@?$allocator@PAUwavehandle@@@std@@QAEPAPAUwavehandle@@I@Z 00447850 f i soundemit.obj
 0001:000468c0       ?getnumwaves@soundemitman@@QAEHXZ 004478c0 f   soundemit.obj
 0001:000468d0       ?getwaveidx@soundemitman@@AAEPAUwavehandle@@W4motor@@@Z 004478d0 f   soundemit.obj
 0001:000468e0       ?update@soundemit@@QAEXABUpointf3@@0MM@Z 004478e0 f   soundemit.obj
 0001:00046910       ?update@soundemitman@@QAEXABUpointf3@@00M@Z 00447910 f   soundemit.obj
 0001:00046a50       ??0soundfx@@QAE@XZ         00447a50 f   soundfx.obj
 0001:00046bc0       ??1soundfx@@QAE@XZ         00447bc0 f   soundfx.obj
 0001:00046cd0       ?dodoppler@@YAMABUpointf3@@000M@Z 00447cd0 f   soundfx.obj
 0001:00046d80       ?getvolpan@@YA_NPBUpointf3@@00PAM1@Z 00447d80 f   soundfx.obj
 0001:00046ee0       ?playsnd@soundfx@@QAEXPBUpointf3@@W4fxe@@@Z 00447ee0 f   soundfx.obj
 0001:00047070       ?setears@soundfx@@QAEXABUpointf3@@0@Z 00448070 f   soundfx.obj
 0001:00047090       ?doforks@@YAXPAUtrk@@@Z    00448090 f   studyforks.obj
 0001:00047180       ?mm1@@YAHH@Z               00448180 f   studyforks.obj
 0001:000471a0       ?nextsfdist@@YAXPAUtrk@@@Z 004481a0 f   studyforks.obj
 0001:00047380       ?painttrackx@@YA_NPAUtrk@@H@Z 00448380 f   studyforks.obj
 0001:000475d0       ?resetvisitors@@YAXPAUtrk@@@Z 004485d0 f   studyforks.obj
 0001:00047640       ?studyforks@trk@@QAEXXZ    00448640 f   studyforks.obj
 0001:00047aa0       ??6?$basic_ostream@DU?$char_traits@D@std@@@std@@QAEAAV01@M@Z 00448aa0 f i timewarp.obj
 0001:00047c50       ?hashadd@pointf3xh@@QBEXABUhashi@@@Z 00448c50 f   timewarp.obj
 0001:00047c70       ?hashadd@twcaro@@QBEXABUhashi@@@Z 00448c70 f   timewarp.obj
 0001:00047dc0       ?hashadd@twgg@@QBEXABUhashi@@@Z 00448dc0 f   timewarp.obj
 0001:00047e10       ?log@pointf3xh@@QBE?AV?$basic_string@DU?$char_traits@D@std@@V?$allocator@D@2@@std@@XZ 00448e10 f   timewarp.obj
 0001:00047f10       ?log@twcaro@@QBEXXZ        00448f10 f   timewarp.obj
 0001:00048230       ?logh@pointf3xh@@QBE?AV?$basic_string@DU?$char_traits@D@std@@V?$allocator@D@2@@std@@XZ 00449230 f   timewarp.obj
 0001:00048330       ?str@?$basic_stringstream@DU?$char_traits@D@std@@V?$allocator@D@2@@std@@QBE?AV?$basic_string@DU?$char_traits@D@std@@V?$allocator@D@2@@2@XZ 00449330 f i timewarp.obj
 0001:000483e0       ?timewarp@@YAXH@Z          004493e0 f   timewarp.obj
 0001:00048650       ?twrestore0@@YAXXZ         00449650 f   timewarp.obj
 0001:000486f0       ?twsave@@YAXXZ             004496f0 f   timewarp.obj
 0001:000487d0       ??0tracklist@@QAE@XZ       004497d0 f   tracklist.obj
 0001:00048c40       ??1?$vector@Uhashi@@V?$allocator@Uhashi@@@std@@@std@@QAE@XZ 00449c40 f i tracklist.obj
 0001:00048ca0       ??1scriptdir@@QAE@XZ       00449ca0 f i tracklist.obj
 0001:00048d00       ?hastrackhash@tracklist@@QBE?AV?$basic_string@DU?$char_traits@D@std@@V?$allocator@D@2@@std@@ABUhashi@@@Z 00449d00 f   tracklist.obj
 0001:00048e10       ?uniquetrackname@tracklist@@QBE?AV?$basic_string@DU?$char_traits@D@std@@V?$allocator@D@2@@std@@V23@@Z 00449e10 f   tracklist.obj
 0001:000490c0       ?curpiece@trk@@QBEXPBUpointf3@@PAU2@PAUpointi2@@PAH3@Z 0044a0c0 f   trk_line2road.obj
 0001:00049210       ?curpiece@trk@@QBEXPBUpointi2@@PAH1@Z 0044a210 f   trk_line2road.obj
 0001:00049270       ?line2road@trk@@QBE_NPAUpointf3@@0@Z 0044a270 f   trk_line2road.obj
 0001:0004a4b0       ?line2roadvert@trk@@QBEXPAUpointf3@@@Z 0044b4b0 f   trk_line2road.obj
 0001:0004aa50       ?maindraw2d@@YAXXZ         0044ba50 f   u_states.obj
 0001:0004aa60       ?maindraw3d@@YAXXZ         0044ba60 f   u_states.obj
 0001:0004aa70       ?mainexit@@YAXXZ           0044ba70 f   u_states.obj
 0001:0004aaa0       ?mainhasdraw2d@@YA_NXZ     0044baa0 f   u_states.obj
 0001:0004aab0       ?mainhasdraw3d@@YA_NXZ     0044bab0 f   u_states.obj
 0001:0004aac0       ?maininit@@YAXXZ           0044bac0 f   u_states.obj
 0001:0004aaf0       ?mainproc@@YA_NXZ          0044baf0 f   u_states.obj
 0001:0004ab00       ??$fill@PAEH@std@@YAXPAE0ABH@Z 0044bb00 f i lightupboard.obj
 0001:0004ab90       ??0gameboard@@QAE@V?$basic_string@DU?$char_traits@D@std@@V?$allocator@D@2@@std@@HHHHHHH@Z 0044bb90 f   lightupboard.obj
 0001:0004ac60       ??0lightupboard@@QAE@V?$basic_string@DU?$char_traits@D@std@@V?$allocator@D@2@@std@@HHHHHH@Z 0044bc60 f   lightupboard.obj
 0001:0004ad50       ??0patternboard@@QAE@V?$basic_string@DU?$char_traits@D@std@@V?$allocator@D@2@@std@@HHHHHH@Z 0044bd50 f   lightupboard.obj
 0001:0004ae30       ??1gameboard@@UAE@XZ       0044be30 f   lightupboard.obj
 0001:0004ae50       ??1lightupboard@@UAE@XZ    0044be50 f   lightupboard.obj
 0001:0004aeb0       ??_Egameboard@@UAEPAXI@Z   0044beb0 f i lightupboard.obj
 0001:0004aeb0       ??_Ggameboard@@UAEPAXI@Z   0044beb0 f i lightupboard.obj
 0001:0004aef0       ??_Elightupboard@@UAEPAXI@Z 0044bef0 f i lightupboard.obj
 0001:0004aef0       ??_Glightupboard@@UAEPAXI@Z 0044bef0 f i lightupboard.obj
 0001:0004af20       ??_Epatternboard@@UAEPAXI@Z 0044bf20 f i lightupboard.obj
 0001:0004af20       ??_Gpatternboard@@UAEPAXI@Z 0044bf20 f i lightupboard.obj
 0001:0004af50       ?click@gameboard@@QAEXHHH@Z 0044bf50 f   lightupboard.obj
 0001:0004aff0       ?draw@lightupboard@@QAEXXZ 0044bff0 f   lightupboard.obj
 0001:0004b110       ?getcell@lightupboard@@QAEEHH@Z 0044c110 f   lightupboard.obj
 0001:0004b130       ?getcoord@lightupboard@@IAE_NHHAAH0@Z 0044c130 f   lightupboard.obj
 0001:0004b1b0       ?getoverraw@patternboard@@QAEXAAH0@Z 0044c1b0 f   lightupboard.obj
 0001:0004b1d0       ?reset@lightupboard@@QAEXXZ 0044c1d0 f   lightupboard.obj
 0001:0004b200       ?setovermouse@patternboard@@QAEXHHH@Z 0044c200 f   lightupboard.obj
 0001:0004b250       ?setoverraw@patternboard@@QAEXHH@Z 0044c250 f   lightupboard.obj
 0001:0004b280       ?update@gameboard@@AAEXHHH@Z 0044c280 f   lightupboard.obj
 0001:0004b300       ?update@patternboard@@AAEXXZ 0044c300 f   lightupboard.obj
 0001:0004b320       ?getpattern@@YAXHHHHHHQAE@Z 0044c320 f   lightuppatterns.obj
 0001:0004b400       ??$_Destroy_range@V?$allocator@V?$vector@IV?$allocator@I@std@@@std@@@std@@@std@@YAXPAV?$vector@IV?$allocator@I@std@@@0@0AAV?$allocator@V?$vector@IV?$allocator@I@std@@@std@@@0@@Z 0044c400 f i u_groups.obj
 0001:0004b470       ??$_Emplace_reallocate@ABI@?$vector@IV?$allocator@I@std@@@std@@QAEPAIQAIABI@Z 0044c470 f i u_groups.obj
 0001:0004b550       ??$_Emplace_reallocate@ABV?$vector@IV?$allocator@I@std@@@std@@@?$vector@V?$vector@IV?$allocator@I@std@@@std@@V?$allocator@V?$vector@IV?$allocator@I@std@@@std@@@2@@std@@QAEPAV?$vector@IV?$allocator@I@std@@@1@QAV21@ABV21@@Z 0044c550 f i u_groups.obj
 0001:0004b750       ??$_Emplace_reallocate@ABVgroup@u_groups@@@?$vector@Vgroup@u_groups@@V?$allocator@Vgroup@u_groups@@@std@@@std@@QAEPAVgroup@u_groups@@QAV23@ABV23@@Z 0044c750 f i u_groups.obj
 0001:0004b920       ??$_Emplace_reallocate@ABVperm@u_groups@@@?$vector@Vperm@u_groups@@V?$allocator@Vperm@u_groups@@@std@@@std@@QAEPAVperm@u_groups@@QAV23@ABV23@@Z 0044c920 f i u_groups.obj
 0001:0004bb20       ??$_Fill_unchecked@PAII@std@@YAXPAI0ABI@Z 0044cb20 f i u_groups.obj
 0001:0004bba0       ??$_Insertion_sort_unchecked@PAVgroup@u_groups@@U?$less@X@std@@@std@@YAPAVgroup@u_groups@@PAV12@QAV12@U?$less@X@0@@Z 0044cba0 f i u_groups.obj
 0001:0004bdb0       ??$_Insertion_sort_unchecked@PAVperm@u_groups@@U?$less@X@std@@@std@@YAPAVperm@u_groups@@PAV12@QAV12@U?$less@X@0@@Z 0044cdb0 f i u_groups.obj
 0001:0004c260       ??$_Med3_unchecked@PAVgroup@u_groups@@U?$less@X@std@@@std@@YAXPAVgroup@u_groups@@00U?$less@X@0@@Z 0044d260 f i u_groups.obj
 0001:0004c320       ??$_Med3_unchecked@PAVperm@u_groups@@U?$less@X@std@@@std@@YAXPAVperm@u_groups@@00U?$less@X@0@@Z 0044d320 f i u_groups.obj
 0001:0004c490       ??$_Move_backward_unchecked1@PAVperm@u_groups@@PAV12@@std@@YAPAVperm@u_groups@@PAV12@00U_General_ptr_iterator_tag@0@@Z 0044d490 f i u_groups.obj
 0001:0004c660       ??$_Partition_by_median_guess_unchecked@PAVgroup@u_groups@@U?$less@X@std@@@std@@YA?AU?$pair@PAVgroup@u_groups@@PAV12@@0@PAVgroup@u_groups@@0U?$less@X@0@@Z 0044d660 f i u_groups.obj
 0001:0004cc60       ??$_Partition_by_median_guess_unchecked@PAVperm@u_groups@@U?$less@X@std@@@std@@YA?AU?$pair@PAVperm@u_groups@@PAV12@@0@PAVperm@u_groups@@0U?$less@X@0@@Z 0044dc60 f i u_groups.obj
 0001:0004d0b0       ??$_Pop_heap_hole_by_index@PAVgroup@u_groups@@V12@U?$less@X@std@@@std@@YAXPAVgroup@u_groups@@HH$$QAV12@U?$less@X@0@@Z 0044e0b0 f i u_groups.obj
 0001:0004d2c0       ??$_Pop_heap_hole_by_index@PAVperm@u_groups@@V12@U?$less@X@std@@@std@@YAXPAVperm@u_groups@@HH$$QAV12@U?$less@X@0@@Z 0044e2c0 f i u_groups.obj
 0001:0004d520       ??$_Push_heap_by_index@PAVperm@u_groups@@V12@U?$less@X@std@@@std@@YAXPAVperm@u_groups@@HH$$QAV12@U?$less@X@0@@Z 0044e520 f i u_groups.obj
 0001:0004d6a0       ??$_Resize@V<lambda_ac46504d121956be4d19caa267422eef>@@@?$vector@IV?$allocator@I@std@@@std@@AAEXIV<lambda_ac46504d121956be4d19caa267422eef>@@@Z 0044e6a0 f i u_groups.obj
 0001:0004d790       ??$_Sort_unchecked@PAVgroup@u_groups@@U?$less@X@std@@@std@@YAXPAVgroup@u_groups@@0HU?$less@X@0@@Z 0044e790 f i u_groups.obj
 0001:0004d980       ??$_Sort_unchecked@PAVperm@u_groups@@U?$less@X@std@@@std@@YAXPAVperm@u_groups@@0HU?$less@X@0@@Z 0044e980 f i u_groups.obj
 0001:0004dbf0       ??$_Uninitialized_move@PAV?$vector@IV?$allocator@I@std@@@std@@PAV12@V?$allocator@V?$vector@IV?$allocator@I@std@@@std@@@2@@std@@YAPAV?$vector@IV?$allocator@I@std@@@0@QAV10@0PAV10@AAV?$allocator@V?$vector@IV?$allocator@I@std@@@std@@@0@@Z 0044ebf0 f i u_groups.obj
 0001:0004dc70       ??$_Uninitialized_move@PAVgroup@u_groups@@PAV12@V?$allocator@Vgroup@u_groups@@@std@@@std@@YAPAVgroup@u_groups@@QAV12@0PAV12@AAV?$allocator@Vgroup@u_groups@@@0@@Z 0044ec70 f i u_groups.obj
 0001:0004dcf0       ??$iter_swap@PAVgroup@u_groups@@PAV12@@std@@YAXPAVgroup@u_groups@@0@Z 0044ecf0 f i u_groups.obj
 0001:0004ddb0       ??0?$vector@IV?$allocator@I@std@@@std@@QAE@ABV01@@Z 0044edb0 f i u_groups.obj
 0001:0004de30       ??0?$vector@Vperm@u_groups@@V?$allocator@Vperm@u_groups@@@std@@@std@@QAE@ABV01@@Z 0044ee30 f i u_groups.obj
 0001:0004df30       ??0cosets@u_groups@@QAE@ABVgroup@1@0@Z 0044ef30 f i u_groups.obj
 0001:0004e940       ??0group@u_groups@@QAE@$$QAV01@@Z 0044f940 f i u_groups.obj
 0001:0004e990       ??0perm@u_groups@@QAA@IZZ  0044f990 f i u_groups.obj
 0001:0004ed90       ??0perm@u_groups@@QAE@$$QAV01@@Z 0044fd90 f i u_groups.obj
 0001:0004ee30       ??1?$_Uninitialized_backout_al@PAVperm@u_groups@@V?$allocator@Vperm@u_groups@@@std@@@std@@QAE@XZ 0044fe30 f i u_groups.obj
 0001:0004ee60       ??1?$vector@IV?$allocator@I@std@@@std@@QAE@XZ 0044fe60 f i u_groups.obj
 0001:0004eec0       ??1?$vector@V?$vector@IV?$allocator@I@std@@@std@@V?$allocator@V?$vector@IV?$allocator@I@std@@@std@@@2@@std@@QAE@XZ 0044fec0 f i u_groups.obj
 0001:0004ef40       ??1?$vector@Vgroup@u_groups@@V?$allocator@Vgroup@u_groups@@@std@@@std@@QAE@XZ 0044ff40 f i u_groups.obj
 0001:0004efb0       ??1?$vector@_NV?$allocator@_N@std@@@std@@QAE@XZ 0044ffb0 f i u_groups.obj
 0001:0004f010       ??1cosets@u_groups@@QAE@XZ 00450010 f i u_groups.obj
 0001:0004f030       ??1group@u_groups@@QAE@XZ  00450030 f i u_groups.obj
 0001:0004f040       ??1perm@u_groups@@QAE@XZ   00450040 f i u_groups.obj
 0001:0004f0e0       ??4group@u_groups@@QAEAAV01@$$QAV01@@Z 004500e0 f i u_groups.obj
 0001:0004f130       ??4perm@u_groups@@QAEAAV01@$$QAV01@@Z 00450130 f i u_groups.obj
 0001:0004f230       ??8perm@u_groups@@QBE_NABV01@@Z 00450230 f i u_groups.obj
 0001:0004f2d0       ??Dperm@u_groups@@QBE?AV01@ABV01@@Z 004502d0 f i u_groups.obj
 0001:0004f340       ??H?$_Vb_iterator@U?$_Wrap_alloc@V?$allocator@I@std@@@std@@@std@@QBE?AV01@H@Z 00450340 f i u_groups.obj
 0001:0004f3a0       ??Y?$_Vb_iterator@U?$_Wrap_alloc@V?$allocator@I@std@@@std@@@std@@QAEAAV01@H@Z 004503a0 f i u_groups.obj
 0001:0004f400       ?_Buy@?$vector@IV?$allocator@I@std@@@std@@AAE_NI@Z 00450400 f i u_groups.obj
 0001:0004f460       ?_Change_array@?$vector@IV?$allocator@I@std@@@std@@AAEXQAIII@Z 00450460 f i u_groups.obj
 0001:0004f4c0       ?_Destroy@?$vector@V?$vector@IV?$allocator@I@std@@@std@@V?$allocator@V?$vector@IV?$allocator@I@std@@@std@@@2@@std@@AAEXPAV?$vector@IV?$allocator@I@std@@@2@0@Z 004504c0 f i u_groups.obj
 0001:0004f4e0       ?_Destroy@?$vector@Vgroup@u_groups@@V?$allocator@Vgroup@u_groups@@@std@@@std@@AAEXPAVgroup@u_groups@@0@Z 004504e0 f i u_groups.obj
 0001:0004f510       ?_Destroy@?$vector@Vperm@u_groups@@V?$allocator@Vperm@u_groups@@@std@@@std@@AAEXPAVperm@u_groups@@0@Z 00450510 f i u_groups.obj
 0001:0004f540       ?_Insert_n@?$vector@_NV?$allocator@_N@std@@@std@@QAE?AV?$_Vb_iterator@U?$_Wrap_alloc@V?$allocator@I@std@@@std@@@2@V?$_Vb_const_iterator@U?$_Wrap_alloc@V?$allocator@I@std@@@std@@@2@IAB_N@Z 00450540 f i u_groups.obj
 0001:0004f6f0       ?_Tidy@?$vector@IV?$allocator@I@std@@@std@@AAEXXZ 004506f0 f i u_groups.obj
 0001:0004f750       ?_Tidy@?$vector@Vperm@u_groups@@V?$allocator@Vperm@u_groups@@@std@@@std@@AAEXXZ 00450750 f i u_groups.obj
 0001:0004f7c0       ?_Xlen@?$vector@_NV?$allocator@_N@std@@@std@@QBEXXZ 004507c0 f i u_groups.obj
 0001:0004f7d0       ?_Xlength@?$vector@IV?$allocator@I@std@@@std@@CAXXZ 004507d0 f i u_groups.obj
 0001:0004f7e0       ?_Xlength@?$vector@V?$vector@IV?$allocator@I@std@@@std@@V?$allocator@V?$vector@IV?$allocator@I@std@@@std@@@2@@std@@CAXXZ 004507e0 f i u_groups.obj
 0001:0004f7f0       ?_Xlength@?$vector@Vgroup@u_groups@@V?$allocator@Vgroup@u_groups@@@std@@@std@@CAXXZ 004507f0 f i u_groups.obj
 0001:0004f800       ?_Xlength@?$vector@Vperm@u_groups@@V?$allocator@Vperm@u_groups@@@std@@@std@@CAXXZ 00450800 f i u_groups.obj
 0001:0004f810       ?add@group@u_groups@@QAEXABVperm@2@@Z 00450810 f i u_groups.obj
 0001:0004f9b0       ?allocate@?$allocator@I@std@@QAEPAII@Z 004509b0 f i u_groups.obj
 0001:0004fa20       ?allocate@?$allocator@Vperm@u_groups@@@std@@QAEPAVperm@u_groups@@I@Z 00450a20 f i u_groups.obj
 0001:0004fa90       ?calc@group@u_groups@@QAEXXZ 00450a90 f i u_groups.obj
 0001:000500b0       ?commutator@group@u_groups@@QBE?AV12@XZ 004510b0 f i u_groups.obj
 0001:000504a0       ?deallocate@?$allocator@I@std@@QAEXQAII@Z 004514a0 f i u_groups.obj
 0001:000504e0       ?deallocate@?$allocator@V?$vector@IV?$allocator@I@std@@@std@@@std@@QAEXQAV?$vector@IV?$allocator@I@std@@@2@I@Z 004514e0 f i u_groups.obj
 0001:00050520       ?deallocate@?$allocator@Vgroup@u_groups@@@std@@QAEXQAVgroup@u_groups@@I@Z 00451520 f i u_groups.obj
 0001:00050560       ?deallocate@?$allocator@Vperm@u_groups@@@std@@QAEXQAVperm@u_groups@@I@Z 00451560 f i u_groups.obj
 0001:000505a0       ?end@?$vector@_NV?$allocator@_N@std@@@std@@QAE?AV?$_Vb_iterator@U?$_Wrap_alloc@V?$allocator@I@std@@@std@@@2@XZ 004515a0 f i u_groups.obj
 0001:000505f0       ?erase@?$vector@_NV?$allocator@_N@std@@@std@@QAE?AV?$_Vb_iterator@U?$_Wrap_alloc@V?$allocator@I@std@@@std@@@2@V?$_Vb_const_iterator@U?$_Wrap_alloc@V?$allocator@I@std@@@std@@@2@0@Z 004515f0 f i u_groups.obj
 0001:000507a0       ?fact@u_groups@@YAII@Z     004517a0 f   u_groups.obj
 0001:000507d0       ?gen@group@u_groups@@QAEXI@Z 004517d0 f i u_groups.obj
 0001:000508d0       ?print@cosets@u_groups@@QBEXXZ 004518d0 f i u_groups.obj
 0001:00050b00       ?print@group@u_groups@@QBEXXZ 00451b00 f i u_groups.obj
 0001:00050b50       ?print@perm@u_groups@@QBEXH@Z 00451b50 f i u_groups.obj
 0001:00050cc0       ?testgroups@@YAXXZ         00451cc0 f   u_groups.obj
 0001:000510e0       ??$buildpatch2t@V?$strand_bot_surf@P6A?AUpointf3@@M@Z@@@@YAXPAVmodelb@@HHMMV?$strand_bot_surf@P6A?AUpointf3@@M@Z@@PBD22@Z 004520e0 f i u_s_braid.obj
 0001:00051560       ??$buildpatch2t@V?$strand_bot_surf@Vbraid_strand@braid@@@@@@YAXPAVmodelb@@HHMMV?$strand_bot_surf@Vbraid_strand@braid@@@@PBD22@Z 00452560 f i u_s_braid.obj
 0001:00051810       ??$buildpatch2t@V?$strand_bot_surf@Vsincircle_strand@braid@@@@@@YAXPAVmodelb@@HHMMV?$strand_bot_surf@Vsincircle_strand@braid@@@@PBD22@Z 00452810 f i u_s_braid.obj
 0001:00051ac0       ??$buildpatch2t@V?$strand_bot_surf@Vsinxyf_strand@braid@@@@@@YAXPAVmodelb@@HHMMV?$strand_bot_surf@Vsinxyf_strand@braid@@@@PBD22@Z 00452ac0 f i u_s_braid.obj
 0001:00051f90       ??$buildpatch2t@V?$strand_mid_surf@P6A?AUpointf3@@M@Z@@@@YAXPAVmodelb@@HHMMV?$strand_mid_surf@P6A?AUpointf3@@M@Z@@PBD22@Z 00452f90 f i u_s_braid.obj
 0001:000523e0       ??$buildpatch2t@V?$strand_mid_surf@Vbraid_strand@braid@@@@@@YAXPAVmodelb@@HHMMV?$strand_mid_surf@Vbraid_strand@braid@@@@PBD22@Z 004533e0 f i u_s_braid.obj
 0001:00052940       ??$buildpatch2t@V?$strand_mid_surf@Vsincircle_strand@braid@@@@@@YAXPAVmodelb@@HHMMV?$strand_mid_surf@Vsincircle_strand@braid@@@@PBD22@Z 00453940 f i u_s_braid.obj
 0001:00052eb0       ??$buildpatch2t@V?$strand_mid_surf@Vsinxyf_strand@braid@@@@@@YAXPAVmodelb@@HHMMV?$strand_mid_surf@Vsinxyf_strand@braid@@@@PBD22@Z 00453eb0 f i u_s_braid.obj
 0001:00053350       ??$buildpatch2t@V?$strand_top_surf@P6A?AUpointf3@@M@Z@@@@YAXPAVmodelb@@HHMMV?$strand_top_surf@P6A?AUpointf3@@M@Z@@PBD22@Z 00454350 f i u_s_braid.obj
 0001:000537c0       ??$buildpatch2t@V?$strand_top_surf@Vbraid_strand@braid@@@@@@YAXPAVmodelb@@HHMMV?$strand_top_surf@Vbraid_strand@braid@@@@PBD22@Z 004547c0 f i u_s_braid.obj
 0001:00053d20       ??$buildpatch2t@V?$strand_top_surf@Vsincircle_strand@braid@@@@@@YAXPAVmodelb@@HHMMV?$strand_top_surf@Vsincircle_strand@braid@@@@PBD22@Z 00454d20 f i u_s_braid.obj
 0001:000542a0       ??$buildpatch2t@V?$strand_top_surf@Vsinxyf_strand@braid@@@@@@YAXPAVmodelb@@HHMMV?$strand_top_surf@Vsinxyf_strand@braid@@@@PBD22@Z 004552a0 f i u_s_braid.obj
 0001:00054740       ??$buildpatch@Vcylinderxz_bot_surf@@@@YAXPAVmodelb@@HHMMVcylinderxz_bot_surf@@PBD2@Z 00455740 f i u_s_braid.obj
 0001:00054a80       ??$buildpatch@Vcylinderxz_mid_surf@@@@YAXPAVmodelb@@HHMMVcylinderxz_mid_surf@@PBD2@Z 00455a80 f i u_s_braid.obj
 0001:00054dc0       ??$buildpatch@Vcylinderxz_top_surf@@@@YAXPAVmodelb@@HHMMVcylinderxz_top_surf@@PBD2@Z 00455dc0 f i u_s_braid.obj
 0001:000550f0       ??$buildpatch@Vtorusxzf_surf@@@@YAXPAVmodelb@@HHMMVtorusxzf_surf@@PBD2@Z 004560f0 f i u_s_braid.obj
 0001:000554a0       ??$buildstrand@P6A?AUpointf3@@M@Z@@YAPAVtree2@@ABQ6A?AUpointf3@@M@ZHHHMPBD@Z 004564a0 f i u_s_braid.obj
 0001:00055710       ??$buildstrand@Vbraid_strand@braid@@@@YAPAVtree2@@ABVbraid_strand@braid@@HHHMPBD@Z 00456710 f i u_s_braid.obj
 0001:000559e0       ??$buildstrand@Vsincircle_strand@braid@@@@YAPAVtree2@@ABVsincircle_strand@braid@@HHHMPBD@Z 004569e0 f i u_s_braid.obj
 0001:00055c80       ??$buildstrand@Vsinxyf_strand@braid@@@@YAPAVtree2@@ABVsinxyf_strand@braid@@HHHMPBD@Z 00456c80 f i u_s_braid.obj
 0001:00055f40       ??R?$strand_bot_surf@P6A?AUpointf3@@M@Z@@QAEXMMPAUpointf3@@0@Z 00456f40 f i u_s_braid.obj
 0001:000560f0       ??R?$strand_bot_surf@Vbraid_strand@braid@@@@QAEXMMPAUpointf3@@0@Z 004570f0 f i u_s_braid.obj
 0001:000563e0       ??R?$strand_bot_surf@Vsincircle_strand@braid@@@@QAEXMMPAUpointf3@@0@Z 004573e0 f i u_s_braid.obj
 0001:000566f0       ??R?$strand_bot_surf@Vsinxyf_strand@braid@@@@QAEXMMPAUpointf3@@0@Z 004576f0 f i u_s_braid.obj
 0001:000568f0       ?braiddraw3d@@YAXXZ        004578f0 f   u_s_braid.obj
 0001:00056920       ?braidexit@@YAXXZ          00457920 f   u_s_braid.obj
 0001:00056970       ?braidinit@@YAXXZ          00457970 f   u_s_braid.obj
 0001:000573d0       ?braidproc@@YAXXZ          004583d0 f   u_s_braid.obj
 0001:00057560       ?buildbraid@braid@@YAPAVtree2@@XZ 00458560 f   u_s_braid.obj
 0001:00057720       ?sinxy_strand@braid@@YA?AUpointf3@@M@Z 00458720 f   u_s_braid.obj
 0001:00057780       ??Y?$basic_string@DU?$char_traits@D@std@@V?$allocator@D@2@@std@@QAEAAV01@QBD@Z 00458780 f i u_s_browser.obj
 0001:000577b0       ?browserdraw2d@@YAXXZ      004587b0 f   u_s_browser.obj
 0001:000577f0       ?browserexit@@YAXXZ        004587f0 f   u_s_browser.obj
 0001:00057840       ?browserinit@@YAXXZ        00458840 f   u_s_browser.obj
 0001:00057c90       ?browserproc@@YAXXZ        00458c90 f   u_s_browser.obj
 0001:00058490       ??$_Destroy_range@V?$allocator@V?$vector@Vzee2@@V?$allocator@Vzee2@@@std@@@std@@@std@@@std@@YAXPAV?$vector@Vzee2@@V?$allocator@Vzee2@@@std@@@0@0AAV?$allocator@V?$vector@Vzee2@@V?$allocator@Vzee2@@@std@@@std@@@0@@Z 00459490 f i u_s_lightup.obj
 0001:00058500       ??0?$vector@V?$vector@Vzee2@@V?$allocator@Vzee2@@@std@@@std@@V?$allocator@V?$vector@Vzee2@@V?$allocator@Vzee2@@@std@@@std@@@2@@std@@QAE@ABV01@@Z 00459500 f i u_s_lightup.obj
 0001:00058630       ??0?$vector@Vzee2@@V?$allocator@Vzee2@@@std@@@std@@QAE@ABV01@@Z 00459630 f i u_s_lightup.obj
 0001:000586f0       ??1?$_Uninitialized_backout_al@PAV?$vector@Vzee2@@V?$allocator@Vzee2@@@std@@@std@@V?$allocator@V?$vector@Vzee2@@V?$allocator@Vzee2@@@std@@@std@@@2@@std@@QAE@XZ 004596f0 f i u_s_lightup.obj
 0001:00058710       ??1?$vector@V?$vector@Vzee2@@V?$allocator@Vzee2@@@std@@@std@@V?$allocator@V?$vector@Vzee2@@V?$allocator@Vzee2@@@std@@@std@@@2@@std@@QAE@XZ 00459710 f i u_s_lightup.obj
 0001:00058720       ??1augmatz@@QAE@XZ         00459720 f i u_s_lightup.obj
 0001:000587d0       ?_Tidy@?$vector@V?$vector@Vzee2@@V?$allocator@Vzee2@@@std@@@std@@V?$allocator@V?$vector@Vzee2@@V?$allocator@Vzee2@@@std@@@std@@@2@@std@@AAEXXZ 004597d0 f i u_s_lightup.obj
 0001:00058850       ?_Xlength@?$vector@V?$vector@Vzee2@@V?$allocator@Vzee2@@@std@@@std@@V?$allocator@V?$vector@Vzee2@@V?$allocator@Vzee2@@@std@@@std@@@2@@std@@CAXXZ 00459850 f i u_s_lightup.obj
 0001:00058860       ?_Xlength@?$vector@Vzee2@@V?$allocator@Vzee2@@@std@@@std@@CAXXZ 00459860 f i u_s_lightup.obj
 0001:00058870       ?lightup_check@@YAXXZ      00459870 f   u_s_lightup.obj
 0001:00058bf0       ?lightup_draw2d@@YAXXZ     00459bf0 f   u_s_lightup.obj
 0001:00058cd0       ?lightup_exit@@YAXXZ       00459cd0 f   u_s_lightup.obj
 0001:00058e10       ?lightup_init@@YAXXZ       00459e10 f   u_s_lightup.obj
 0001:00059280       ?lightup_proc@@YAXXZ       0045a280 f   u_s_lightup.obj
 0001:00059710       ?rememberoversavestate@@YAXXZ 0045a710 f   u_s_lightup.obj
 0001:00059730       ?tomatrix@@YAXPAVaugmatz@@PAVlightupboard@@@Z 0045a730 f   u_s_lightup.obj
 0001:00059890       ??$_Emplace_reallocate@ABH@?$vector@HV?$allocator@H@std@@@std@@QAEPAHQAHABH@Z 0045a890 f i u_s_mainmenu.obj
 0001:000599f0       ??$find@Vhscroll@res2d@@@shape@res2d@@QAEPAVhscroll@1@PBD@Z 0045a9f0 f i u_s_mainmenu.obj
 0001:00059a60       ??_Gscript@@QAEPAXI@Z      0045aa60 f i u_s_mainmenu.obj
 0001:00059ad0       ?clear@listbox@res2d@@QAEXXZ 0045aad0 f i u_s_mainmenu.obj
 0001:00059b10       ?mainmenudraw2d@@YAXXZ     0045ab10 f   u_s_mainmenu.obj
 0001:00059bd0       ?mainmenuexit@@YAXXZ       0045abd0 f   u_s_mainmenu.obj
 0001:00059c50       ?mainmenuinit@@YAXXZ       0045ac50 f   u_s_mainmenu.obj
 0001:0005ac10       ?mainmenuproc@@YAXXZ       0045bc10 f   u_s_mainmenu.obj
 0001:0005b410       ?manydraw3d@@YAXXZ         0045c410 f   u_s_many.obj
 0001:0005b440       ?manyexit@@YAXXZ           0045c440 f   u_s_many.obj
 0001:0005b480       ?manyinit@@YAXXZ           0045c480 f   u_s_many.obj
 0001:0005b720       ?manyproc@@YAXXZ           0045c720 f   u_s_many.obj
 0001:0005b870       ??$?6U?$char_traits@D@std@@@std@@YAAAV?$basic_ostream@DU?$char_traits@D@std@@@0@AAV10@D@Z 0045c870 f i u_s_mattest.obj
 0001:0005bb00       ??$_Destroy_range@V?$allocator@V?$vector@PAVshape@res2d@@V?$allocator@PAVshape@res2d@@@std@@@std@@@std@@@std@@YAXPAV?$vector@PAVshape@res2d@@V?$allocator@PAVshape@res2d@@@std@@@0@0AAV?$allocator@V?$vector@PAVshape@res2d@@V?$allocator@PAVshape@res2d@@@std@@@std@@@0@@Z 0045cb00 f i u_s_mattest.obj
 0001:0005bb70       ??$_Destroy_range@V?$allocator@V?$vector@Vfraction@@V?$allocator@Vfraction@@@std@@@std@@@std@@@std@@YAXPAV?$vector@Vfraction@@V?$allocator@Vfraction@@@std@@@0@0AAV?$allocator@V?$vector@Vfraction@@V?$allocator@Vfraction@@@std@@@std@@@0@@Z 0045cb70 f i u_s_mattest.obj
 0001:0005bbe0       ??$_Emplace_reallocate@ABV?$vector@Vfraction@@V?$allocator@Vfraction@@@std@@@std@@@?$vector@V?$vector@Vfraction@@V?$allocator@Vfraction@@@std@@@std@@V?$allocator@V?$vector@Vfraction@@V?$allocator@Vfraction@@@std@@@std@@@2@@std@@QAEPAV?$vector@Vfraction@@V?$allocator@Vfraction@@@std@@@1@QAV21@ABV21@@Z 0045cbe0 f i u_s_mattest.obj
 0001:0005bd30       ??$_Resize@V<lambda_6ceb878c0446f0dbee58c363cd427238>@@@?$vector@V?$vector@Vfraction@@V?$allocator@Vfraction@@@std@@@std@@V?$allocator@V?$vector@Vfraction@@V?$allocator@Vfraction@@@std@@@std@@@2@@std@@AAEXIV<lambda_6ceb878c0446f0dbee58c363cd427238>@@@Z 0045cd30 f i u_s_mattest.obj
 0001:0005be30       ??$_Resize@V<lambda_b85f257bf98cd7fe2cfbcdabb37d0436>@@@?$vector@PAVshape@res2d@@V?$allocator@PAVshape@res2d@@@std@@@std@@AAEXIV<lambda_b85f257bf98cd7fe2cfbcdabb37d0436>@@@Z 0045ce30 f i u_s_mattest.obj
 0001:0005bf10       ??$_Resize@V<lambda_e6b19df8cd087bc7fd5a14fea1c26924>@@@?$vector@V?$vector@PAVshape@res2d@@V?$allocator@PAVshape@res2d@@@std@@@std@@V?$allocator@V?$vector@PAVshape@res2d@@V?$allocator@PAVshape@res2d@@@std@@@std@@@2@@std@@AAEXIV<lambda_e6b19df8cd087bc7fd5a14fea1c26924>@@@Z 0045cf10 f i u_s_mattest.obj
 0001:0005c110       ??$_Resize@V<lambda_f3d033ec913033093b9b60eb663036ad>@@@?$vector@Vfraction@@V?$allocator@Vfraction@@@std@@@std@@AAEXIV<lambda_f3d033ec913033093b9b60eb663036ad>@@@Z 0045d110 f i u_s_mattest.obj
 0001:0005c290       ??$_Uninitialized_move@PAV?$vector@Vfraction@@V?$allocator@Vfraction@@@std@@@std@@PAV12@V?$allocator@V?$vector@Vfraction@@V?$allocator@Vfraction@@@std@@@std@@@2@@std@@YAPAV?$vector@Vfraction@@V?$allocator@Vfraction@@@std@@@0@QAV10@0PAV10@AAV?$allocator@V?$vector@Vfraction@@V?$allocator@Vfraction@@@std@@@std@@@0@@Z 0045d290 f i u_s_mattest.obj
 0001:0005c310       ??0?$augmatn@Vfraction@@@@QAE@HH@Z 0045d310 f i u_s_mattest.obj
 0001:0005c430       ??0?$augmatn_ui@Vfraction@@@@QAE@HHPAVshape@res2d@@@Z 0045d430 f i u_s_mattest.obj
 0001:0005d1f0       ??0?$vector@HV?$allocator@H@std@@@std@@QAE@IABHABV?$allocator@H@1@@Z 0045e1f0 f i u_s_mattest.obj
 0001:0005d2a0       ??0?$vector@V?$vector@Vfraction@@V?$allocator@Vfraction@@@std@@@std@@V?$allocator@V?$vector@Vfraction@@V?$allocator@Vfraction@@@std@@@std@@@2@@std@@QAE@ABV01@@Z 0045e2a0 f i u_s_mattest.obj
 0001:0005d390       ??0?$vector@Vfraction@@V?$allocator@Vfraction@@@std@@@std@@QAE@ABV01@@Z 0045e390 f i u_s_mattest.obj
 0001:0005d410       ??0?$vector@Vfraction@@V?$allocator@Vfraction@@@std@@@std@@QAE@IABV?$allocator@Vfraction@@@1@@Z 0045e410 f i u_s_mattest.obj
 0001:0005d4b0       ??1?$_Uninitialized_backout_al@PAV?$vector@Vfraction@@V?$allocator@Vfraction@@@std@@@std@@V?$allocator@V?$vector@Vfraction@@V?$allocator@Vfraction@@@std@@@std@@@2@@std@@QAE@XZ 0045e4b0 f i u_s_mattest.obj
 0001:0005d4d0       ??1?$_Uninitialized_backout_al@PAVfraction@@V?$allocator@Vfraction@@@std@@@std@@QAE@XZ 0045e4d0 f i u_s_mattest.obj
 0001:0005d4e0       ??1?$augmatn@Vfraction@@@@QAE@XZ 0045e4e0 f i u_s_mattest.obj
 0001:0005d590       ??1?$vector@V?$vector@PAVshape@res2d@@V?$allocator@PAVshape@res2d@@@std@@@std@@V?$allocator@V?$vector@PAVshape@res2d@@V?$allocator@PAVshape@res2d@@@std@@@std@@@2@@std@@QAE@XZ 0045e590 f i u_s_mattest.obj
 0001:0005d610       ??1?$vector@V?$vector@Vfraction@@V?$allocator@Vfraction@@@std@@@std@@V?$allocator@V?$vector@Vfraction@@V?$allocator@Vfraction@@@std@@@std@@@2@@std@@QAE@XZ 0045e610 f i u_s_mattest.obj
 0001:0005d620       ??1?$vector@Vfraction@@V?$allocator@Vfraction@@@std@@@std@@QAE@XZ 0045e620 f i u_s_mattest.obj
 0001:0005d680       ??R<lambda_6ceb878c0446f0dbee58c363cd427238>@@QBEPAV?$vector@Vfraction@@V?$allocator@Vfraction@@@std@@@std@@PAV12@I@Z 0045e680 f i u_s_mattest.obj
 0001:0005d6c0       ??R<lambda_e6b19df8cd087bc7fd5a14fea1c26924>@@QBEPAV?$vector@PAVshape@res2d@@V?$allocator@PAVshape@res2d@@@std@@@std@@PAV12@I@Z 0045e6c0 f i u_s_mattest.obj
 0001:0005d700       ?_Change_array@?$vector@PAVshape@res2d@@V?$allocator@PAVshape@res2d@@@std@@@std@@AAEXQAPAVshape@res2d@@II@Z 0045e700 f i u_s_mattest.obj
 0001:0005d760       ?_Change_array@?$vector@V?$vector@Vfraction@@V?$allocator@Vfraction@@@std@@@std@@V?$allocator@V?$vector@Vfraction@@V?$allocator@Vfraction@@@std@@@std@@@2@@std@@AAEXQAV?$vector@Vfraction@@V?$allocator@Vfraction@@@std@@@2@II@Z 0045e760 f i u_s_mattest.obj
 0001:0005d7f0       ?_Destroy@?$vector@V?$vector@Vfraction@@V?$allocator@Vfraction@@@std@@@std@@V?$allocator@V?$vector@Vfraction@@V?$allocator@Vfraction@@@std@@@std@@@2@@std@@AAEXPAV?$vector@Vfraction@@V?$allocator@Vfraction@@@std@@@2@0@Z 0045e7f0 f i u_s_mattest.obj
 0001:0005d810       ?_Destroy@?$vector@Vfraction@@V?$allocator@Vfraction@@@std@@@std@@AAEXPAVfraction@@0@Z 0045e810 f i u_s_mattest.obj
 0001:0005d820       ?_Getal@?$_Vector_alloc@U?$_Vec_base_types@Vfraction@@V?$allocator@Vfraction@@@std@@@std@@@std@@QAEAAV?$allocator@Vfraction@@@2@XZ 0045e820 f i u_s_mattest.obj
 0001:0005d830       ?_Tidy@?$vector@V?$vector@Vfraction@@V?$allocator@Vfraction@@@std@@@std@@V?$allocator@V?$vector@Vfraction@@V?$allocator@Vfraction@@@std@@@std@@@2@@std@@AAEXXZ 0045e830 f i u_s_mattest.obj
 0001:0005d8b0       ?_Tidy@?$vector@Vfraction@@V?$allocator@Vfraction@@@std@@@std@@AAEXXZ 0045e8b0 f i u_s_mattest.obj
 0001:0005d910       ?_Udefault@?$vector@Vfraction@@V?$allocator@Vfraction@@@std@@@std@@AAEPAVfraction@@PAV3@I@Z 0045e910 f i u_s_mattest.obj
 0001:0005d990       ?_Xlength@?$vector@V?$vector@PAVshape@res2d@@V?$allocator@PAVshape@res2d@@@std@@@std@@V?$allocator@V?$vector@PAVshape@res2d@@V?$allocator@PAVshape@res2d@@@std@@@std@@@2@@std@@CAXXZ 0045e990 f i u_s_mattest.obj
 0001:0005d9a0       ?_Xlength@?$vector@V?$vector@Vfraction@@V?$allocator@Vfraction@@@std@@@std@@V?$allocator@V?$vector@Vfraction@@V?$allocator@Vfraction@@@std@@@std@@@2@@std@@CAXXZ 0045e9a0 f i u_s_mattest.obj
 0001:0005d9b0       ?_Xlength@?$vector@Vfraction@@V?$allocator@Vfraction@@@std@@@std@@CAXXZ 0045e9b0 f i u_s_mattest.obj
 0001:0005d9c0       ?add@?$augmatn@Vfraction@@@@AAEXHHVfraction@@@Z 0045e9c0 f i u_s_mattest.obj
 0001:0005db00       ?allocate@?$allocator@PAVshape@res2d@@@std@@QAEPAPAVshape@res2d@@I@Z 0045eb00 f i u_s_mattest.obj
 0001:0005db70       ?allocate@?$allocator@V?$vector@Vfraction@@V?$allocator@Vfraction@@@std@@@std@@@std@@QAEPAV?$vector@Vfraction@@V?$allocator@Vfraction@@@std@@@2@I@Z 0045eb70 f i u_s_mattest.obj
 0001:0005dbe0       ?allocate@?$allocator@Vfraction@@@std@@QAEPAVfraction@@I@Z 0045ebe0 f i u_s_mattest.obj
 0001:0005dc50       ?calc@?$augmatn@Vfraction@@@@QAEXXZ 0045ec50 f i u_s_mattest.obj
 0001:0005e560       ?calcpivot@?$augmatn@Vfraction@@@@AAEXHH@Z 0045f560 f i u_s_mattest.obj
 0001:0005e850       ?deallocate@?$allocator@V?$vector@Vfraction@@V?$allocator@Vfraction@@@std@@@std@@@std@@QAEXQAV?$vector@Vfraction@@V?$allocator@Vfraction@@@std@@@2@I@Z 0045f850 f i u_s_mattest.obj
 0001:0005e890       ?deallocate@?$allocator@Vfraction@@@std@@QAEXQAVfraction@@I@Z 0045f890 f i u_s_mattest.obj
 0001:0005e8d0       ?dofocus@?$augmatn_ui@Vfraction@@@@QAEXHHI@Z 0045f8d0 f i u_s_mattest.obj
 0001:0005ea20       ?getvarsc@?$augmatn@Vfraction@@@@QAE?AV?$vector@V?$vector@Vfraction@@V?$allocator@Vfraction@@@std@@@std@@V?$allocator@V?$vector@Vfraction@@V?$allocator@Vfraction@@@std@@@std@@@2@@std@@XZ 0045fa20 f i u_s_mattest.obj
 0001:0005eda0       ?isfocus@?$augmatn_ui@Vfraction@@@@QAE_NPAVshape@res2d@@AAH1@Z 0045fda0 f i u_s_mattest.obj
 0001:0005ee10       ?mattest_draw2d@@YAXXZ     0045fe10 f   u_s_mattest.obj
 0001:0005eeb0       ?mattest_exit@@YAXXZ       0045feb0 f   u_s_mattest.obj
 0001:0005ef40       ?mattest_init@@YAXXZ       0045ff40 f   u_s_mattest.obj
 0001:0005f1a0       ?mattest_proc@@YAXXZ       004601a0 f   u_s_mattest.obj
 0001:0005f680       ?printcalc@?$augmatn@Vfraction@@@@QBEXXZ 00460680 f i u_s_mattest.obj
 0001:0005fe30       ?printvars@?$augmatn@Vfraction@@@@SAXV?$vector@V?$vector@Vfraction@@V?$allocator@Vfraction@@@std@@@std@@V?$allocator@V?$vector@Vfraction@@V?$allocator@Vfraction@@@std@@@std@@@2@@std@@@Z 00460e30 f i u_s_mattest.obj
 0001:0005fee0       ?printvec@?$augmatn@Vfraction@@@@SAXV?$vector@Vfraction@@V?$allocator@Vfraction@@@std@@@std@@@Z 00460ee0 f i u_s_mattest.obj
 0001:000602f0       ?reset@?$augmatn@Vfraction@@@@QAEXXZ 004612f0 f i u_s_mattest.obj
 0001:00060500       ?scale@?$augmatn@Vfraction@@@@AAEXHVfraction@@@Z 00461500 f i u_s_mattest.obj
 0001:00060610       ?swap@?$augmatn@Vfraction@@@@AAEXHH@Z 00461610 f i u_s_mattest.obj
 0001:000606c0       ??$?8V?$vector@Vzee2@@V?$allocator@Vzee2@@@std@@@std@@V?$allocator@V?$vector@Vzee2@@V?$allocator@Vzee2@@@std@@@std@@@1@@std@@YA_NABV?$vector@V?$vector@Vzee2@@V?$allocator@Vzee2@@@std@@@std@@V?$allocator@V?$vector@Vzee2@@V?$allocator@Vzee2@@@std@@@std@@@2@@0@0@Z 004616c0 f i u_s_mattest2.obj
 0001:00060760       ??1?$vector@Vzee2@@V?$allocator@Vzee2@@@std@@@std@@QAE@XZ 00461760 f i u_s_mattest2.obj
 0001:000607c0       ?mattest2_check@u_s_mattest2@@YAXXZ 004617c0 f   u_s_mattest2.obj
 0001:00060b50       ?mattest2_draw2d@@YAXXZ    00461b50 f   u_s_mattest2.obj
 0001:00060c10       ?mattest2_exit@@YAXXZ      00461c10 f   u_s_mattest2.obj
 0001:00060d30       ?mattest2_init@@YAXXZ      00461d30 f   u_s_mattest2.obj
 0001:00060ff0       ?mattest2_proc@@YAXXZ      00461ff0 f   u_s_mattest2.obj
 0001:000614e0       ??$_Destroy_range@V?$allocator@V?$vector@EV?$allocator@E@std@@@std@@@std@@@std@@YAXPAV?$vector@EV?$allocator@E@std@@@0@0AAV?$allocator@V?$vector@EV?$allocator@E@std@@@std@@@0@@Z 004624e0 f i u_s_maze.obj
 0001:00061550       ??$_Emplace_reallocate@ABV?$vector@EV?$allocator@E@std@@@std@@@?$vector@V?$vector@EV?$allocator@E@std@@@std@@V?$allocator@V?$vector@EV?$allocator@E@std@@@std@@@2@@std@@QAEPAV?$vector@EV?$allocator@E@std@@@1@QAV21@ABV21@@Z 00462550 f i u_s_maze.obj
 0001:00061710       ??$_Fill_unchecked1@PAV?$vector@EV?$allocator@E@std@@@std@@V12@@std@@YAXPAV?$vector@EV?$allocator@E@std@@@0@0ABV10@U?$integral_constant@_N$0A@@0@@Z 00462710 f i u_s_maze.obj
 0001:00061870       ??$_Fill_unchecked@PAPAVmaze@@PAV1@@std@@YAXPAPAVmaze@@0ABQAV1@@Z 00462870 f i u_s_maze.obj
 0001:000618f0       ??$_Uninitialized_move@PAV?$vector@EV?$allocator@E@std@@@std@@PAV12@V?$allocator@V?$vector@EV?$allocator@E@std@@@std@@@2@@std@@YAPAV?$vector@EV?$allocator@E@std@@@0@QAV10@0PAV10@AAV?$allocator@V?$vector@EV?$allocator@E@std@@@std@@@0@@Z 004628f0 f i u_s_maze.obj
 0001:00061970       ??0?$vector@EV?$allocator@E@std@@@std@@QAE@IABEABV?$allocator@E@1@@Z 00462970 f i u_s_maze.obj
 0001:000619e0       ??0maze@@QAE@PAU_iobuf@@@Z 004629e0 f i u_s_maze.obj
 0001:00061ba0       ??1?$_Uninitialized_backout_al@PAV?$vector@EV?$allocator@E@std@@@std@@V?$allocator@V?$vector@EV?$allocator@E@std@@@std@@@2@@std@@QAE@XZ 00462ba0 f i u_s_maze.obj
 0001:00061bc0       ??1?$vector@V?$vector@EV?$allocator@E@std@@@std@@V?$allocator@V?$vector@EV?$allocator@E@std@@@std@@@2@@std@@QAE@XZ 00462bc0 f i u_s_maze.obj
 0001:00061bd0       ?_Buy@?$vector@V?$vector@EV?$allocator@E@std@@@std@@V?$allocator@V?$vector@EV?$allocator@E@std@@@std@@@2@@std@@AAE_NI@Z 00462bd0 f i u_s_maze.obj
 0001:00061c30       ?_Destroy@?$vector@V?$vector@EV?$allocator@E@std@@@std@@V?$allocator@V?$vector@EV?$allocator@E@std@@@std@@@2@@std@@AAEXPAV?$vector@EV?$allocator@E@std@@@2@0@Z 00462c30 f i u_s_maze.obj
 0001:00061c50       ?_Tidy@?$vector@V?$vector@EV?$allocator@E@std@@@std@@V?$allocator@V?$vector@EV?$allocator@E@std@@@std@@@2@@std@@AAEXXZ 00462c50 f i u_s_maze.obj
 0001:00061cd0       ?_Ufill@?$vector@V?$vector@EV?$allocator@E@std@@@std@@V?$allocator@V?$vector@EV?$allocator@E@std@@@std@@@2@@std@@AAEPAV?$vector@EV?$allocator@E@std@@@2@PAV32@IABV32@@Z 00462cd0 f i u_s_maze.obj
 0001:00061d50       ?_Xlength@?$vector@PAVmaze@@V?$allocator@PAVmaze@@@std@@@std@@CAXXZ 00462d50 f i u_s_maze.obj
 0001:00061d60       ?_Xlength@?$vector@V?$vector@EV?$allocator@E@std@@@std@@V?$allocator@V?$vector@EV?$allocator@E@std@@@std@@@2@@std@@CAXXZ 00462d60 f i u_s_maze.obj
 0001:00061d70       ?allocate@?$allocator@V?$vector@EV?$allocator@E@std@@@std@@@std@@QAEPAV?$vector@EV?$allocator@E@std@@@2@I@Z 00462d70 f i u_s_maze.obj
 0001:00061de0       ?assign@?$vector@EV?$allocator@E@std@@@std@@QAEXIABE@Z 00462de0 f i u_s_maze.obj
 0001:00061eb0       ?assign@?$vector@PAVmaze@@V?$allocator@PAVmaze@@@std@@@std@@QAEXIABQAVmaze@@@Z 00462eb0 f i u_s_maze.obj
 0001:00062010       ?assign@?$vector@V?$vector@EV?$allocator@E@std@@@std@@V?$allocator@V?$vector@EV?$allocator@E@std@@@std@@@2@@std@@QAEXIABV?$vector@EV?$allocator@E@std@@@2@@Z 00463010 f i u_s_maze.obj
 0001:00062130       ?deallocate@?$allocator@PAVmaze@@@std@@QAEXQAPAVmaze@@I@Z 00463130 f i u_s_maze.obj
 0001:00062170       ?deallocate@?$allocator@V?$vector@EV?$allocator@E@std@@@std@@@std@@QAEXQAV?$vector@EV?$allocator@E@std@@@2@I@Z 00463170 f i u_s_maze.obj
 0001:000621b0       ?doui@maze@@QAEXXZ         004631b0 f i u_s_maze.obj
 0001:000623d0       ?draw@maze@@QAEXXZ         004633d0 f i u_s_maze.obj
 0001:00062c20       ?maze_draw3d@@YAXXZ        00463c20 f   u_s_maze.obj
 0001:00062c60       ?maze_exit@@YAXXZ          00463c60 f   u_s_maze.obj
 0001:00062dd0       ?maze_init@@YAXXZ          00463dd0 f   u_s_maze.obj
 0001:00063120       ?maze_proc@@YAXXZ          00464120 f   u_s_maze.obj
 0001:00063560       ?pop_back@?$vector@V?$vector@EV?$allocator@E@std@@@std@@V?$allocator@V?$vector@EV?$allocator@E@std@@@std@@@2@@std@@QAEXXZ 00464560 f i u_s_maze.obj
 0001:000635c0       ?print@maze@@QAEXI@Z       004645c0 f i u_s_maze.obj
 0001:00063870       ?beercan@u_s_newtons@@YAMM@Z 00464870 f   u_s_newtons.obj
 0001:000638b0       ?cabs@u_s_newtons@@YAMABUpointf2@@@Z 004648b0 f   u_s_newtons.obj
 0001:000638f0       ?cadd@u_s_newtons@@YA?AUpointf2@@ABU2@0@Z 004648f0 f   u_s_newtons.obj
 0001:00063930       ?cconj@u_s_newtons@@YA?AUpointf2@@ABU2@@Z 00464930 f   u_s_newtons.obj
 0001:00063960       ?cdivide@u_s_newtons@@YA?AUpointf2@@ABU2@0@Z 00464960 f   u_s_newtons.obj
 0001:00063a00       ?circ@u_s_newtons@@YA?AUpointf2@@M@Z 00464a00 f   u_s_newtons.obj
 0001:00063a60       ?cosfun@u_s_newtons@@YAMM@Z 00464a60 f   u_s_newtons.obj
 0001:00063a90       ?cpow@u_s_newtons@@YA?AUpointf2@@ABU2@H@Z 00464a90 f   u_s_newtons.obj
 0001:00063c60       ?csub@u_s_newtons@@YA?AUpointf2@@ABU2@0@Z 00464c60 f   u_s_newtons.obj
 0001:00063ca0       ?ctimes@u_s_newtons@@YA?AUpointf2@@ABU2@0@Z 00464ca0 f   u_s_newtons.obj
 0001:00063cf0       ?ctimes@u_s_newtons@@YA?AUpointf2@@ABU2@M@Z 00464cf0 f   u_s_newtons.obj
 0001:00063d20       ?drawaxis@u_s_newtons@@YAXXZ 00464d20 f   u_s_newtons.obj
 0001:00063ec0       ?drawbgnewtons@u_s_newtons@@YAXH@Z 00464ec0 f   u_s_newtons.obj
 0001:00064190       ?drawbgroots@u_s_newtons@@YAXH@Z 00465190 f   u_s_newtons.obj
 0001:00064310       ?drawbox2@u_s_newtons@@YAXABUpointf2@@0UC32@@@Z 00465310 f   u_s_newtons.obj
 0001:00064720       ?drawfcircle@u_s_newtons@@YAXABUpointf2@@UC32@@H@Z 00465720 f   u_s_newtons.obj
 0001:000647d0       ?drawfhair@u_s_newtons@@YAXABUpointf2@@UC32@@@Z 004657d0 f   u_s_newtons.obj
 0001:000648a0       ?drawfline@u_s_newtons@@YAXABUpointf2@@0UC32@@@Z 004658a0 f   u_s_newtons.obj
 0001:000649b0       ?drawflinec@u_s_newtons@@YAXABUpointf2@@0UC32@@@Z 004659b0 f   u_s_newtons.obj
 0001:00064ad0       ?drawflineh@u_s_newtons@@YAXABUpointf2@@0UC32@@@Z 00465ad0 f   u_s_newtons.obj
 0001:00064bf0       ?drawfpoint@u_s_newtons@@YAXABUpointf2@@UC32@@@Z 00465bf0 f   u_s_newtons.obj
 0001:00064ca0       ?drawgrid@u_s_newtons@@YAXXZ 00465ca0 f   u_s_newtons.obj
 0001:000653a0       ?drawnewtons@u_s_newtons@@YAXXZ 004663a0 f   u_s_newtons.obj
 0001:00065530       ?drawstuff@u_s_newtons@@YAXXZ 00466530 f   u_s_newtons.obj
 0001:000658e0       ?drawtext@u_s_newtons@@YAXABUpointf2@@UC32@@1PBD@Z 004668e0 f   u_s_newtons.obj
 0001:00065990       ?exp10@u_s_newtons@@YAMM@Z 00466990 f   u_s_newtons.obj
 0001:000659d0       ?expe@u_s_newtons@@YAMM@Z  004669d0 f   u_s_newtons.obj
 0001:00065a00       ?fc@u_s_newtons@@YAMM@Z    00466a00 f   u_s_newtons.obj
 0001:00065a50       ?fs@u_s_newtons@@YAMM@Z    00466a50 f   u_s_newtons.obj
 0001:00065aa0       ?getmaxvisxy@u_s_newtons@@YA?AUpointf2@@XZ 00466aa0 f   u_s_newtons.obj
 0001:00065b00       ?getminvisxy@u_s_newtons@@YA?AUpointf2@@XZ 00466b00 f   u_s_newtons.obj
 0001:00065b70       ?getrootidx@u_s_newtons@@YAHABUpointf2@@@Z 00466b70 f   u_s_newtons.obj
 0001:00065c10       ?math2screen@u_s_newtons@@YA?AUpointi2@@ABUpointf2@@@Z 00466c10 f   u_s_newtons.obj
 0001:00065cb0       ?newtfun@u_s_newtons@@YA?AUpointf2@@ABU2@@Z 00466cb0 f   u_s_newtons.obj
 0001:00065df0       ?newtfund@u_s_newtons@@YA?AUpointf2@@ABU2@@Z 00466df0 f   u_s_newtons.obj
 0001:00065f30       ?newtonsdraw2d@@YAXXZ      00466f30 f   u_s_newtons.obj
 0001:00066130       ?newtonsexit@@YAXXZ        00467130 f   u_s_newtons.obj
 0001:000661e0       ?newtonsinit@@YAXXZ        004671e0 f   u_s_newtons.obj
 0001:00066320       ?newtonsproc@@YAXXZ        00467320 f   u_s_newtons.obj
 0001:00066390       ?newtstep@u_s_newtons@@YA?AUpointf2@@ABU2@@Z 00467390 f   u_s_newtons.obj
 0001:00066590       ?quintic@u_s_newtons@@YAMM@Z 00467590 f   u_s_newtons.obj
 0001:00066600       ?root3_0@u_s_newtons@@YAMM@Z 00467600 f   u_s_newtons.obj
 0001:00066660       ?root3_1@u_s_newtons@@YAMM@Z 00467660 f   u_s_newtons.obj
 0001:00066720       ?root3_2@u_s_newtons@@YAMM@Z 00467720 f   u_s_newtons.obj
 0001:000667e0       ?screen2math@u_s_newtons@@YA?AUpointf2@@ABUpointi2@@@Z 004677e0 f   u_s_newtons.obj
 0001:00066880       ?seventh@u_s_newtons@@YAMM@Z 00467880 f   u_s_newtons.obj
 0001:000668f0       ?sinfun@u_s_newtons@@YAMM@Z 004678f0 f   u_s_newtons.obj
 0001:00066920       ?tanfun@u_s_newtons@@YAMM@Z 00467920 f   u_s_newtons.obj
 0001:00066950       ?tant@u_s_newtons@@YAMM@Z  00467950 f   u_s_newtons.obj
 0001:000669a0       ?testnewtons@u_s_newtons@@YAXXZ 004679a0 f   u_s_newtons.obj
 0001:00066c20       ?xs@u_s_newtons@@YAMM@Z    00467c20 f   u_s_newtons.obj
 0001:00066c30       ?playamoviedraw2d@@YAXXZ   00467c30 f   u_s_playamovie.obj
 0001:00066c90       ?playamoviedraw3d@@YAXXZ   00467c90 f   u_s_playamovie.obj
 0001:00066cc0       ?playamovieexit@@YAXXZ     00467cc0 f   u_s_playamovie.obj
 0001:00066dd0       ?playamovieinit@@YAXXZ     00467dd0 f   u_s_playamovie.obj
 0001:000670e0       ?playamovieproc@@YAXXZ     004680e0 f   u_s_playamovie.obj
 0001:000672d0       ??$drawfunctionb@P6AMM@Z@u_s_plotter@@YAXP6AMM@ZMM@Z 004682d0 f i u_s_plotter.obj
 0001:000674b0       ?beercan@u_s_plotter@@YAMM@Z 004684b0 f   u_s_plotter.obj
 0001:000674f0       ?calcarc@u_s_plotter@@YA_NAAUpointf2@@0H@Z 004684f0 f   u_s_plotter.obj
 0001:00067690       ?calcmaxsumbrute@u_s_plotter@@YAHQAHH@Z 00468690 f   u_s_plotter.obj
 0001:000677d0       ?calcmaxsumfinesse@u_s_plotter@@YAHQAHH@Z 004687d0 f   u_s_plotter.obj
 0001:00067820       ?circ@u_s_plotter@@YA?AUpointf2@@M@Z 00468820 f   u_s_plotter.obj
 0001:00067880       ?cosfun@u_s_plotter@@YAMM@Z 00468880 f   u_s_plotter.obj
 0001:000678b0       ?drawarc@u_s_plotter@@YAXABUpointf2@@MH@Z 004688b0 f   u_s_plotter.obj
 0001:00067b10       ?drawarc@u_s_plotter@@YAXABUpointf2@@MMMH@Z 00468b10 f   u_s_plotter.obj
 0001:00067d50       ?drawaxis@u_s_plotter@@YAXXZ 00468d50 f   u_s_plotter.obj
 0001:00067ef0       ?drawbell@u_s_plotter@@YAXXZ 00468ef0 f   u_s_plotter.obj
 0001:00067f50       ?drawbox2@u_s_plotter@@YAXABUpointf2@@0UC32@@@Z 00468f50 f   u_s_plotter.obj
 0001:00068360       ?drawfcircle@u_s_plotter@@YAXABUpointf2@@UC32@@H@Z 00469360 f   u_s_plotter.obj
 0001:00068410       ?drawfhair@u_s_plotter@@YAXABUpointf2@@UC32@@@Z 00469410 f   u_s_plotter.obj
 0001:000684e0       ?drawfline@u_s_plotter@@YAXABUpointf2@@0UC32@@@Z 004694e0 f   u_s_plotter.obj
 0001:000685f0       ?drawflinec@u_s_plotter@@YAXABUpointf2@@0UC32@@@Z 004695f0 f   u_s_plotter.obj
 0001:00068710       ?drawflineh@u_s_plotter@@YAXABUpointf2@@0UC32@@@Z 00469710 f   u_s_plotter.obj
 0001:00068830       ?drawfpoint@u_s_plotter@@YAXABUpointf2@@UC32@@@Z 00469830 f   u_s_plotter.obj
 0001:000688e0       ?drawgrid@u_s_plotter@@YAXXZ 004698e0 f   u_s_plotter.obj
 0001:00068fe0       ?drawmaze@u_s_plotter@@YAXXZ 00469fe0 f   u_s_plotter.obj
 0001:0006a1b0       ?drawstuff@u_s_plotter@@YAXXZ 0046b1b0 f   u_s_plotter.obj
 0001:0006a210       ?drawtext@u_s_plotter@@YAXABUpointf2@@UC32@@1PBD@Z 0046b210 f   u_s_plotter.obj
 0001:0006a2c0       ?exp10@u_s_plotter@@YAMM@Z 0046b2c0 f   u_s_plotter.obj
 0001:0006a300       ?expe@u_s_plotter@@YAMM@Z  0046b300 f   u_s_plotter.obj
 0001:0006a330       ?fc@u_s_plotter@@YAMM@Z    0046b330 f   u_s_plotter.obj
 0001:0006a380       ?fs@u_s_plotter@@YAMM@Z    0046b380 f   u_s_plotter.obj
 0001:0006a3d0       ?getmaxvisxy@u_s_plotter@@YA?AUpointf2@@XZ 0046b3d0 f   u_s_plotter.obj
 0001:0006a430       ?getminvisxy@u_s_plotter@@YA?AUpointf2@@XZ 0046b430 f   u_s_plotter.obj
 0001:0006a4a0       ?hiddenfuncorr@u_s_plotter@@YAMM@Z 0046b4a0 f   u_s_plotter.obj
 0001:0006a4d0       ?hiddenfunprob@u_s_plotter@@YAMM@Z 0046b4d0 f   u_s_plotter.obj
 0001:0006a6f0       ?hiddenfunprobtest@u_s_plotter@@YAMM@Z 0046b6f0 f   u_s_plotter.obj
 0001:0006a820       ?hvfunprob@u_s_plotter@@YAMM@Z 0046b820 f   u_s_plotter.obj
 0001:0006a8b0       ?math2screen@u_s_plotter@@YA?AUpointi2@@ABUpointf2@@@Z 0046b8b0 f   u_s_plotter.obj
 0001:0006a950       ?plotterdraw2d@@YAXXZ      0046b950 f   u_s_plotter.obj
 0001:0006ab80       ?plotterexit@@YAXXZ        0046bb80 f   u_s_plotter.obj
 0001:0006ac30       ?plotterinit@@YAXXZ        0046bc30 f   u_s_plotter.obj
 0001:0006ad50       ?plotterproc@@YAXXZ        0046bd50 f   u_s_plotter.obj
 0001:0006ad70       ?prob2corr@u_s_plotter@@YAMM@Z 0046bd70 f   u_s_plotter.obj
 0001:0006ad80       ?qmfuncorr@u_s_plotter@@YAMM@Z 0046bd80 f   u_s_plotter.obj
 0001:0006add0       ?qmfunprob@u_s_plotter@@YAMM@Z 0046bdd0 f   u_s_plotter.obj
 0001:0006ae00       ?quintic@u_s_plotter@@YAMM@Z 0046be00 f   u_s_plotter.obj
 0001:0006ae70       ?root3_0@u_s_plotter@@YAMM@Z 0046be70 f   u_s_plotter.obj
 0001:0006aed0       ?root3_1@u_s_plotter@@YAMM@Z 0046bed0 f   u_s_plotter.obj
 0001:0006af90       ?root3_2@u_s_plotter@@YAMM@Z 0046bf90 f   u_s_plotter.obj
 0001:0006b050       ?seventh@u_s_plotter@@YAMM@Z 0046c050 f   u_s_plotter.obj
 0001:0006b0c0       ?sinfun@u_s_plotter@@YAMM@Z 0046c0c0 f   u_s_plotter.obj
 0001:0006b0f0       ?tanfun@u_s_plotter@@YAMM@Z 0046c0f0 f   u_s_plotter.obj
 0001:0006b120       ?tant@u_s_plotter@@YAMM@Z  0046c120 f   u_s_plotter.obj
 0001:0006b170       ?testadjsums@u_s_plotter@@YAXXZ 0046c170 f   u_s_plotter.obj
 0001:0006b380       ?xs@u_s_plotter@@YAMM@Z    0046c380 f   u_s_plotter.obj
 0001:0006b390       ??$range@N@@YANABN00@Z     0046c390 f i u_s_riemann.obj
 0001:0006b3e0       ?calczi@@YAXPAUcp@@H@Z     0046c3e0 f   u_s_riemann.obj
 0001:0006b720       ?riemann_draw2d@@YAXXZ     0046c720 f   u_s_riemann.obj
 0001:0006b770       ?riemann_exit@@YAXXZ       0046c770 f   u_s_riemann.obj
 0001:0006b790       ?riemann_init@@YAXXZ       0046c790 f   u_s_riemann.obj
 0001:0006bad0       ?riemann_proc@@YAXXZ       0046cad0 f   u_s_riemann.obj
 0001:0006bde0       ??0?$vector@IV?$allocator@I@std@@@std@@QAE@IABIABV?$allocator@I@1@@Z 0046cde0 f i u_s_toon.obj
 0001:0006be90       ??0?$vector@_NV?$allocator@_N@std@@@std@@QAE@IABV?$allocator@_N@1@@Z 0046ce90 f i u_s_toon.obj
 0001:0006bf40       ??1?$_Vb_val@V?$allocator@_N@std@@@std@@QAE@XZ 0046cf40 f i u_s_toon.obj
 0001:0006bfa0       ?_Tidy@?$vector@Uuv@@V?$allocator@Uuv@@@std@@@std@@AAEXXZ 0046cfa0 f i u_s_toon.obj
 0001:0006c000       ?edgeify@@YAXPAVtree2@@@Z  0046d000 f   u_s_toon.obj
 0001:0006ca40       ?normalify@@YAXPAVtree2@@I@Z 0046da40 f   u_s_toon.obj
 0001:0006cfb0       ??$buildpatch@Vplanexz_surf@@@@YAXPAVmodelb@@HHMMVplanexz_surf@@PBD2@Z 0046dfb0 f i u_s_tritest1.obj
 0001:0006d260       ??$buildpatch_tan@Vspheref_surf_tan@@@@YAXPAVmodelb@@HHMMVspheref_surf_tan@@PBD22@Z 0046e260 f i u_s_tritest1.obj
 0001:0006d880       ?tritest1draw3d@@YAXXZ     0046e880 f   u_s_tritest1.obj
 0001:0006d920       ?tritest1exit@@YAXXZ       0046e920 f   u_s_tritest1.obj
 0001:0006da10       ?tritest1init@@YAXXZ       0046ea10 f   u_s_tritest1.obj
 0001:0006e230       ?tritest1proc@@YAXXZ       0046f230 f   u_s_tritest1.obj
 0001:0006e660       ??$?9DU?$char_traits@D@std@@V?$allocator@D@1@@std@@YA_NABV?$basic_string@DU?$char_traits@D@std@@V?$allocator@D@2@@0@QBD@Z 0046f660 f i json.obj
 0001:0006e6f0       ??$_Assign_range@PAVjson@@@?$vector@Vjson@@V?$allocator@Vjson@@@std@@@std@@AAEXPAVjson@@0Uforward_iterator_tag@1@@Z 0046f6f0 f i json.obj
 0001:0006e900       ??$_Buynode@ABUpiecewise_construct_t@std@@V?$tuple@ABV?$basic_string@DU?$char_traits@D@std@@V?$allocator@D@2@@std@@@2@V?$tuple@$$V@2@@?$_Tree_comp_alloc@V?$_Tmap_traits@V?$basic_string@DU?$char_traits@D@std@@V?$allocator@D@2@@std@@Vjson@@U?$less@V?$basic_string@DU?$char_traits@D@std@@V?$allocator@D@2@@std@@@2@V?$allocator@U?$pair@$$CBV?$basic_string@DU?$char_traits@D@std@@V?$allocator@D@2@@std@@Vjson@@@std@@@2@$0A@@std@@@std@@QAEPAU?$_Tree_node@U?$pair@$$CBV?$basic_string@DU?$char_traits@D@std@@V?$allocator@D@2@@std@@Vjson@@@std@@PAX@1@ABUpiecewise_construct_t@1@$$QAV?$tuple@ABV?$basic_string@DU?$char_traits@D@std@@V?$allocator@D@2@@std@@@1@$$QAV?$tuple@$$V@1@@Z 0046f900 f i json.obj
 0001:0006e9d0       ??$_Copy@U_Copy_tag@?$_Tree@V?$_Tmap_traits@V?$basic_string@DU?$char_traits@D@std@@V?$allocator@D@2@@std@@Vjson@@U?$less@V?$basic_string@DU?$char_traits@D@std@@V?$allocator@D@2@@std@@@2@V?$allocator@U?$pair@$$CBV?$basic_string@DU?$char_traits@D@std@@V?$allocator@D@2@@std@@Vjson@@@std@@@2@$0A@@std@@@std@@@?$_Tree@V?$_Tmap_traits@V?$basic_string@DU?$char_traits@D@std@@V?$allocator@D@2@@std@@Vjson@@U?$less@V?$basic_string@DU?$char_traits@D@std@@V?$allocator@D@2@@std@@@2@V?$allocator@U?$pair@$$CBV?$basic_string@DU?$char_traits@D@std@@V?$allocator@D@2@@std@@Vjson@@@std@@@2@$0A@@std@@@std@@IAEXABV01@U_Copy_tag@01@@Z 0046f9d0 f i json.obj
 0001:0006ea50       ??$_Emplace_back_with_unused_capacity@ABVjson@@@?$vector@Vjson@@V?$allocator@Vjson@@@std@@@std@@AAEXABVjson@@@Z 0046fa50 f i json.obj
 0001:0006ead0       ??$_Emplace_reallocate@ABM@?$vector@MV?$allocator@M@std@@@std@@QAEPAMQAMABM@Z 0046fad0 f i json.obj
 0001:0006ec30       ??$_Emplace_reallocate@ABVjson@@@?$vector@Vjson@@V?$allocator@Vjson@@@std@@@std@@QAEPAVjson@@QAV2@ABV2@@Z 0046fc30 f i json.obj
 0001:0006ee90       ??$_Insert_at@AAU?$pair@$$CBV?$basic_string@DU?$char_traits@D@std@@V?$allocator@D@2@@std@@Vjson@@@std@@PAU?$_Tree_node@U?$pair@$$CBV?$basic_string@DU?$char_traits@D@std@@V?$allocator@D@2@@std@@Vjson@@@std@@PAX@2@@?$_Tree@V?$_Tmap_traits@V?$basic_string@DU?$char_traits@D@std@@V?$allocator@D@2@@std@@Vjson@@U?$less@V?$basic_string@DU?$char_traits@D@std@@V?$allocator@D@2@@std@@@2@V?$allocator@U?$pair@$$CBV?$basic_string@DU?$char_traits@D@std@@V?$allocator@D@2@@std@@Vjson@@@std@@@2@$0A@@std@@@std@@IAE?AV?$_Tree_iterator@V?$_Tree_val@U?$_Tree_simple_types@U?$pair@$$CBV?$basic_string@DU?$char_traits@D@std@@V?$allocator@D@2@@std@@Vjson@@@std@@@std@@@std@@@1@_NPAU?$_Tree_node@U?$pair@$$CBV?$basic_string@DU?$char_traits@D@std@@V?$allocator@D@2@@std@@Vjson@@@std@@PAX@1@AAU?$pair@$$CBV?$basic_string@DU?$char_traits@D@std@@V?$allocator@D@2@@std@@Vjson@@@1@1@Z 0046fe90 f i json.obj
 0001:0006eff0       ??$_Insert_hint@AAU?$pair@$$CBV?$basic_string@DU?$char_traits@D@std@@V?$allocator@D@2@@std@@Vjson@@@std@@PAU?$_Tree_node@U?$pair@$$CBV?$basic_string@DU?$char_traits@D@std@@V?$allocator@D@2@@std@@Vjson@@@std@@PAX@2@@?$_Tree@V?$_Tmap_traits@V?$basic_string@DU?$char_traits@D@std@@V?$allocator@D@2@@std@@Vjson@@U?$less@V?$basic_string@DU?$char_traits@D@std@@V?$allocator@D@2@@std@@@2@V?$allocator@U?$pair@$$CBV?$basic_string@DU?$char_traits@D@std@@V?$allocator@D@2@@std@@Vjson@@@std@@@2@$0A@@std@@@std@@IAE?AV?$_Tree_iterator@V?$_Tree_val@U?$_Tree_simple_types@U?$pair@$$CBV?$basic_string@DU?$char_traits@D@std@@V?$allocator@D@2@@std@@Vjson@@@std@@@std@@@std@@@1@V?$_Tree_const_iterator@V?$_Tree_val@U?$_Tree_simple_types@U?$pair@$$CBV?$basic_string@DU?$char_traits@D@std@@V?$allocator@D@2@@std@@Vjson@@@std@@@std@@@std@@@1@AAU?$pair@$$CBV?$basic_string@DU?$char_traits@D@std@@V?$allocator@D@2@@std@@Vjson@@@1@PAU?$_Tree_node@U?$pair@$$CBV?$basic_string@DU?$char_traits@D@std@@V?$allocator@D@2@@std@@Vjson@@@std@@PAX@1@@Z 0046fff0 f i json.obj
 0001:0006f230       ??$_Insert_nohint@AAU?$pair@$$CBV?$basic_string@DU?$char_traits@D@std@@V?$allocator@D@2@@std@@Vjson@@@std@@PAU?$_Tree_node@U?$pair@$$CBV?$basic_string@DU?$char_traits@D@std@@V?$allocator@D@2@@std@@Vjson@@@std@@PAX@2@@?$_Tree@V?$_Tmap_traits@V?$basic_string@DU?$char_traits@D@std@@V?$allocator@D@2@@std@@Vjson@@U?$less@V?$basic_string@DU?$char_traits@D@std@@V?$allocator@D@2@@std@@@2@V?$allocator@U?$pair@$$CBV?$basic_string@DU?$char_traits@D@std@@V?$allocator@D@2@@std@@Vjson@@@std@@@2@$0A@@std@@@std@@IAE?AU?$pair@V?$_Tree_iterator@V?$_Tree_val@U?$_Tree_simple_types@U?$pair@$$CBV?$basic_string@DU?$char_traits@D@std@@V?$allocator@D@2@@std@@Vjson@@@std@@@std@@@std@@@std@@_N@1@_NAAU?$pair@$$CBV?$basic_string@DU?$char_traits@D@std@@V?$allocator@D@2@@std@@Vjson@@@1@PAU?$_Tree_node@U?$pair@$$CBV?$basic_string@DU?$char_traits@D@std@@V?$allocator@D@2@@std@@Vjson@@@std@@PAX@1@@Z 00470230 f i json.obj
 0001:0006f3c0       ??$_Lbound@V?$basic_string@DU?$char_traits@D@std@@V?$allocator@D@2@@std@@@?$_Tree@V?$_Tmap_traits@V?$basic_string@DU?$char_traits@D@std@@V?$allocator@D@2@@std@@Vjson@@U?$less@V?$basic_string@DU?$char_traits@D@std@@V?$allocator@D@2@@std@@@2@V?$allocator@U?$pair@$$CBV?$basic_string@DU?$char_traits@D@std@@V?$allocator@D@2@@std@@Vjson@@@std@@@2@$0A@@std@@@std@@IBEPAU?$_Tree_node@U?$pair@$$CBV?$basic_string@DU?$char_traits@D@std@@V?$allocator@D@2@@std@@Vjson@@@std@@PAX@1@ABV?$basic_string@DU?$char_traits@D@std@@V?$allocator@D@2@@1@@Z 004703c0 f i json.obj
 0001:0006f420       ??$_Ucopy@PAVjson@@@?$vector@Vjson@@V?$allocator@Vjson@@@std@@@std@@AAEPAVjson@@PAV2@00@Z 00470420 f i json.obj
 0001:0006f490       ??$destroy@U?$pair@$$CBV?$basic_string@DU?$char_traits@D@std@@V?$allocator@D@2@@std@@Vjson@@@std@@@?$_Default_allocator_traits@V?$allocator@U?$_Tree_node@U?$pair@$$CBV?$basic_string@DU?$char_traits@D@std@@V?$allocator@D@2@@std@@Vjson@@@std@@PAX@std@@@std@@@std@@SAXAAV?$allocator@U?$_Tree_node@U?$pair@$$CBV?$basic_string@DU?$char_traits@D@std@@V?$allocator@D@2@@std@@Vjson@@@std@@PAX@std@@@1@QAU?$pair@$$CBV?$basic_string@DU?$char_traits@D@std@@V?$allocator@D@2@@std@@Vjson@@@1@@Z 00470490 f i json.obj
 0001:0006f4f0       ??$emplace@ABVjson@@@?$vector@Vjson@@V?$allocator@Vjson@@@std@@@std@@QAE?AV?$_Vector_iterator@V?$_Vector_val@U?$_Simple_types@Vjson@@@std@@@std@@@1@V?$_Vector_const_iterator@V?$_Vector_val@U?$_Simple_types@Vjson@@@std@@@std@@@1@ABVjson@@@Z 004704f0 f i json.obj
 0001:0006f6e0       ??0json@@QAE@$$QAV0@@Z     004706e0 f i json.obj
 0001:0006f7d0       ??0json@@QAE@PBD@Z         004707d0 f   json.obj
 0001:0006f870       ??0json@@QAE@V?$basic_string@DU?$char_traits@D@std@@V?$allocator@D@2@@std@@@Z 00470870 f   json.obj
 0001:0006f950       ??1?$_Tree@V?$_Tmap_traits@V?$basic_string@DU?$char_traits@D@std@@V?$allocator@D@2@@std@@Vjson@@U?$less@V?$basic_string@DU?$char_traits@D@std@@V?$allocator@D@2@@std@@@2@V?$allocator@U?$pair@$$CBV?$basic_string@DU?$char_traits@D@std@@V?$allocator@D@2@@std@@Vjson@@@std@@@2@$0A@@std@@@std@@QAE@XZ 00470950 f i json.obj
 0001:0006f9a0       ??1rectf3@@QAE@XZ          004709a0 f i json.obj
 0001:0006fae0       ??1rectf3j@@QAE@XZ         00470ae0 f i json.obj
 0001:0006faf0       ??4json@@QAEAAV0@$$QAV0@@Z 00470af0 f i json.obj
 0001:0006fc00       ??4json@@QAEAAV0@ABV0@@Z   00470c00 f i json.obj
 0001:0006fcc0       ??A?$map@V?$basic_string@DU?$char_traits@D@std@@V?$allocator@D@2@@std@@Vjson@@U?$less@V?$basic_string@DU?$char_traits@D@std@@V?$allocator@D@2@@std@@@2@V?$allocator@U?$pair@$$CBV?$basic_string@DU?$char_traits@D@std@@V?$allocator@D@2@@std@@Vjson@@@std@@@2@@std@@QAEAAVjson@@ABV?$basic_string@DU?$char_traits@D@std@@V?$allocator@D@2@@1@@Z 00470cc0 f i json.obj
 0001:0006fd50       ??E?$_Tree_const_iterator@V?$_Tree_val@U?$_Tree_simple_types@U?$pair@$$CBV?$basic_string@DU?$char_traits@D@std@@V?$allocator@D@2@@std@@Vjson@@@std@@@std@@@std@@@std@@QAEAAV01@XZ 00470d50 f i json.obj
 0001:0006fdb0       ??F?$_Tree_const_iterator@V?$_Tree_val@U?$_Tree_simple_types@U?$pair@$$CBV?$basic_string@DU?$char_traits@D@std@@V?$allocator@D@2@@std@@Vjson@@@std@@@std@@@std@@@std@@QAEAAV01@XZ 00470db0 f i json.obj
 0001:0006fe40       ??R?$less@V?$basic_string@DU?$char_traits@D@std@@V?$allocator@D@2@@std@@@std@@QBE_NABV?$basic_string@DU?$char_traits@D@std@@V?$allocator@D@2@@1@0@Z 00470e40 f i json.obj
 0001:0006fe80       ??Y?$basic_string@DU?$char_traits@D@std@@V?$allocator@D@2@@std@@QAEAAV01@ABV01@@Z 00470e80 f i json.obj
 0001:0006fea0       ??Y?$basic_string@DU?$char_traits@D@std@@V?$allocator@D@2@@std@@QAEAAV01@D@Z 00470ea0 f i json.obj
 0001:0006ffc0       ?_Buy@?$vector@Vjson@@V?$allocator@Vjson@@@std@@@std@@AAE_NI@Z 00470fc0 f i json.obj
 0001:00070020       ?_Destroy@?$vector@Vjson@@V?$allocator@Vjson@@@std@@@std@@AAEXPAVjson@@0@Z 00471020 f i json.obj
 0001:00070050       ?_Destroy_if_node@?$_Tree@V?$_Tmap_traits@V?$basic_string@DU?$char_traits@D@std@@V?$allocator@D@2@@std@@Vjson@@U?$less@V?$basic_string@DU?$char_traits@D@std@@V?$allocator@D@2@@std@@@2@V?$allocator@U?$pair@$$CBV?$basic_string@DU?$char_traits@D@std@@V?$allocator@D@2@@std@@Vjson@@@std@@@2@$0A@@std@@@std@@IAEXPAU?$_Tree_node@U?$pair@$$CBV?$basic_string@DU?$char_traits@D@std@@V?$allocator@D@2@@std@@Vjson@@@std@@PAX@2@@Z 00471050 f i json.obj
 0001:00070080       ?_Extract@?$_Tree_val@U?$_Tree_simple_types@U?$pair@$$CBV?$basic_string@DU?$char_traits@D@std@@V?$allocator@D@2@@std@@Vjson@@@std@@@std@@@std@@QAEPAU?$_Tree_node@U?$pair@$$CBV?$basic_string@DU?$char_traits@D@std@@V?$allocator@D@2@@std@@Vjson@@@std@@PAX@2@V?$_Tree_const_iterator@V?$_Tree_val@U?$_Tree_simple_types@U?$pair@$$CBV?$basic_string@DU?$char_traits@D@std@@V?$allocator@D@2@@std@@Vjson@@@std@@@std@@@std@@@2@@Z 00471080 f i json.obj
 0001:000702f0       ?_Lrotate@?$_Tree_val@U?$_Tree_simple_types@U?$pair@$$CBV?$basic_string@DU?$char_traits@D@std@@V?$allocator@D@2@@std@@Vjson@@@std@@@std@@@std@@QAEXPAU?$_Tree_node@U?$pair@$$CBV?$basic_string@DU?$char_traits@D@std@@V?$allocator@D@2@@std@@Vjson@@@std@@PAX@2@@Z 004712f0 f i json.obj
 0001:00070350       ?_Rrotate@?$_Tree_val@U?$_Tree_simple_types@U?$pair@$$CBV?$basic_string@DU?$char_traits@D@std@@V?$allocator@D@2@@std@@Vjson@@@std@@@std@@@std@@QAEXPAU?$_Tree_node@U?$pair@$$CBV?$basic_string@DU?$char_traits@D@std@@V?$allocator@D@2@@std@@Vjson@@@std@@PAX@2@@Z 00471350 f i json.obj
 0001:000703b0       ?_Umove@?$vector@Vjson@@V?$allocator@Vjson@@@std@@@std@@AAEPAVjson@@PAV3@00@Z 004713b0 f i json.obj
 0001:00070420       ?_Xlength@?$vector@MV?$allocator@M@std@@@std@@CAXXZ 00471420 f i json.obj
 0001:00070430       ?allocate@?$allocator@Vjson@@@std@@QAEPAVjson@@I@Z 00471430 f i json.obj
 0001:000704a0       ?create_string@json@@SA?AV1@V?$basic_string@DU?$char_traits@D@std@@V?$allocator@D@2@@std@@@Z 004714a0 f i json.obj
 0001:00070590       ?deallocate@?$allocator@Vjson@@@std@@QAEXQAVjson@@I@Z 00471590 f i json.obj
 0001:000705d0       ?erase@?$_Tree@V?$_Tmap_traits@V?$basic_string@DU?$char_traits@D@std@@V?$allocator@D@2@@std@@Vjson@@U?$less@V?$basic_string@DU?$char_traits@D@std@@V?$allocator@D@2@@std@@@2@V?$allocator@U?$pair@$$CBV?$basic_string@DU?$char_traits@D@std@@V?$allocator@D@2@@std@@Vjson@@@std@@@2@$0A@@std@@@std@@QAE?AV?$_Tree_iterator@V?$_Tree_val@U?$_Tree_simple_types@U?$pair@$$CBV?$basic_string@DU?$char_traits@D@std@@V?$allocator@D@2@@std@@Vjson@@@std@@@std@@@std@@@2@V?$_Tree_const_iterator@V?$_Tree_val@U?$_Tree_simple_types@U?$pair@$$CBV?$basic_string@DU?$char_traits@D@std@@V?$allocator@D@2@@std@@Vjson@@@std@@@std@@@std@@@2@0@Z 004715d0 f i json.obj
 0001:000706a0       ?erase@?$vector@Vjson@@V?$allocator@Vjson@@@std@@@std@@QAE?AV?$_Vector_iterator@V?$_Vector_val@U?$_Simple_types@Vjson@@@std@@@std@@@2@V?$_Vector_const_iterator@V?$_Vector_val@U?$_Simple_types@Vjson@@@std@@@std@@@2@@Z 004716a0 f i json.obj
 0001:00070840       ?erase_array@json@@QAEXH@Z 00471840 f   json.obj
 0001:00070880       ?erase_object@json@@QAEXV?$basic_string@DU?$char_traits@D@std@@V?$allocator@D@2@@std@@@Z 00471880 f   json.obj
 0001:000709f0       ?find_array@json@@QBEABV1@H@Z 004719f0 f   json.obj
 0001:00070a40       ?find_object@json@@QBEABV1@V?$basic_string@DU?$char_traits@D@std@@V?$allocator@D@2@@std@@@Z 00471a40 f   json.obj
 0001:00070ad0       ?find_object_object@json@@QBEABV1@V?$basic_string@DU?$char_traits@D@std@@V?$allocator@D@2@@std@@0@Z 00471ad0 f   json.obj
 0001:00070bc0       ?get_object_array_U8@json@@QBE_NV?$basic_string@DU?$char_traits@D@std@@V?$allocator@D@2@@std@@AAV?$vector@EV?$allocator@E@std@@@3@@Z 00471bc0 f   json.obj
 0001:00070cf0       ?get_object_array_U8@json@@QBE_NV?$basic_string@DU?$char_traits@D@std@@V?$allocator@D@2@@std@@PAEI@Z 00471cf0 f   json.obj
 0001:00070e20       ?get_object_array_float@json@@QBE_NV?$basic_string@DU?$char_traits@D@std@@V?$allocator@D@2@@std@@AAV?$vector@MV?$allocator@M@std@@@3@@Z 00471e20 f   json.obj
 0001:00070f40       ?get_object_array_float@json@@QBE_NV?$basic_string@DU?$char_traits@D@std@@V?$allocator@D@2@@std@@PAMI@Z 00471f40 f   json.obj
 0001:00071060       ?get_object_array_int@json@@QBE_NV?$basic_string@DU?$char_traits@D@std@@V?$allocator@D@2@@std@@AAV?$vector@HV?$allocator@H@std@@@3@@Z 00472060 f   json.obj
 0001:00071190       ?get_object_array_int@json@@QBE_NV?$basic_string@DU?$char_traits@D@std@@V?$allocator@D@2@@std@@PAHI@Z 00472190 f   json.obj
 0001:000712c0       ?get_object_array_string@json@@QBE_NV?$basic_string@DU?$char_traits@D@std@@V?$allocator@D@2@@std@@AAV?$vector@V?$basic_string@DU?$char_traits@D@std@@V?$allocator@D@2@@std@@V?$allocator@V?$basic_string@DU?$char_traits@D@std@@V?$allocator@D@2@@std@@@2@@3@@Z 004722c0 f   json.obj
 0001:00071430       ?get_object_array_string@json@@QBE_NV?$basic_string@DU?$char_traits@D@std@@V?$allocator@D@2@@std@@PAV23@I@Z 00472430 f   json.obj
 0001:00071620       ?get_object_float@json@@QBE_NV?$basic_string@DU?$char_traits@D@std@@V?$allocator@D@2@@std@@AAM@Z 00472620 f   json.obj
 0001:000716c0       ?get_object_int@json@@QBE_NV?$basic_string@DU?$char_traits@D@std@@V?$allocator@D@2@@std@@AAH@Z 004726c0 f   json.obj
 0001:00071770       ?get_object_string@json@@QBE_NV?$basic_string@DU?$char_traits@D@std@@V?$allocator@D@2@@std@@AAV23@@Z 00472770 f   json.obj
 0001:00071870       ?get_rest@json@@ABE?AV?$basic_string@DU?$char_traits@D@std@@V?$allocator@D@2@@std@@XZ 00472870 f   json.obj
 0001:00071900       ?get_token@json@@ABE?AV?$basic_string@DU?$char_traits@D@std@@V?$allocator@D@2@@std@@XZ 00472900 f   json.obj
 0001:000719a0       ?insert_array@json@@QAEXV1@H@Z 004729a0 f   json.obj
 0001:00071a20       ?insert_array_U8@json@@QAEXV?$basic_string@DU?$char_traits@D@std@@V?$allocator@D@2@@std@@ABV?$vector@EV?$allocator@E@std@@@3@@Z 00472a20 f   json.obj
 0001:00071be0       ?insert_array_U8@json@@QAEXV?$basic_string@DU?$char_traits@D@std@@V?$allocator@D@2@@std@@PBEI@Z 00472be0 f   json.obj
 0001:00071d90       ?insert_array_float@json@@QAEXV?$basic_string@DU?$char_traits@D@std@@V?$allocator@D@2@@std@@ABV?$vector@MV?$allocator@M@std@@@3@@Z 00472d90 f   json.obj
 0001:00071f50       ?insert_array_float@json@@QAEXV?$basic_string@DU?$char_traits@D@std@@V?$allocator@D@2@@std@@PBMI@Z 00472f50 f   json.obj
 0001:00072110       ?insert_array_int@json@@QAEXV?$basic_string@DU?$char_traits@D@std@@V?$allocator@D@2@@std@@ABV?$vector@HV?$allocator@H@std@@@3@@Z 00473110 f   json.obj
 0001:000722d0       ?insert_array_int@json@@QAEXV?$basic_string@DU?$char_traits@D@std@@V?$allocator@D@2@@std@@PBHI@Z 004732d0 f   json.obj
 0001:00072480       ?insert_array_string@json@@QAEXV?$basic_string@DU?$char_traits@D@std@@V?$allocator@D@2@@std@@ABV?$vector@V?$basic_string@DU?$char_traits@D@std@@V?$allocator@D@2@@std@@V?$allocator@V?$basic_string@DU?$char_traits@D@std@@V?$allocator@D@2@@std@@@2@@3@@Z 00473480 f   json.obj
 0001:000726e0       ?insert_array_string@json@@QAEXV?$basic_string@DU?$char_traits@D@std@@V?$allocator@D@2@@std@@PBV23@I@Z 004736e0 f   json.obj
 0001:00072920       ?insert_float@json@@QAEXV?$basic_string@DU?$char_traits@D@std@@V?$allocator@D@2@@std@@M@Z 00473920 f   json.obj
 0001:00072a10       ?insert_int@json@@QAEXV?$basic_string@DU?$char_traits@D@std@@V?$allocator@D@2@@std@@H@Z 00473a10 f   json.obj
 0001:00072b10       ?insert_object@json@@QAEXV?$basic_string@DU?$char_traits@D@std@@V?$allocator@D@2@@std@@V1@@Z 00473b10 f   json.obj
 0001:00072bb0       ?insert_string@json@@QAEXV?$basic_string@DU?$char_traits@D@std@@V?$allocator@D@2@@std@@0@Z 00473bb0 f   json.obj
 0001:00072ca0       ?is_term@json@@CA_ND@Z     00473ca0 f   json.obj
 0001:00072ce0       ?json_test@@YAXXZ          00473ce0 f   json.obj
 0001:00073680       ?load_value@json@@AAEXPBD@Z 00474680 f   json.obj
 0001:00073950       ?parse_array@json@@AAEXXZ  00474950 f   json.obj
 0001:00073b50       ?parse_false@json@@AAEXXZ  00474b50 f   json.obj
 0001:00073bf0       ?parse_null@json@@AAEXXZ   00474bf0 f   json.obj
 0001:00073c90       ?parse_number@json@@AAEXXZ 00474c90 f   json.obj
 0001:00073d20       ?parse_object@json@@AAEXXZ 00474d20 f   json.obj
 0001:000740c0       ?parse_string@json@@AAEXXZ 004750c0 f   json.obj
 0001:00074400       ?parse_true@json@@AAEXXZ   00475400 f   json.obj
 0001:000744a0       ?save@json@@QBE?AV?$basic_string@DU?$char_traits@D@std@@V?$allocator@D@2@@std@@_N@Z 004754a0 f   json.obj
 0001:00074930       ?save@json@@QBEXPBD@Z      00475930 f   json.obj
 0001:000749c0       ?size@json@@QBEIXZ         004759c0 f   json.obj
 0001:00074a20       ?skip_whitespace@json@@ABEXXZ 00475a20 f   json.obj
 0001:00074a60       ?str_to_backslash_str@json@@ABE?AV?$basic_string@DU?$char_traits@D@std@@V?$allocator@D@2@@std@@V23@@Z 00475a60 f   json.obj
 0001:00074c20       ??$_Emplace_reallocate@ABVpointf3log@@@?$vector@Vpointf3log@@V?$allocator@Vpointf3log@@@std@@@std@@QAEPAVpointf3log@@QAV2@ABV2@@Z 00475c20 f i jsonx.obj
 0001:00074db0       ??$get_object_array_object@Vpointf3log@@Vpointf3j@@@json@@QBE_NV?$basic_string@DU?$char_traits@D@std@@V?$allocator@D@2@@std@@0AAV?$vector@Vpointf3log@@V?$allocator@Vpointf3log@@@std@@@2@@Z 00475db0 f i jsonx.obj
 0001:00074f00       ??$insert_array_object@Vpointf3log@@Vpointf3j@@@json@@QAEXV?$basic_string@DU?$char_traits@D@std@@V?$allocator@D@2@@std@@0ABV?$vector@Vpointf3log@@V?$allocator@Vpointf3log@@@std@@@2@@Z 00475f00 f i jsonx.obj
 0001:00075110       ??0modelj@@AAE@AAVjson@@@Z 00476110 f   jsonx.obj
 0001:00075190       ??0pointf3j@@QAE@ABVjson@@@Z 00476190 f   jsonx.obj
 0001:000752e0       ??0pointi2j@@QAE@AAVjson@@@Z 004762e0 f   jsonx.obj
 0001:000753a0       ??0rectf3j@@QAE@AAVjson@@@Z 004763a0 f   jsonx.obj
 0001:000756d0       ??_Gmodelj@@UAEPAXI@Z      004766d0 f i jsonx.obj
 0001:000756d0       ??_Emodelj@@UAEPAXI@Z      004766d0 f i jsonx.obj
 0001:00075700       ?_Xlength@?$vector@Vpointf3log@@V?$allocator@Vpointf3log@@@std@@@std@@CAXXZ 00476700 f i jsonx.obj
 0001:00075710       ?log@pointf3log@@QBE?AV?$basic_string@DU?$char_traits@D@std@@V?$allocator@D@2@@std@@XZ 00476710 f   jsonx.obj
 0001:00075810       ?log@pointi2log@@QBE?AV?$basic_string@DU?$char_traits@D@std@@V?$allocator@D@2@@std@@XZ 00476810 f   jsonx.obj
 0001:000758c0       ?log@rectf3@@QBE?AV?$basic_string@DU?$char_traits@D@std@@V?$allocator@D@2@@std@@XZ 004768c0 f   jsonx.obj
 0001:00075d40       ?save@pointf3j@@QBE?AVjson@@XZ 00476d40 f   jsonx.obj
 0001:00076070       ?save@pointi2j@@QAE?AVjson@@XZ 00477070 f   jsonx.obj
 0001:00076230       ?save@rectf3j@@QAE?AVjson@@XZ 00477230 f   jsonx.obj
 0001:000765c0       ?readjsontoken@@YA?AVjson@@PBDH@Z 004775c0 f   json_packet.obj
 0001:00076600       ?writejsontoken@@YAXPAUsocker@@HABVjson@@@Z 00477600 f   json_packet.obj
 0001:000766a0       ??Rplanexy_surf@@QAEXMMPAUpointf3@@0@Z 004776a0 f   modelutil.obj
 0001:000766f0       ??Rplanexz_surf@@QAEXMMPAUpointf3@@0@Z 004776f0 f   modelutil.obj
 0001:00076740       ?adjustnorm@@YA?AUpointf3@@AAU1@0@Z 00477740 f   modelutil.obj
 0001:000767b0       ?buildcylinder_xz@@YAPAVtree2@@ABUpointf3@@PAD1@Z 004777b0 f   modelutil.obj
 0001:000769f0       ?buildprism2t@@YAPAVtree2@@ABUpointf3@@PAD11@Z 004779f0 f   modelutil.obj
 0001:00076bb0       ?buildprism@@YAPAVtree2@@ABUpointf3@@PAD1@Z 00477bb0 f   modelutil.obj
 0001:00076d80       ?buildprismuvs@@YAPAVtree2@@ABUpointf3@@PAD1ABUuv@@2@Z 00477d80 f   modelutil.obj
 0001:00077110       ?buildskybox@@YAPAVtree2@@ABUpointf3@@PBD1@Z 00478110 f   modelutil.obj
 0001:000772d0       ?buildsphere@@YAPAVtree2@@MPBD0@Z 004782d0 f   modelutil.obj
 0001:000773a0       ?findanorm@@YA?AUpointf3@@AAU1@@Z 004783a0 f   modelutil.obj
 0001:000774a0       ?findnormaxis@@YA?AUpointf3@@AAU1@@Z 004784a0 f   modelutil.obj
 0001:00077540       ?hsv2rgb@@YAXHHHPAH00@Z    00478540 f   modelutil.obj
 0001:000776a0       ?rgb2hsv@@YAXHHHPAH00@Z    004786a0 f   modelutil.obj
 0001:00077760       ?sphere1_surf@@YAXMMPAUpointf3@@0@Z 00478760 f   modelutil.obj
 0001:00077870       ?supersat@@YAHHHHHPAH00@Z  00478870 f   modelutil.obj
 0001:000778e0       ??$sqrt@M@std@@YA?AV?$complex@M@0@ABV10@@Z 004788e0 f i engq:m_numath.obj
 0001:00077c20       ??_0?$complex@M@std@@QAEAAV01@ABV01@@Z 00478c20 f i engq:m_numath.obj
 0001:00077de0       ?cross2d@@YAMPBUpointf2@@0@Z 00478de0 f   engq:m_numath.obj
 0001:00077e00       ?cross3d@@YAXPBUpointf3@@0PAU1@@Z 00478e00 f   engq:m_numath.obj
 0001:00077e70       ?dcos@@YAMM@Z              00478e70 f   engq:m_numath.obj
 0001:00077eb0       ?defaultfpucontrol@@YAXXZ  00478eb0 f   engq:m_numath.obj
 0001:00077f10       ?dist2d@@YAMPBUpointf2@@0@Z 00478f10 f   engq:m_numath.obj
 0001:00077f60       ?dist2dsq@@YAMPBUpointf2@@0@Z 00478f60 f   engq:m_numath.obj
 0001:00077fa0       ?dist3d@@YAMPBUpointf3@@0@Z 00478fa0 f   engq:m_numath.obj
 0001:00078000       ?dist3dsq2@@YAMPBUpointf3@@0@Z 00479000 f   engq:m_numath.obj
 0001:00078040       ?dist3dsq@@YAMPBUpointf3@@0@Z 00479040 f   engq:m_numath.obj
 0001:00078090       ?dot2d@@YAMPBUpointf2@@0@Z 00479090 f   engq:m_numath.obj
 0001:000780d0       ?dot3d@@YAMPBUpointf3@@0@Z 004790d0 f   engq:m_numath.obj
 0001:00078120       ?dsin@@YAMM@Z              00479120 f   engq:m_numath.obj
 0001:00078160       ?gcd@@YAHHH@Z              00479160 f   engq:m_numath.obj
 0001:000781b0       ?ilog2@@YAHI@Z             004791b0 f   engq:m_numath.obj
 0001:000781d0       ?interp3d@@YAXPBUpointf3@@0MPAU1@@Z 004791d0 f   engq:m_numath.obj
 0001:00078230       ?ipow@@YAHHH@Z             00479230 f   engq:m_numath.obj
 0001:00078250       ?isequal3d@@YAHPBUpointf3@@0@Z 00479250 f   engq:m_numath.obj
 0001:00078290       ?isqrt@@YAHH@Z             00479290 f   engq:m_numath.obj
 0001:000782e0       ?iszero3d@@YAHPBUpointf3@@@Z 004792e0 f   engq:m_numath.obj
 0001:00078320       ?lcm@@YAHHH@Z              00479320 f   engq:m_numath.obj
 0001:00078380       ?len2d@@YAMPBUpointf2@@@Z  00479380 f   engq:m_numath.obj
 0001:000783c0       ?len2dsq@@YAMPBUpointf2@@@Z 004793c0 f   engq:m_numath.obj
 0001:000783f0       ?len3d@@YAMPBUpointf3@@@Z  004793f0 f   engq:m_numath.obj
 0001:00078440       ?len3dsq@@YAMPBUpointf3@@@Z 00479440 f   engq:m_numath.obj
 0001:00078480       ?modf2@@YAMMPAM@Z          00479480 f   engq:m_numath.obj
 0001:000784d0       ?my_isnan@@YA_NM@Z         004794d0 f   engq:m_numath.obj
 0001:00078500       ?mylcd@@YAHHH@Z            00479500 f   engq:m_numath.obj
 0001:00078550       ?nanerr@@YAXPBDM@Z         00479550 f   engq:m_numath.obj
 0001:00078590       ?normalangdeg@@YAMM@Z      00479590 f   engq:m_numath.obj
 0001:00078610       ?normalangrad@@YAMM@Z      00479610 f   engq:m_numath.obj
 0001:000786a0       ?normalize2d@@YAMPBUpointf2@@PAU1@@Z 004796a0 f   engq:m_numath.obj
 0001:00078770       ?normalize3d@@YAMPBUpointf3@@PAU1@@Z 00479770 f   engq:m_numath.obj
 0001:00078860       ?pow2up@@YAHH@Z            00479860 f   engq:m_numath.obj
 0001:000788a0       ?proj3d@@YAHPBUpointf3@@0PAU1@@Z 004798a0 f   engq:m_numath.obj
 0001:00078940       ?quadratic@@YAXABV?$complex@M@std@@00AAV12@1@Z 00479940 f   engq:m_numath.obj
 0001:00078b60       ?quadratic@@YA_NMMMAAM0@Z  00479b60 f   engq:m_numath.obj
 0001:00078c60       ?quadratic@@YA_NMMMAAV?$complex@M@std@@0@Z 00479c60 f   engq:m_numath.obj
 0001:00078e00       ?racos@@YAMM@Z             00479e00 f   engq:m_numath.obj
 0001:00078e80       ?rasin@@YAMM@Z             00479e80 f   engq:m_numath.obj
 0001:00078f10       ?ratan2@@YAMMM@Z           00479f10 f   engq:m_numath.obj
 0001:00078fd0       ?setfpuroundprec@@YAXII@Z  00479fd0 f   engq:m_numath.obj
 0001:00078ff0       ?snormalangdeg@@YAMM@Z     00479ff0 f   engq:m_numath.obj
 0001:00079070       ?snormalangrad@@YAMM@Z     0047a070 f   engq:m_numath.obj
 0001:00079100       ?solveLinear2@@YAXMMMMMMAAM0@Z 0047a100 f   engq:m_numath.obj
 0001:00079170       ?useLinear2@@YAXMMMMMMAAM0@Z 0047a170 f   engq:m_numath.obj
 0001:000791c0       ?normal2quat@@YAXPBUpointf3@@0PAU1@@Z 0047a1c0 f   engq:m_quat.obj
 0001:00079270       ?normal2quaty@@YAXPBUpointf3@@0PAU1@@Z 0047a270 f   engq:m_quat.obj
 0001:00079310       ?quat2rotaxis@@YAXPBUpointf3@@PAU1@@Z 0047a310 f   engq:m_quat.obj
 0001:000794c0       ?quat2rpy@@YAXPBUpointf3@@PAU1@@Z 0047a4c0 f   engq:m_quat.obj
 0001:000796f0       ?quat2xform@@YAXPBUpointf3@@PAUmat4@@@Z 0047a6f0 f   engq:m_quat.obj
 0001:00079830       ?quat2xformnotrans@@YAXPBUpointf3@@PAUmat4@@@Z 0047a830 f   engq:m_quat.obj
 0001:00079960       ?quatinterp2@@YAXPBUpointf3@@0MPAU1@@Z 0047a960 f   engq:m_quat.obj
 0001:00079bc0       ?quatinterp@@YAXPBUpointf3@@0MPAU1@@Z 0047abc0 f   engq:m_quat.obj
 0001:0007a040       ?quatinverse@@YAXPBUpointf3@@PAU1@@Z 0047b040 f   engq:m_quat.obj
 0001:0007a080       ?quatneg@@YAXPBUpointf3@@PAU1@@Z 0047b080 f   engq:m_quat.obj
 0001:0007a0d0       ?quatnormalize@@YAXPBUpointf3@@PAU1@@Z 0047b0d0 f   engq:m_quat.obj
 0001:0007a190       ?quatrot@@YAXPBUpointf3@@0PAU1@@Z 0047b190 f   engq:m_quat.obj
 0001:0007a3b0       ?quatrots@@YAXPBUpointf3@@0PAU1@I@Z 0047b3b0 f   engq:m_quat.obj
 0001:0007a5e0       ?quatscalerottrans3d@@YAXPBUpointf3@@00PAUmat4@@@Z 0047b5e0 f   engq:m_quat.obj
 0001:0007a620       ?quattimes@@YAXPBUpointf3@@0PAU1@@Z 0047b620 f   engq:m_quat.obj
 0001:0007a710       ?quattrans2xform@@YAXPBUpointf3@@0PAUmat4@@@Z 0047b710 f   engq:m_quat.obj
 0001:0007a850       ?rotaxis2quat@@YAXPAUpointf3@@0@Z 0047b850 f   engq:m_quat.obj
 0001:0007a960       ?rpy2quat@@YAXPBUpointf3@@PAU1@@Z 0047b960 f   engq:m_quat.obj
 0001:0007aba0       ??2@YAPAXI@Z               0047bba0 f   engq:m_mem.obj
 0001:0007abc0       ??3@YAXPAX@Z               0047bbc0 f   engq:m_mem.obj
 0001:0007acb0       _checkheaps                0047bcb0 f   engq:m_mem.obj
 0001:0007ad50       _memalloc                  0047bd50 f   engq:m_mem.obj
 0001:0007af80       _membytes                  0047bf80 f   engq:m_mem.obj
 0001:0007af90       _memchunks                 0047bf90 f   engq:m_mem.obj
 0001:0007afa0       _memexit                   0047bfa0 f   engq:m_mem.obj
 0001:0007b0b0       _memfree                   0047c0b0 f   engq:m_mem.obj
 0001:0007b370       _meminit                   0047c370 f   engq:m_mem.obj
 0001:0007b3a0       _memname                   0047c3a0 f   engq:m_mem.obj
 0001:0007b3c0       _memrealloc                0047c3c0 f   engq:m_mem.obj
 0001:0007b410       _memstats                  0047c410 f   engq:m_mem.obj
 0001:0007b4e0       _memzalloc                 0047c4e0 f   engq:m_mem.obj
 0001:0007b510       _popmemname                0047c510 f   engq:m_mem.obj
 0001:0007b550       _pushmemname               0047c550 f   engq:m_mem.obj
 0001:0007b5b0       _setmemverboselevel        0047c5b0 f   engq:m_mem.obj
 0001:0007b5c0       ?error@@YAXPBDZZ           0047c5c0 f   engq:m_err.obj
 0001:0007b620       ?errorexit@@YAXPBDZZ       0047c620 f   engq:m_err.obj
 0001:0007b680       _vsprintf                  0047c680 f i engq:m_err.obj
 0001:0007b6f0       ?mt_frand@@YAMXZ           0047c6f0 f   engq:m_mt_rand.obj
 0001:0007b740       ?mt_randU32@@YAIXZ         0047c740 f   engq:m_mt_rand.obj
 0001:0007b860       ?mt_random@@YAII@Z         0047c860 f   engq:m_mt_rand.obj
 0001:0007b880       ?mt_setseed@@YAXI@Z        0047c880 f   engq:m_mt_rand.obj
 0001:0007b890       ??$?8DU?$char_traits@D@std@@V?$allocator@D@1@@std@@YA_NABV?$basic_string@DU?$char_traits@D@std@@V?$allocator@D@2@@0@QBD@Z 0047c890 f i engq:d2_tree.obj
 0001:0007b920       ??$_Buynode@ABQAVtree2@@@?$_List_buy@PAVtree2@@V?$allocator@PAVtree2@@@std@@@std@@QAEPAU?$_List_node@PAVtree2@@PAX@1@PAU21@0ABQAVtree2@@@Z 0047c920 f i engq:d2_tree.obj
 0001:0007b940       ??$_Guess_median_unchecked@PAPAVtree2@@P6A_NPAV1@0@Z@std@@YAXPAPAVtree2@@00P6A_NPAV1@1@Z@Z 0047c940 f i engq:d2_tree.obj
 0001:0007bb10       ??$_Partition_by_median_guess_unchecked@PAPAVtree2@@P6A_NPAV1@0@Z@std@@YA?AU?$pair@PAPAVtree2@@PAPAV1@@0@PAPAVtree2@@0P6A_NPAV2@1@Z@Z 0047cb10 f i engq:d2_tree.obj
 0001:0007bcd0       ??$_Pop_heap_hole_by_index@PAPAVtree2@@PAV1@P6A_NPAV1@0@Z@std@@YAXPAPAVtree2@@HH$$QAPAV1@P6A_NPAV1@2@Z@Z 0047ccd0 f i engq:d2_tree.obj
 0001:0007bd80       ??$_Sort_unchecked@PAPAVtree2@@P6A_NPAV1@0@Z@std@@YAXPAPAVtree2@@0HP6A_NPAV1@1@Z@Z 0047cd80 f i engq:d2_tree.obj
 0001:0007bff0       ??0tree2@@QAE@PBD@Z        0047cff0 f   engq:d2_tree.obj
 0001:0007c300       ??1?$list@PAVtree2@@V?$allocator@PAVtree2@@@std@@@std@@QAE@XZ 0047d300 f i engq:d2_tree.obj
 0001:0007c350       ??1tree2@@UAE@XZ           0047d350 f   engq:d2_tree.obj
 0001:0007c5b0       ??_Etree2@@UAEPAXI@Z       0047d5b0 f i engq:d2_tree.obj
 0001:0007c5b0       ??_Gtree2@@UAEPAXI@Z       0047d5b0 f i engq:d2_tree.obj
 0001:0007c5e0       ?_Buynode0@?$_List_alloc@U?$_List_base_types@PAVtree2@@V?$allocator@PAVtree2@@@std@@@std@@@std@@QAEPAU?$_List_node@PAVtree2@@PAX@2@PAU32@0@Z 0047d5e0 f i engq:d2_tree.obj
 0001:0007c610       ?copyanim@tree2@@AAEXPBV1@@Z 0047d610 f   engq:d2_tree.obj
 0001:0007c770       ?deleterc@?$referencecount@Vmodelb@@@@QAEXPAVmodelb@@@Z 0047d770 f i engq:d2_tree.obj
 0001:0007c820       ?find@tree2@@QAEPAV1@PBD@Z 0047d820 f   engq:d2_tree.obj
 0001:0007c8a0       ?findmaterial@tree2@@QAEPAUmater2@@PBD@Z 0047d8a0 f   engq:d2_tree.obj
 0001:0007c990       ?findsome@tree2@@QAEPAV1@PBD@Z 0047d990 f   engq:d2_tree.obj
 0001:0007cb00       ?getlookat@@YAXPBUpointf3@@0PAU1@@Z 0047db00 f   engq:d2_tree.obj
 0001:0007cc10       ?getsuggestlightmap@@YA?AV?$basic_string@DU?$char_traits@D@std@@V?$allocator@D@2@@std@@XZ 0047dc10 f   engq:d2_tree.obj
 0001:0007cc30       ?linkchild@tree2@@QAEXPAV1@@Z 0047dc30 f   engq:d2_tree.obj
 0001:0007cd00       ?log2@tree2@@QAEXXZ        0047dd00 f   engq:d2_tree.obj
 0001:0007d060       ?newdup@tree2@@QAEPAV1@XZ  0047e060 f   engq:d2_tree.obj
 0001:0007d540       ?obj2world@@YAXPBVtree2@@PBUpointf3@@PAU2@@Z 0047e540 f   engq:d2_tree.obj
 0001:0007d570       ?obj2worldn@@YAXPBVtree2@@PBUpointf3@@PAU2@I@Z 0047e570 f   engq:d2_tree.obj
 0001:0007d5a0       ?proc@tree2@@UAEXXZ        0047e5a0 f   engq:d2_tree.obj
 0001:0007d770       ?setcastshadow@@YAXPAVtree2@@@Z 0047e770 f   engq:d2_tree.obj
 0001:0007d7b0       ?setmodel@tree2@@QAEXPAVmodelb@@@Z 0047e7b0 f   engq:d2_tree.obj
 0001:0007d7e0       ?setsuggestlightmap@@YAXV?$basic_string@DU?$char_traits@D@std@@V?$allocator@D@2@@std@@@Z 0047e7e0 f   engq:d2_tree.obj
 0001:0007d910       ?unlink@tree2@@QAEXXZ      0047e910 f   engq:d2_tree.obj
 0001:0007d970       ?video_buildtreelist@@YAXPAVtree2@@@Z 0047e970 f   engq:d2_tree.obj
 0001:0007db80       ?video_buildworldmatearly@@YAXPBVtree2@@@Z 0047eb80 f   engq:d2_tree.obj
 0001:0007dc40       ?video_buildworldmats@@YAXPAVtree2@@@Z 0047ec40 f   engq:d2_tree.obj
 0001:0007dd30       ?video_drawtreelist@@YAXXZ 0047ed30 f   engq:d2_tree.obj
 0001:0007dda0       ?video_sorttreelist@@YAXXZ 0047eda0 f   engq:d2_tree.obj
 0001:0007ddf0       ?absdir2reldir@@YA?AV?$basic_string@DU?$char_traits@D@std@@V?$allocator@D@2@@std@@V12@@Z 0047edf0 f   engq:m_dir.obj
 0001:0007dfe0       ?absdir2reldirdisplay@@YA?AV?$basic_string@DU?$char_traits@D@std@@V?$allocator@D@2@@std@@V12@@Z 0047efe0 f   engq:m_dir.obj
 0001:0007e380       ?direxit@@YAXXZ            0047f380 f   engq:m_dir.obj
 0001:0007e3a0       ?dirinit@@YAXXZ            0047f3a0 f   engq:m_dir.obj
 0001:0007e570       ?find@?$basic_string@DU?$char_traits@D@std@@V?$allocator@D@2@@std@@QBEIQBDI@Z 0047f570 f i engq:m_dir.obj
 0001:0007e680       ?getcurdir@@YAPBDXZ        0047f680 f   engq:m_dir.obj
 0001:0007e690       ?getexepath@@YAXXZ         0047f690 f   engq:m_dir.obj
 0001:0007e7d0       ?insert@?$basic_string@DU?$char_traits@D@std@@V?$allocator@D@2@@std@@QAEAAV12@IQBDI@Z 0047f7d0 f i engq:m_dir.obj
 0001:0007e9b0       ?popdir@@YAIXZ             0047f9b0 f   engq:m_dir.obj
 0001:0007e9f0       ?pushandsetdir@@YAIPBD@Z   0047f9f0 f   engq:m_dir.obj
 0001:0007ea00       ?pushandsetdirdown@@YAIPBD@Z 0047fa00 f   engq:m_dir.obj
 0001:0007ea10       ?pushandsetdirup@@YAIXZ    0047fa10 f   engq:m_dir.obj
 0001:0007eaa0       ?pushdir@@YAXXZ            0047faa0 f   engq:m_dir.obj
 0001:0007eaf0       ?reldir2absdir@@YA?AV?$basic_string@DU?$char_traits@D@std@@V?$allocator@D@2@@std@@V12@@Z 0047faf0 f   engq:m_dir.obj
 0001:0007ecc0       ?setdir@@YAIPBD@Z          0047fcc0 f   engq:m_dir.obj
 0001:0007eda0       ?setdirdown@@YAIPBD@Z      0047fda0 f   engq:m_dir.obj
 0001:0007ef60       ?setdirup@@YAIXZ           0047ff60 f   engq:m_dir.obj
 0001:0007f120       ?substr@?$basic_string@DU?$char_traits@D@std@@V?$allocator@D@2@@std@@QBE?AV12@II@Z 00480120 f i engq:m_dir.obj
 0001:0007f1a0       ?_Lock@?$basic_filebuf@DU?$char_traits@D@std@@@std@@UAEXXZ 004801a0 f i engq:m_file.obj
 0001:0007f1b0       ?_Unlock@?$basic_filebuf@DU?$char_traits@D@std@@@std@@UAEXXZ 004801b0 f i engq:m_file.obj
 0001:0007f1c0       ?overflow@?$basic_filebuf@DU?$char_traits@D@std@@@std@@MAEHH@Z 004801c0 f i engq:m_file.obj
 0001:0007f2f0       ?pbackfail@?$basic_filebuf@DU?$char_traits@D@std@@@std@@MAEHH@Z 004802f0 f i engq:m_file.obj
 0001:0007f3a0       ?underflow@?$basic_filebuf@DU?$char_traits@D@std@@@std@@MAEHXZ 004803a0 f i engq:m_file.obj
 0001:0007f3e0       ?uflow@?$basic_filebuf@DU?$char_traits@D@std@@@std@@MAEHXZ 004803e0 f i engq:m_file.obj
 0001:0007f700       ?xsgetn@?$basic_filebuf@DU?$char_traits@D@std@@@std@@MAE_JPAD_J@Z 00480700 f i engq:m_file.obj
 0001:0007f7f0       ?xsputn@?$basic_filebuf@DU?$char_traits@D@std@@@std@@MAE_JPBD_J@Z 004807f0 f i engq:m_file.obj
 0001:0007f8d0       ?seekoff@?$basic_filebuf@DU?$char_traits@D@std@@@std@@MAE?AV?$fpos@U_Mbstatet@@@2@_JHH@Z 004808d0 f i engq:m_file.obj
 0001:0007f9b0       ?seekpos@?$basic_filebuf@DU?$char_traits@D@std@@@std@@MAE?AV?$fpos@U_Mbstatet@@@2@V32@H@Z 004809b0 f i engq:m_file.obj
 0001:0007fa80       ?setbuf@?$basic_filebuf@DU?$char_traits@D@std@@@std@@MAEPAV?$basic_streambuf@DU?$char_traits@D@std@@@2@PAD_J@Z 00480a80 f i engq:m_file.obj
 0001:0007fad0       ?sync@?$basic_filebuf@DU?$char_traits@D@std@@@std@@MAEHXZ 00480ad0 f i engq:m_file.obj
 0001:0007fb00       ?imbue@?$basic_filebuf@DU?$char_traits@D@std@@@std@@MAEXABVlocale@2@@Z 00480b00 f i engq:m_file.obj
 0001:0007fb40       ??_E?$basic_filebuf@DU?$char_traits@D@std@@@std@@UAEPAXI@Z 00480b40 f i engq:m_file.obj
 0001:0007fb40       ??_G?$basic_filebuf@DU?$char_traits@D@std@@@std@@UAEPAXI@Z 00480b40 f i engq:m_file.obj
 0001:0007fb63       ??_E?$basic_fstream@DU?$char_traits@D@std@@@std@@$4PPPPPPPM@A@AEPAXI@Z 00480b63 f i engq:m_file.obj
 0001:0007fb70       ??$_Fputc@D@std@@YA_NDPAU_iobuf@@@Z 00480b70 f i engq:m_file.obj
 0001:0007fb90       ??$endl@DU?$char_traits@D@std@@@std@@YAAAV?$basic_ostream@DU?$char_traits@D@std@@@0@AAV10@@Z 00480b90 f i engq:m_file.obj
 0001:0007fc40       ??$use_facet@V?$codecvt@DDU_Mbstatet@@@std@@@std@@YAABV?$codecvt@DDU_Mbstatet@@@0@ABVlocale@0@@Z 00480c40 f i engq:m_file.obj
 0001:0007fd90       ??0?$basic_fstream@DU?$char_traits@D@std@@@std@@QAE@XZ 00480d90 f i engq:m_file.obj
 0001:0007ff80       ??1?$basic_filebuf@DU?$char_traits@D@std@@@std@@UAE@XZ 00480f80 f i engq:m_file.obj
 0001:00080020       ??1?$basic_fstream@DU?$char_traits@D@std@@@std@@UAE@XZ 00481020 f i engq:m_file.obj
 0001:000800a0       ??1?$codecvt@DDU_Mbstatet@@@std@@MAE@XZ 004810a0 f i engq:m_file.obj
 0001:000800b0       ??_D?$basic_fstream@DU?$char_traits@D@std@@@std@@QAEXXZ 004810b0 f i engq:m_file.obj
 0001:00080170       ??_G?$basic_fstream@DU?$char_traits@D@std@@@std@@UAEPAXI@Z 00481170 f i engq:m_file.obj
 0001:00080170       ??_E?$basic_fstream@DU?$char_traits@D@std@@@std@@UAEPAXI@Z 00481170 f i engq:m_file.obj
 0001:000801a0       ??_G?$codecvt@DDU_Mbstatet@@@std@@MAEPAXI@Z 004811a0 f i engq:m_file.obj
 0001:000801a0       ??_E?$codecvt@DDU_Mbstatet@@@std@@MAEPAXI@Z 004811a0 f i engq:m_file.obj
 0001:000801d0       ??_Ecodecvt_base@std@@UAEPAXI@Z 004811d0 f i engq:m_file.obj
 0001:000801d0       ??_Gcodecvt_base@std@@UAEPAXI@Z 004811d0 f i engq:m_file.obj
 0001:00080200       ?_Endwrite@?$basic_filebuf@DU?$char_traits@D@std@@@std@@IAE_NXZ 00481200 f i engq:m_file.obj
 0001:00080290       ?_Init@?$basic_filebuf@DU?$char_traits@D@std@@@std@@IAEXPAU_iobuf@@W4_Initfl@12@@Z 00481290 f i engq:m_file.obj
 0001:00080370       ?_Init@?$basic_streambuf@DU?$char_traits@D@std@@@std@@IAEXXZ 00481370 f i engq:m_file.obj
 0001:000803d0       ?_Reset_back@?$basic_filebuf@DU?$char_traits@D@std@@@std@@AAEXXZ 004813d0 f i engq:m_file.obj
 0001:00080400       ?close@?$basic_filebuf@DU?$char_traits@D@std@@@std@@QAEPAV12@XZ 00481400 f i engq:m_file.obj
 0001:000804c0       ?do_always_noconv@?$codecvt@DDU_Mbstatet@@@std@@MBE_NXZ 004814c0 f i engq:m_file.obj
 0001:000804d0       ?do_always_noconv@codecvt_base@std@@MBE_NXZ 004814d0 f i engq:m_file.obj
 0001:000804e0       ?do_encoding@codecvt_base@std@@MBEHXZ 004814e0 f i engq:m_file.obj
 0001:000804f0       ?do_in@?$codecvt@DDU_Mbstatet@@@std@@MBEHAAU_Mbstatet@@PBD1AAPBDPAD3AAPAD@Z 004814f0 f i engq:m_file.obj
 0001:00080510       ?do_length@?$codecvt@DDU_Mbstatet@@@std@@MBEHAAU_Mbstatet@@PBD1I@Z 00481510 f i engq:m_file.obj
 0001:00080530       ?do_max_length@codecvt_base@std@@MBEHXZ 00481530 f i engq:m_file.obj
 0001:00080540       ?do_out@?$codecvt@DDU_Mbstatet@@@std@@MBEHAAU_Mbstatet@@PBD1AAPBDPAD3AAPAD@Z 00481540 f i engq:m_file.obj
 0001:00080560       ?do_unshift@?$codecvt@DDU_Mbstatet@@@std@@MBEHAAU_Mbstatet@@PAD1AAPAD@Z 00481560 f i engq:m_file.obj
 0001:00080580       ?fileexist@@YAHPBD@Z       00481580 f   engq:m_file.obj
 0001:00080630       ?fileload@@YAPADPBDH@Z     00481630 f   engq:m_file.obj
 0001:000806c0       ?fileload_bin@@YA?AV?$vector@EV?$allocator@E@std@@@std@@PBD@Z 004816c0 f   engq:m_file.obj
 0001:000807a0       ?fileload_string@@YA?AV?$basic_string@DU?$char_traits@D@std@@V?$allocator@D@2@@std@@PBD@Z 004817a0 f   engq:m_file.obj
 0001:000808e0       ?fileread@@YAIPAU_iobuf@@PAXI@Z 004818e0 f   engq:m_file.obj
 0001:00080900       ?filereadU16BE@@YAIPAU_iobuf@@@Z 00481900 f   engq:m_file.obj
 0001:00080960       ?filereadU16LE@@YAIPAU_iobuf@@@Z 00481960 f   engq:m_file.obj
 0001:000809c0       ?filereadU32BE@@YAIPAU_iobuf@@@Z 004819c0 f   engq:m_file.obj
 0001:00080a70       ?filereadU32LE@@YAIPAU_iobuf@@@Z 00481a70 f   engq:m_file.obj
 0001:00080b20       ?filereadU8@@YAIPAU_iobuf@@@Z 00481b20 f   engq:m_file.obj
 0001:00080b50       ?filesave@@YAXPBD0@Z       00481b50 f   engq:m_file.obj
 0001:00080ba0       ?filesave_bin@@YA_NPBDABV?$vector@EV?$allocator@E@std@@@std@@@Z 00481ba0 f   engq:m_file.obj
 0001:00080bf0       ?filesave_string@@YAXPBDV?$basic_string@DU?$char_traits@D@std@@V?$allocator@D@2@@std@@@Z 00481bf0 f   engq:m_file.obj
 0001:00080c90       ?filewrite@@YAXPAU_iobuf@@PBXI@Z 00481c90 f   engq:m_file.obj
 0001:00080cb0       ?filewriteU16BE@@YAXPAU_iobuf@@I@Z 00481cb0 f   engq:m_file.obj
 0001:00080cf0       ?filewriteU16LE@@YAXPAU_iobuf@@I@Z 00481cf0 f   engq:m_file.obj
 0001:00080d30       ?filewriteU32BE@@YAXPAU_iobuf@@I@Z 00481d30 f   engq:m_file.obj
 0001:00080da0       ?filewriteU32LE@@YAXPAU_iobuf@@I@Z 00481da0 f   engq:m_file.obj
 0001:00080e10       ?filewriteU8@@YAXPAU_iobuf@@I@Z 00481e10 f   engq:m_file.obj
 0001:00080e30       ?flush@?$basic_ostream@DU?$char_traits@D@std@@@std@@QAEAAV12@XZ 00481e30 f i engq:m_file.obj
 0001:00080f30       ?fopen2@@YAPAU_iobuf@@PBD0@Z 00481f30 f   engq:m_file.obj
 0001:00081000       ?getcoutname@@YAPBDXZ      00482000 f   engq:m_file.obj
 0001:00081020       ?getfilesize@@YAIPAU_iobuf@@@Z 00482020 f   engq:m_file.obj
 0001:00081060       ?getloggername@@YAPBDXZ    00482060 f   engq:m_file.obj
 0001:00081080       ?isfileext@@YA_NPBD0@Z     00482080 f   engq:m_file.obj
 0001:000811a0       ?logger@@YAXPBDZZ          004821a0 f   engq:m_file.obj
 0001:00081220       ?logger_disableindent@@YAXXZ 00482220 f   engq:m_file.obj
 0001:00081240       ?logger_enableindent@@YAXXZ 00482240 f   engq:m_file.obj
 0001:00081250       ?logger_indent@@YAXXZ      00482250 f   engq:m_file.obj
 0001:00081260       ?logger_unindent@@YAXXZ    00482260 f   engq:m_file.obj
 0001:00081280       ?loggerclose@@YAXXZ        00482280 f   engq:m_file.obj
 0001:000812a0       ?loggerexit@@YAXXZ         004822a0 f   engq:m_file.obj
 0001:00081400       ?loggerinit@@YAXXZ         00482400 f   engq:m_file.obj
 0001:00081620       ?loggervs@@YAXPBDPAD@Z     00482620 f   engq:m_file.obj
 0001:00081660       ?mbuildfilename@@YAXPBD00PAD@Z 00482660 f   engq:m_file.obj
 0001:00081710       ?mbuildfilenameext@@YAXPBD0PAD@Z 00482710 f   engq:m_file.obj
 0001:00081780       ?mgetext@@YAIPBDPADH@Z     00482780 f   engq:m_file.obj
 0001:00081840       ?mgetname@@YAIPBDPAD@Z     00482840 f   engq:m_file.obj
 0001:00081960       ?mgetnameext@@YAIPBDPAD@Z  00482960 f   engq:m_file.obj
 0001:000819f0       ?mgetpath@@YAIPBDPAD@Z     004829f0 f   engq:m_file.obj
 0001:00081af0       ?my_itoa@@YAPADHPADH@Z     00482af0 f   engq:m_file.obj
 0001:00081b20       ?my_stricmp@@YAHPBD0@Z     00482b20 f   engq:m_file.obj
 0001:00081ba0       ?my_strlwr@@YAXPAD@Z       00482ba0 f   engq:m_file.obj
 0001:00081bd0       ?my_strnicmp@@YAHPBD0H@Z   00482bd0 f   engq:m_file.obj
 0001:00081c60       ?my_strupr@@YAXPAD@Z       00482c60 f   engq:m_file.obj
 0001:00081c90       ?mystrncpy@@YAXPADPBDH@Z   00482c90 f   engq:m_file.obj
 0001:00081cd0       ?open@?$basic_fstream@DU?$char_traits@D@std@@@std@@QAEXPBDHH@Z 00482cd0 f i engq:m_file.obj
 0001:00081e60       ?put@?$basic_ostream@DU?$char_traits@D@std@@@std@@QAEAAV12@D@Z 00482e60 f i engq:m_file.obj
 0001:00082020       ?unique@@YAPBDXZ           00483020 f   engq:m_file.obj
 0001:00082050       _snprintf                  00483050 f i engq:m_file.obj
 0001:00082090       ??$?HDU?$char_traits@D@std@@V?$allocator@D@1@@std@@YA?AV?$basic_string@DU?$char_traits@D@std@@V?$allocator@D@2@@0@$$QAV10@QBD@Z 00483090 f i engq:m_script.obj
 0001:000820f0       ??$_Emplace_reallocate@ABQAVscript@@@?$vector@PAVscript@@V?$allocator@PAVscript@@@std@@@std@@QAEPAPAVscript@@QAPAV2@ABQAV2@@Z 004830f0 f i engq:m_script.obj
 0001:00082250       ??$_Insertion_sort_unchecked@PAV?$basic_string@DU?$char_traits@D@std@@V?$allocator@D@2@@std@@P6A_NV12@0@Z@std@@YAPAV?$basic_string@DU?$char_traits@D@std@@V?$allocator@D@2@@0@PAV10@QAV10@P6A_NV10@2@Z@Z 00483250 f i engq:m_script.obj
 0001:00082830       ??$_Med3_unchecked@PAV?$basic_string@DU?$char_traits@D@std@@V?$allocator@D@2@@std@@P6A_NV12@0@Z@std@@YAXPAV?$basic_string@DU?$char_traits@D@std@@V?$allocator@D@2@@0@00P6A_NV10@1@Z@Z 00483830 f i engq:m_script.obj
 0001:00082960       ??$_Partition_by_median_guess_unchecked@PAV?$basic_string@DU?$char_traits@D@std@@V?$allocator@D@2@@std@@P6A_NV12@0@Z@std@@YA?AU?$pair@PAV?$basic_string@DU?$char_traits@D@std@@V?$allocator@D@2@@std@@PAV12@@0@PAV?$basic_string@DU?$char_traits@D@std@@V?$allocator@D@2@@0@0P6A_NV20@1@Z@Z 00483960 f i engq:m_script.obj
 0001:000839b0       ??$_Pop_heap_hole_by_index@PAV?$basic_string@DU?$char_traits@D@std@@V?$allocator@D@2@@std@@V12@P6A_NV12@0@Z@std@@YAXPAV?$basic_string@DU?$char_traits@D@std@@V?$allocator@D@2@@0@HH$$QAV10@P6A_NV10@2@Z@Z 004849b0 f i engq:m_script.obj
 0001:00083cc0       ??$_Push_heap_by_index@PAV?$basic_string@DU?$char_traits@D@std@@V?$allocator@D@2@@std@@V12@P6A_NV12@0@Z@std@@YAXPAV?$basic_string@DU?$char_traits@D@std@@V?$allocator@D@2@@0@HH$$QAV10@P6A_NV10@2@Z@Z 00484cc0 f i engq:m_script.obj
 0001:00083fc0       ??$_Sort_heap_unchecked@PAV?$basic_string@DU?$char_traits@D@std@@V?$allocator@D@2@@std@@P6A_NV12@0@Z@std@@YAXPAV?$basic_string@DU?$char_traits@D@std@@V?$allocator@D@2@@0@0P6A_NV10@1@Z@Z 00484fc0 f i engq:m_script.obj
 0001:00084140       ??$_Sort_unchecked@PAV?$basic_string@DU?$char_traits@D@std@@V?$allocator@D@2@@std@@P6A_NV12@0@Z@std@@YAXPAV?$basic_string@DU?$char_traits@D@std@@V?$allocator@D@2@@0@0HP6A_NV10@1@Z@Z 00485140 f i engq:m_script.obj
 0001:00084330       ??0script@@QAE@PBD_N@Z     00485330 f   engq:m_script.obj
 0001:00084890       ??0scriptdir@@QAE@H@Z      00485890 f   engq:m_script.obj
 0001:000849d0       ??0scriptinc@@QAE@PBD0@Z   004859d0 f   engq:m_script.obj
 0001:00085470       ??1?$vector@PAVscript@@V?$allocator@PAVscript@@@std@@@std@@QAE@XZ 00486470 f i engq:m_script.obj
 0001:000854d0       ?_Xlength@?$vector@PAVscript@@V?$allocator@PAVscript@@@std@@@std@@CAXXZ 004864d0 f i engq:m_script.obj
 0001:000854e0       ?addscript@script@@QAEXPBD@Z 004864e0 f i engq:m_script.obj
 0001:000855c0       ?clear@?$basic_string@DU?$char_traits@D@std@@V?$allocator@D@2@@std@@QAEXXZ 004865c0 f i engq:m_script.obj
 0001:000855e0       ?deallocate@?$allocator@PAVscript@@@std@@QAEXQAPAVscript@@I@Z 004865e0 f i engq:m_script.obj
 0001:00085620       ?getchartype@script@@IAE?AW4chartype@1@D@Z 00486620 f   engq:m_script.obj
 0001:000856b0       ?script2printc@@YA?AV?$basic_string@DU?$char_traits@D@std@@V?$allocator@D@2@@std@@V12@@Z 004866b0 f   engq:m_script.obj
 0001:000859a0       ?sort@script@@QAEXXZ       004869a0 f   engq:m_script.obj
 0001:000859d0       ?changestate@@YAXH@Z       004869d0 f   engq:m_state.obj
 0001:000859f0       ?poporchangestate@@YAXH@Z  004869f0 f   engq:m_state.obj
 0001:00085a30       ?popstate@@YAXXZ           00486a30 f   engq:m_state.obj
 0001:00085a70       ?pushchangestate@@YAXH@Z   00486a70 f   engq:m_state.obj
 0001:00085ac0       ?statedraw2d@@YAXXZ        00486ac0 f   engq:m_state.obj
 0001:00085af0       ?statedraw3d@@YAXXZ        00486af0 f   engq:m_state.obj
 0001:00085b20       ?statehasdraw2d@@YA_NXZ    00486b20 f   engq:m_state.obj
 0001:00085b50       ?statehasdraw3d@@YA_NXZ    00486b50 f   engq:m_state.obj
 0001:00085b80       ?stateproc@@YA_NXZ         00486b80 f   engq:m_state.obj
 0001:00085cb0       ??$fill@PAIH@std@@YAXPAI0ABH@Z 00486cb0 f i engq:m_wh.obj
 0001:00085d30       ??0runavg@@QAE@I@Z         00486d30 f   engq:m_wh.obj
 0001:00085d90       ??1runavg@@QAE@XZ          00486d90 f   engq:m_wh.obj
 0001:00085da0       ?argcvexit@@YAXXZ          00486da0 f   engq:m_wh.obj
 0001:00085e10       ?avgfree@@YAXXZ            00486e10 f   engq:m_wh.obj
 0001:00085e70       ?avginit@@YAXXZ            00486e70 f   engq:m_wh.obj
 0001:00086000       ?avgreset@@YAXXZ           00487000 f   engq:m_wh.obj
 0001:000860a0       ?checkmessages@@YAXXZ      004870a0 f   engq:m_wh.obj
 0001:00086380       ?reset@runavg@@QAEXXZ      00487380 f   engq:m_wh.obj
 0001:000863c0       ?run@runavg@@QAEII@Z       004873c0 f   engq:m_wh.obj
 0001:00086410       ?setusermessage@@YAXIP6AXIIH@Z@Z 00487410 f   engq:m_wh.obj
 0001:00086450       ?showcursor@@YAXH@Z        00487450 f   engq:m_wh.obj
 0001:00086460       ?useoscursor@@YAXH@Z       00487460 f   engq:m_wh.obj
 0001:00086470       ?waitframe@@YAXXZ          00487470 f   engq:m_wh.obj
 0001:00086790       ?winexit@@YAXXZ            00487790 f   engq:m_wh.obj
 0001:000867a0       ?wininit@@YAIXZ            004877a0 f   engq:m_wh.obj
 0001:00086b70       ?winproc@@YAXXZ            00487b70 f   engq:m_wh.obj
 0001:00086d80       ??$_Destroy_range@V?$allocator@Udebinfo@@@std@@@std@@YAXPAUdebinfo@@0AAV?$allocator@Udebinfo@@@0@@Z 00487d80 f i engq:m_debp.obj
 0001:00086df0       ??$_Emplace_reallocate@ABUdebinfo@@@?$vector@Udebinfo@@V?$allocator@Udebinfo@@@std@@@std@@QAEPAUdebinfo@@QAU2@ABU2@@Z 00487df0 f i engq:m_debp.obj
 0001:00087010       ??$_Traits_equal@U?$char_traits@D@std@@@std@@YA_NQBDI0I@Z 00488010 f i engq:m_debp.obj
 0001:00087080       ??$_Uninitialized_move@PAUdebinfo@@PAU1@V?$allocator@Udebinfo@@@std@@@std@@YAPAUdebinfo@@QAU1@0PAU1@AAV?$allocator@Udebinfo@@@0@@Z 00488080 f i engq:m_debp.obj
 0001:00087110       ??1debinfo@@QAE@XZ         00488110 f i engq:m_debp.obj
 0001:00087160       ?_Destroy@?$vector@Udebinfo@@V?$allocator@Udebinfo@@@std@@@std@@AAEXPAUdebinfo@@0@Z 00488160 f i engq:m_debp.obj
 0001:00087180       ?_Xlength@?$vector@Udebinfo@@V?$allocator@Udebinfo@@@std@@@std@@CAXXZ 00488180 f i engq:m_debp.obj
 0001:00087190       ?adddebvars@@YAXV?$basic_string@DU?$char_traits@D@std@@V?$allocator@D@2@@std@@PAUmenuvar@@H_N@Z 00488190 f   engq:m_debp.obj
 0001:00087390       ?deallocate@?$allocator@Udebinfo@@@std@@QAEXQAUdebinfo@@I@Z 00488390 f i engq:m_debp.obj
 0001:000873d0       ?debp_exit@@YAXXZ          004883d0 f   engq:m_debp.obj
 0001:00087440       ?debp_init@@YAXXZ          00488440 f   engq:m_debp.obj
 0001:000874c0       ?debprocesskey@@YAXXZ      004884c0 f   engq:m_debp.obj
 0001:000877b0       ?doscriptline@@YAXV?$basic_string@DU?$char_traits@D@std@@V?$allocator@D@2@@std@@0@Z 004887b0 f   engq:m_debp.obj
 0001:00087b30       ?drawdebline@@YAXPBUmenuvar@@HHAAUpointf3@@@Z 00488b30 f   engq:m_debp.obj
 0001:00087ea0       ?drawdebprint@@YAXXZ       00488ea0 f   engq:m_debp.obj
 0001:00088020       ?extradebvars@@YAXPAUmenuvar@@H@Z 00489020 f   engq:m_debp.obj
 0001:00088150       ?loadconfigfile@@YAXPBDPAUmenuvar@@H@Z 00489150 f   engq:m_debp.obj
 0001:00088370       ?loadconfigscript@@YAXABVscript@@PAUmenuvar@@H@Z 00489370 f   engq:m_debp.obj
 0001:000886b0       ?removedebvars@@YAXV?$basic_string@DU?$char_traits@D@std@@V?$allocator@D@2@@std@@@Z 004896b0 f   engq:m_debp.obj
 0001:00088930       ?changeglobalxyres@@YAIH@Z 00489930 f   engq:m_device.obj
 0001:00088970       ?load_device@@YAXXZ        00489970 f   engq:m_device.obj
 0001:00088c60       ?save_device@@YAXXZ        00489c60 f   engq:m_device.obj
 0001:00088d40       ?set_device@@YAXXZ         00489d40 f   engq:m_device.obj
 0001:00088d80       ?setglobalxyres@@YAIH@Z    00489d80 f   engq:m_device.obj
 0001:00088db0       ?doflycam@@YAXPAUviewport2@@@Z 00489db0 f   engq:d2_viewport.obj
 0001:00089210       ?calcviewportmats@@YAXPAUviewport2@@_N@Z 0048a210 f   engq:d2_vid3d.obj
 0001:00089470       ?d2_3d_init@@YAXXZ         0048a470 f   engq:d2_vid3d.obj
 0001:00089520       ?d2_3d_uninit@@YAXXZ       0048a520 f   engq:d2_vid3d.obj
 0001:000896a0       ?free_envv2tex@@YAXXZ      0048a6a0 f   engq:d2_vid3d.obj
 0001:000896c0       ?get_envv2tex@@YAPAVtextureb@@XZ 0048a6c0 f   engq:d2_vid3d.obj
 0001:000896d0       ?logrc@@YAXXZ              0048a6d0 f   engq:d2_vid3d.obj
 0001:00089800       ?make_envv2tex@@YAXPBD@Z   0048a800 f   engq:d2_vid3d.obj
 0001:00089860       ?model_create@@YAPAVmodelb@@PBD@Z 0048a860 f   engq:d2_vid3d.obj
 0001:00089890       ?model_getrc@@YAHPAVmodelb@@@Z 0048a890 f   engq:d2_vid3d.obj
 0001:000898b0       ?texture_create@@YAPAVtextureb@@PBD@Z 0048a8b0 f   engq:d2_vid3d.obj
 0001:00089910       ?texture_getrc@@YAHPAVtextureb@@@Z 0048a910 f   engq:d2_vid3d.obj
 0001:00089930       ?video_beginscene@@YAXXZ   0048a930 f   engq:d2_vid3d.obj
 0001:00089950       ?video_drawscene@@YAXPAVtree2@@@Z 0048a950 f   engq:d2_vid3d.obj
 0001:00089980       ?video_endscene@@YAX_N@Z   0048a980 f   engq:d2_vid3d.obj
 0001:000899a0       ?video_rendertargetmain@@YAXXZ 0048a9a0 f   engq:d2_vid3d.obj
 0001:000899c0       ?video_rendertargetshadowmap@@YA_NXZ 0048a9c0 f   engq:d2_vid3d.obj
 0001:000899e0       ?video_setviewport@@YAXPAUviewport2@@@Z 0048a9e0 f   engq:d2_vid3d.obj
 0001:00089c70       ?addlighttolist@@YAXPAVtree2@@@Z 0048ac70 f   engq:d2_light.obj
 0001:00089d60       ?dolights@@YAXXZ           0048ad60 f   engq:d2_light.obj
 0001:00089f50       ?removelightfromlist@@YAXPAVtree2@@@Z 0048af50 f   engq:d2_light.obj
 0001:00089fb0       ?video_sprite_begin@@YAXIIIUC32@@@Z 0048afb0 f   engq:d2_sprite.obj
 0001:0008a430       ?video_sprite_draw@@YAXPAVtextureb@@ABUpointf3@@MMMMMMMMMMM@Z 0048b430 f   engq:d2_sprite.obj
 0001:0008a760       ?video_sprite_end@@YAXXZ   0048b760 f   engq:d2_sprite.obj
 0001:0008a870       ?video_sprite_setaddmode@@YAX_N@Z 0048b870 f   engq:d2_sprite.obj
 0001:0008a880       ?video_tri_draw@@YAXPAVtextureb@@ABUpointf3@@PBUpointf2@@PBUuv@@@Z 0048b880 f   engq:d2_sprite.obj
 0001:0008a990       ?figureoutwindowpos@@YAXH@Z 0048b990 f   engq:m_vid.obj
 0001:0008a9f0       ?figureoutwindowposxywh@@YAXHPAH000@Z 0048b9f0 f   engq:m_vid.obj
 0001:0008ab80       ?video_getnmaindrivers@@YAPAVscript@@XZ 0048bb80 f   engq:m_vid.obj
 0001:0008acb0       ?video_getnsubdrivers@@YAPAVscript@@H@Z 0048bcb0 f   engq:m_vid.obj
 0001:0008adc0       ?video_init@@YAXHH@Z       0048bdc0 f   engq:m_vid.obj
 0001:0008b020       ?video_lock@@YAXXZ         0048c020 f   engq:m_vid.obj
 0001:0008b050       ?video_paintwindow@@YAXI@Z 0048c050 f   engq:m_vid.obj
 0001:0008b0c0       ?video_reload_mat2shader@@YAXPBD@Z 0048c0c0 f   engq:m_vid.obj
 0001:0008b1e0       ?video_setupwindow@@YAXHH@Z 0048c1e0 f   engq:m_vid.obj
 0001:0008b5b0       ?video_uninit@@YAXXZ       0048c5b0 f   engq:m_vid.obj
 0001:0008b690       ?video_unlock@@YAXXZ       0048c690 f   engq:m_vid.obj
 0001:0008c480       ?ds_ndrv@@YAPAVscript@@XZ  0048d480 f   engq:m_audio.obj
 0001:0008c500       ?ds_mic_ndrv@@YAPAVscript@@XZ 0048d500 f   engq:m_audio.obj
 0001:0008c580       ?ds_fifo_playvol@@YAPAUsoundhandle@@HHHP6AXPAEH@ZM@Z 0048d580 f   engq:m_audio.obj
 0001:0008d250       ?wp_ndrv@@YAPAVscript@@XZ  0048e250 f   engq:m_audio.obj
 0001:0008d2c0       ?wp_mic_ndrv@@YAPAVscript@@XZ 0048e2c0 f   engq:m_audio.obj
 0001:0008d400       ?wp_fifo_playvol@@YAPAUsoundhandle@@HHHP6AXPAEH@ZM@Z 0048e400 f   engq:m_audio.obj
 0001:0008db20       ?audio_babysit@@YAXXZ      0048eb20 f   engq:m_audio.obj
 0001:0008db40       ?audio_getnmaindrivers@@YAPAVscript@@XZ 0048eb40 f   engq:m_audio.obj
 0001:0008dbc0       ?audio_getnsubdrivers@@YAPAVscript@@H@Z 0048ebc0 f   engq:m_audio.obj
 0001:0008dd10       ?audio_init@@YAXHHH@Z      0048ed10 f   engq:m_audio.obj
 0001:0008de10       ?audio_uninit@@YAXXZ       0048ee10 f   engq:m_audio.obj
 0001:0008e090       ?fifo_play@@YAPAUsoundhandle@@HHHP6AXPAEH@Z@Z 0048f090 f   engq:m_audio.obj
 0001:0008e0d0       ?fifo_playvol@@YAPAUsoundhandle@@HHHP6AXPAEH@ZM@Z 0048f0d0 f   engq:m_audio.obj
 0001:0008e110       ?getsfxfreq@@YAMPAUsoundhandle@@@Z 0048f110 f   engq:m_audio.obj
 0001:0008e130       ?getsfxpan@@YAMPAUsoundhandle@@@Z 0048f130 f   engq:m_audio.obj
 0001:0008e150       ?getsfxvolume@@YAMPAUsoundhandle@@@Z 0048f150 f   engq:m_audio.obj
 0001:0008e6d0       ?mic_free@@YAXXZ           0048f6d0 f   engq:m_audio.obj
 0001:0008e6f0       ?mic_getnsubdrivers@@YAPAVscript@@H@Z 0048f6f0 f   engq:m_audio.obj
 0001:0008e840       ?mic_getvol@@YAMXZ         0048f840 f   engq:m_audio.obj
 0001:0008e860       ?mic_record@@YAXHHHP6AXPADH@ZM@Z 0048f860 f   engq:m_audio.obj
 0001:0008e8a0       ?mic_setvol@@YAXM@Z        0048f8a0 f   engq:m_audio.obj
 0001:0008e970       ?playasound@@YAXPAUwavehandle@@@Z 0048f970 f   engq:m_audio.obj
 0001:0008e9a0       ?playasoundvol@@YAXPAUwavehandle@@M@Z 0048f9a0 f   engq:m_audio.obj
 0001:0008e9d0       ?setfifosec@@YAXHH@Z       0048f9d0 f   engq:m_audio.obj
 0001:0008e9f0       ?setmicsec@@YAXHH@Z        0048f9f0 f   engq:m_audio.obj
 0001:0008ea10       ?setsfxfreq@@YAXPAUsoundhandle@@M@Z 0048fa10 f   engq:m_audio.obj
 0001:0008ea40       ?setsfxpan@@YAXPAUsoundhandle@@M@Z 0048fa40 f   engq:m_audio.obj
 0001:0008ea70       ?setsfxvolume@@YAXPAUsoundhandle@@M@Z 0048fa70 f   engq:m_audio.obj
 0001:0008eaa0       ?setstreamsec@@YAXH@Z      0048faa0 f   engq:m_audio.obj
 0001:0008eab0       ?sound_free@@YAXPAUsoundhandle@@@Z 0048fab0 f   engq:m_audio.obj
 0001:0008ead0       ?sound_pause@@YAXXZ        0048fad0 f   engq:m_audio.obj
 0001:0008eaf0       ?sound_resume@@YAXXZ       0048faf0 f   engq:m_audio.obj
 0001:0008eb10       ?sound_status@@YAHPAUsoundhandle@@@Z 0048fb10 f   engq:m_audio.obj
 0001:0008eb30       ?wave_build@@YAPAUwavehandle@@PBDHHHH@Z 0048fb30 f   engq:m_audio.obj
 0001:0008eb90       ?wave_load@@YAPAUwavehandle@@PBDH@Z 0048fb90 f   engq:m_audio.obj
 0001:0008ebb0       ?wave_play@@YAPAUsoundhandle@@PAUwavehandle@@H@Z 0048fbb0 f   engq:m_audio.obj
 0001:0008ebf0       ?wave_playvol@@YAPAUsoundhandle@@PAUwavehandle@@HM@Z 0048fbf0 f   engq:m_audio.obj
 0001:0008ec30       ?wave_unload@@YAXPAUwavehandle@@@Z 0048fc30 f   engq:m_audio.obj
 0001:0008eda0       ??$_Buynode@ABUfntque@@@?$_List_buy@Ufntque@@V?$allocator@Ufntque@@@std@@@std@@QAEPAU?$_List_node@Ufntque@@PAX@1@PAU21@0ABUfntque@@@Z 0048fda0 f i engq:d2_font.obj
 0001:0008ee40       ??0fntque@@QAE@PAVsoftfont@@HHABUpointf3@@1PBD@Z 0048fe40 f i engq:d2_font.obj
 0001:0008eee0       ??0fntque@@QAE@PAVsoftfont@@HHABUpointf3@@PBD@Z 0048fee0 f i engq:d2_font.obj
 0001:0008ef70       ??1fntque@@QAE@XZ          0048ff70 f i engq:d2_font.obj
 0001:0008efc0       ?_Buynode0@?$_List_alloc@U?$_List_base_types@Ufntque@@V?$allocator@Ufntque@@@std@@@std@@@std@@QAEPAU?$_List_node@Ufntque@@PAX@2@PAU32@0@Z 0048ffc0 f i engq:d2_font.obj
 0001:0008eff0       ?deallocate@?$allocator@U?$_List_node@Ufntque@@PAX@std@@@std@@QAEXQAU?$_List_node@Ufntque@@PAX@2@I@Z 0048fff0 f i engq:d2_font.obj
 0001:0008f030       ?drawtextque_char@@YAXPAVsoftfont@@HHABUpointf3@@I@Z 00490030 f   engq:d2_font.obj
 0001:0008f0e0       ?drawtextque_char_center@@YAXPAVsoftfont@@HHABUpointf3@@I@Z 004900e0 f   engq:d2_font.obj
 0001:0008f1a0       ?drawtextque_format@@YAXPAVsoftfont@@HHABUpointf3@@PBDZZ 004901a0 f   engq:d2_font.obj
 0001:0008f2a0       ?drawtextque_format_center@@YAXPAVsoftfont@@HHABUpointf3@@PBDZZ 004902a0 f   engq:d2_font.obj
 0001:0008f3b0       ?drawtextque_format_foreback@@YAXPAVsoftfont@@HHABUpointf3@@1PBDZZ 004903b0 f   engq:d2_font.obj
 0001:0008f490       ?drawtextque_string@@YAXPAVsoftfont@@HHABUpointf3@@PBD@Z 00490490 f   engq:d2_font.obj
 0001:0008f530       ?drawtextque_string_center@@YAXPAVsoftfont@@HHABUpointf3@@PBD@Z 00490530 f   engq:d2_font.obj
 0001:0008f580       ?drawtextque_string_foreback@@YAXPAVsoftfont@@HHABUpointf3@@1PBD@Z 00490580 f   engq:d2_font.obj
 0001:0008f630       ?push_back@?$list@Ufntque@@V?$allocator@Ufntque@@@std@@@std@@QAEXABUfntque@@@Z 00490630 f i engq:d2_font.obj
 0001:0008f680       ?alreadyrunning@@YAHXZ     00490680 f   engq:m_win.obj
 0001:0008f6a0       ?crashfunc@@YGJPAU_EXCEPTION_POINTERS@@@Z 004906a0 f   engq:m_win.obj
 0001:0008f870       ?parsecommandline@@YAXABVscript@@@Z 00490870 f   engq:m_win.obj
 0001:0008fab0       _WinMain@16                00490ab0 f   engq:m_win.obj
 0001:0008feb0       ?C32topointf3@@YA?AUpointf3@@UC32@@M@Z 00490eb0 f   engq:m_stdcolors.obj
 0001:0008ff50       ?convert8to32@@YAPAUbitmap32@@PAUbitmap8@@PAUC32@@@Z 00490f50 f   engq:m_stdcolors.obj
 0001:00090030       ?convert8to32@@YAXPAUbitmap8@@PAUC32@@PAUbitmap32@@@Z 00491030 f   engq:m_stdcolors.obj
 0001:000900c0       ?findstdcoloridx@@YAHPBD@Z 004910c0 f   engq:m_stdcolors.obj
 0001:00090120       ?pointf3toC32@@YA?AUC32@@PBUpointf3@@@Z 00491120 f   engq:m_stdcolors.obj
 0001:000901a0       ??$_Emplace_reallocate@ABQAVtextureb@@@?$vector@PAVtextureb@@V?$allocator@PAVtextureb@@@std@@@std@@QAEPAPAVtextureb@@QAPAV2@ABQAV2@@Z 004911a0 f i engq:d2_texman.obj
 0001:00090300       ??$_Emplace_reallocate@ABU?$referencecountelement@Vtextureb@@@@@?$vector@U?$referencecountelement@Vtextureb@@@@V?$allocator@U?$referencecountelement@Vtextureb@@@@@std@@@std@@QAEPAU?$referencecountelement@Vtextureb@@@@QAU2@ABU2@@Z 00491300 f i engq:d2_texman.obj
 0001:000904a0       ??$newrc@Vtexturebifl@@@?$referencecount@Vtextureb@@@@QAEPAVtextureb@@PBD@Z 004914a0 f i engq:d2_texman.obj
 0001:00090710       ??0textureb@@QAE@V?$basic_string@DU?$char_traits@D@std@@V?$allocator@D@2@@std@@@Z 00491710 f   engq:d2_texman.obj
 0001:000907d0       ??0texturebifl@@QAE@V?$basic_string@DU?$char_traits@D@std@@V?$allocator@D@2@@std@@@Z 004917d0 f   engq:d2_texman.obj
 0001:00090910       ??1textureb@@UAE@XZ        00491910 f i engq:d2_texman.obj
 0001:00090970       ??1texturebifl@@UAE@XZ     00491970 f   engq:d2_texman.obj
 0001:00090b60       ??4?$basic_string@DU?$char_traits@D@std@@V?$allocator@D@2@@std@@QAEAAV01@ABV01@@Z 00491b60 f i engq:d2_texman.obj
 0001:00090b90       ??_Etextureb@@UAEPAXI@Z    00491b90 f i engq:d2_texman.obj
 0001:00090b90       ??_Gtextureb@@UAEPAXI@Z    00491b90 f i engq:d2_texman.obj
 0001:00090c00       ??_Etexturebifl@@UAEPAXI@Z 00491c00 f i engq:d2_texman.obj
 0001:00090c00       ??_Gtexturebifl@@UAEPAXI@Z 00491c00 f i engq:d2_texman.obj
 0001:00090c30       ?_Xlength@?$vector@PAVtextureb@@V?$allocator@PAVtextureb@@@std@@@std@@CAXXZ 00491c30 f i engq:d2_texman.obj
 0001:00090c40       ?_Xlength@?$vector@U?$referencecountelement@Vtextureb@@@@V?$allocator@U?$referencecountelement@Vtextureb@@@@@std@@@std@@CAXXZ 00491c40 f i engq:d2_texman.obj
 0001:00090c50       ?addbitmap@texturebifl@@UAEXPBUbitmap32@@_N@Z 00491c50 f   engq:d2_texman.obj
 0001:00090c60       ?animtex@textureb@@SAXXZ   00491c60 f   engq:d2_texman.obj
 0001:00090d80       ?build@textureb@@QAEXHH@Z  00491d80 f   engq:d2_texman.obj
 0001:00090dd0       ?checkname@textureb@@QAE_NV?$basic_string@DU?$char_traits@D@std@@V?$allocator@D@2@@std@@AAV23@AA_N2@Z 00491dd0 f   engq:d2_texman.obj
 0001:00091180       ?gfxread32c@textureb@@QAEPAUbitmap32@@PBD_N@Z 00492180 f   engq:d2_texman.obj
 0001:000912d0       ?ifl_createtexture@@YAPAVtextureb@@PBD@Z 004922d0 f   engq:d2_texman.obj
 0001:000912f0       ?load@texturebifl@@UAEXXZ  004922f0 f   engq:d2_texman.obj
 0001:000914c0       ?locktexture@texturebifl@@UAEPAUbitmap32@@XZ 004924c0 f   engq:d2_texman.obj
 0001:000914d0       ?rfind@?$basic_string@DU?$char_traits@D@std@@V?$allocator@D@2@@std@@QBEIDI@Z 004924d0 f i engq:d2_texman.obj
 0001:00091510       ?showline@textureb@@UAEXXZ 00492510 f i engq:d2_texman.obj
 0001:00091540       ?showline@texturebifl@@UAEXXZ 00492540 f   engq:d2_texman.obj
 0001:000915d0       ?snapshot@textureb@@UAEPAV1@XZ 004925d0 f i engq:d2_texman.obj
 0001:000915e0       ?snapshot@texturebifl@@UAEPAVtextureb@@XZ 004925e0 f   engq:d2_texman.obj
 0001:00091600       ?step@texturebifl@@QAEXXZ  00492600 f   engq:d2_texman.obj
 0001:000916c0       ?unlocktexture@texturebifl@@UAEXXZ 004926c0 f   engq:d2_texman.obj
 0001:000916d0       ??$_Buynode@ABUpiecewise_construct_t@std@@V?$tuple@ABI@2@V?$tuple@$$V@2@@?$_Tree_comp_alloc@V?$_Tmap_traits@IHU?$less@I@std@@V?$allocator@U?$pair@$$CBIH@std@@@2@$0A@@std@@@std@@QAEPAU?$_Tree_node@U?$pair@$$CBIH@std@@PAX@1@ABUpiecewise_construct_t@1@$$QAV?$tuple@ABI@1@$$QAV?$tuple@$$V@1@@Z 004926d0 f i engq:m_bitmap32.obj
 0001:00091700       ??$_Insert_at@AAU?$pair@$$CBIH@std@@PAU?$_Tree_node@U?$pair@$$CBIH@std@@PAX@2@@?$_Tree@V?$_Tmap_traits@IHU?$less@I@std@@V?$allocator@U?$pair@$$CBIH@std@@@2@$0A@@std@@@std@@IAE?AV?$_Tree_iterator@V?$_Tree_val@U?$_Tree_simple_types@U?$pair@$$CBIH@std@@@std@@@std@@@1@_NPAU?$_Tree_node@U?$pair@$$CBIH@std@@PAX@1@AAU?$pair@$$CBIH@1@1@Z 00492700 f i engq:m_bitmap32.obj
 0001:00091860       ??$_Insert_hint@AAU?$pair@$$CBIH@std@@PAU?$_Tree_node@U?$pair@$$CBIH@std@@PAX@2@@?$_Tree@V?$_Tmap_traits@IHU?$less@I@std@@V?$allocator@U?$pair@$$CBIH@std@@@2@$0A@@std@@@std@@IAE?AV?$_Tree_iterator@V?$_Tree_val@U?$_Tree_simple_types@U?$pair@$$CBIH@std@@@std@@@std@@@1@V?$_Tree_const_iterator@V?$_Tree_val@U?$_Tree_simple_types@U?$pair@$$CBIH@std@@@std@@@std@@@1@AAU?$pair@$$CBIH@1@PAU?$_Tree_node@U?$pair@$$CBIH@std@@PAX@1@@Z 00492860 f i engq:m_bitmap32.obj
 0001:00091a70       ??$_Insert_nohint@AAU?$pair@$$CBIH@std@@PAU?$_Tree_node@U?$pair@$$CBIH@std@@PAX@2@@?$_Tree@V?$_Tmap_traits@IHU?$less@I@std@@V?$allocator@U?$pair@$$CBIH@std@@@2@$0A@@std@@@std@@IAE?AU?$pair@V?$_Tree_iterator@V?$_Tree_val@U?$_Tree_simple_types@U?$pair@$$CBIH@std@@@std@@@std@@@std@@_N@1@_NAAU?$pair@$$CBIH@1@PAU?$_Tree_node@U?$pair@$$CBIH@std@@PAX@1@@Z 00492a70 f i engq:m_bitmap32.obj
 0001:00091b90       ??$exch@H@@YAXAAH0@Z       00492b90 f i engq:m_bitmap32.obj
 0001:00091bb0       ??$exch@I@@YAXAAI0@Z       00492bb0 f i engq:m_bitmap32.obj
 0001:00091bd0       ??0C32@@QAE@XZ             00492bd0 f i engq:m_bitmap32.obj
 0001:00091be0       ??E?$_Tree_const_iterator@V?$_Tree_val@U?$_Tree_simple_types@U?$pair@$$CBIH@std@@@std@@@std@@@std@@QAEAAV01@XZ 00492be0 f i engq:m_bitmap32.obj
 0001:00091c40       ??F?$_Tree_const_iterator@V?$_Tree_val@U?$_Tree_simple_types@U?$pair@$$CBIH@std@@@std@@@std@@@std@@QAEAAV01@XZ 00492c40 f i engq:m_bitmap32.obj
 0001:00091cd0       ?_Buyheadnode@?$_Tree_comp_alloc@V?$_Tmap_traits@IHU?$less@I@std@@V?$allocator@U?$pair@$$CBIH@std@@@2@$0A@@std@@@std@@QAEPAU?$_Tree_node@U?$pair@$$CBIH@std@@PAX@2@XZ 00492cd0 f i engq:m_bitmap32.obj
 0001:00091cf0       ?_Buynode0@?$_Tree_comp_alloc@V?$_Tmap_traits@IHU?$less@I@std@@V?$allocator@U?$pair@$$CBIH@std@@@2@$0A@@std@@@std@@QAEPAU?$_Tree_node@U?$pair@$$CBIH@std@@PAX@2@XZ 00492cf0 f i engq:m_bitmap32.obj
 0001:00091d10       ?_Destroy_if_node@?$_Tree@V?$_Tmap_traits@IHU?$less@I@std@@V?$allocator@U?$pair@$$CBIH@std@@@2@$0A@@std@@@std@@IAEXPAU?$_Tree_node@U?$pair@$$CBIH@std@@PAX@2@@Z 00492d10 f i engq:m_bitmap32.obj
 0001:00091d30       ?_Erase@?$_Tree@V?$_Tmap_traits@IHU?$less@I@std@@V?$allocator@U?$pair@$$CBIH@std@@@2@$0A@@std@@@std@@IAEXPAU?$_Tree_node@U?$pair@$$CBIH@std@@PAX@2@@Z 00492d30 f i engq:m_bitmap32.obj
 0001:00091d70       ?_Lrotate@?$_Tree_val@U?$_Tree_simple_types@U?$pair@$$CBIH@std@@@std@@@std@@QAEXPAU?$_Tree_node@U?$pair@$$CBIH@std@@PAX@2@@Z 00492d70 f i engq:m_bitmap32.obj
 0001:00091dd0       ?_Rrotate@?$_Tree_val@U?$_Tree_simple_types@U?$pair@$$CBIH@std@@@std@@@std@@QAEXPAU?$_Tree_node@U?$pair@$$CBIH@std@@PAX@2@@Z 00492dd0 f i engq:m_bitmap32.obj
 0001:00091e30       ?bclip32@@YA_NPBUbitmap32@@0PAH11111@Z 00492e30 f   engq:m_bitmap32.obj
 0001:00091f60       ?bitmap32alloc@@YAPAUbitmap32@@HHUC32@@@Z 00492f60 f   engq:m_bitmap32.obj
 0001:00091fe0       ?bitmap32copy@@YAPAUbitmap32@@PBU1@@Z 00492fe0 f   engq:m_bitmap32.obj
 0001:00092030       ?bitmap32double@@YAPAUbitmap32@@PAU1@@Z 00493030 f   engq:m_bitmap32.obj
 0001:000920f0       ?bitmap32double@@YAXPAUbitmap32@@0@Z 004930f0 f   engq:m_bitmap32.obj
 0001:000921a0       ?bitmap32free@@YAXPAUbitmap32@@@Z 004931a0 f   engq:m_bitmap32.obj
 0001:000921c0       ?bitmap32reduce@@YAPAUbitmap32@@PBU1@@Z 004931c0 f   engq:m_bitmap32.obj
 0001:000928c0       ?clear@?$_Tree@V?$_Tmap_traits@IHU?$less@I@std@@V?$allocator@U?$pair@$$CBIH@std@@@2@$0A@@std@@@std@@QAEXXZ 004938c0 f i engq:m_bitmap32.obj
 0001:00092940       ?clipblit32@@YAXPBUbitmap32@@PAU1@HHHHHH@Z 00493940 f   engq:m_bitmap32.obj
 0001:00092a10       ?clipblit32alpha1@@YAXPAUbitmap32@@0HHHHHH@Z 00493a10 f   engq:m_bitmap32.obj
 0001:00092b00       ?clipcircle32@@YAXPBUbitmap32@@HHHUC32@@@Z 00493b00 f   engq:m_bitmap32.obj
 0001:00092c60       ?clipcircleo32@@YAXPAUbitmap32@@HHHUC32@@@Z 00493c60 f   engq:m_bitmap32.obj
 0001:00092d40       ?clipclear32@@YAXPAUbitmap32@@UC32@@@Z 00493d40 f   engq:m_bitmap32.obj
 0001:00092dc0       ?clipfore32@@YAXPBUbitmap32@@0HHHHHHUC32@@@Z 00493dc0 f   engq:m_bitmap32.obj
 0001:00092ea0       ?clipforeback32@@YAXPAUbitmap32@@0HHHHHHUC32@@1@Z 00493ea0 f   engq:m_bitmap32.obj
 0001:00092fa0       ?clipgetpixel32@@YA?AUC32@@PBUbitmap32@@HH@Z 00493fa0 f   engq:m_bitmap32.obj
 0001:00093000       ?cliphline32@@YAXPBUbitmap32@@HHHUC32@@@Z 00494000 f   engq:m_bitmap32.obj
 0001:00093080       ?clipline32@@YAXPBUbitmap32@@HHHHUC32@@@Z 00494080 f   engq:m_bitmap32.obj
 0001:00093150       ?clipputpixel32@@YAXPBUbitmap32@@HHUC32@@@Z 00494150 f   engq:m_bitmap32.obj
 0001:000931a0       ?cliprect32@@YAXPBUbitmap32@@HHHHUC32@@@Z 004941a0 f   engq:m_bitmap32.obj
 0001:000931e0       ?cliprecto32@@YAXPAUbitmap32@@HHHHUC32@@@Z 004941e0 f   engq:m_bitmap32.obj
 0001:00093270       ?clipscaleblit32@@YAXPBUbitmap32@@PAU1@@Z 00494270 f   engq:m_bitmap32.obj
 0001:000936a0       ?clipvline32@@YAXPAUbitmap32@@HHHUC32@@@Z 004946a0 f   engq:m_bitmap32.obj
 0001:00093730       ?clipxpar32@@YAXPAUbitmap32@@0HHHHHHUC32@@@Z 00494730 f   engq:m_bitmap32.obj
 0001:00093810       ?con32_alloc@@YAPAUcon32@@HHUC32@@0@Z 00494810 f   engq:m_bitmap32.obj
 0001:00093860       ?con32_clear@@YAXPAUcon32@@@Z 00494860 f   engq:m_bitmap32.obj
 0001:000938a0       ?con32_free@@YAXPAUcon32@@@Z 004948a0 f   engq:m_bitmap32.obj
 0001:000938d0       ?con32_getbitmap32@@YAPAUbitmap32@@PBUcon32@@@Z 004948d0 f   engq:m_bitmap32.obj
 0001:000938f0       ?con32_printf@@YAXPBUcon32@@PBDZZ 004948f0 f   engq:m_bitmap32.obj
 0001:00093910       ?con32_printfnow@@YAXPBUcon32@@PBDZZ 00494910 f   engq:m_bitmap32.obj
 0001:00093990       ?con32_printfvs@@YAXPBUcon32@@PBDPAD@Z 00494990 f   engq:m_bitmap32.obj
 0001:00093b20       ?fastblit32@@YAXPBUbitmap32@@PAU1@HHHHHH@Z 00494b20 f   engq:m_bitmap32.obj
 0001:00093bc0       ?fastblit32alpha1@@YAXPAUbitmap32@@0HHHHHH@Z 00494bc0 f   engq:m_bitmap32.obj
 0001:00093c70       ?fastclear32@@YAXPAUbitmap32@@UC32@@@Z 00494c70 f   engq:m_bitmap32.obj
 0001:00093c90       ?fastfore32@@YAXPBUbitmap32@@0HHHHHHUC32@@@Z 00494c90 f   engq:m_bitmap32.obj
 0001:00093d40       ?fastforeback32@@YAXPAUbitmap32@@0HHHHHHUC32@@1@Z 00494d40 f   engq:m_bitmap32.obj
 0001:00093e10       ?fastgetpixel32@@YA?AUC32@@PAUbitmap32@@HH@Z 00494e10 f   engq:m_bitmap32.obj
 0001:00093e30       ?fasthline32@@YAXPBUbitmap32@@HHHUC32@@@Z 00494e30 f   engq:m_bitmap32.obj
 0001:00093e70       ?fastline32@@YAXPBUbitmap32@@HHHHUC32@@@Z 00494e70 f   engq:m_bitmap32.obj
 0001:00093f30       ?fastputpixel32@@YAXPAUbitmap32@@HHUC32@@@Z 00494f30 f   engq:m_bitmap32.obj
 0001:00093f50       ?fastrect32@@YAXPBUbitmap32@@HHHHUC32@@@Z 00494f50 f   engq:m_bitmap32.obj
 0001:00093fa0       ?fastvline32@@YAXPAUbitmap32@@HHHUC32@@@Z 00494fa0 f   engq:m_bitmap32.obj
 0001:00093fe0       ?fastxpar32@@YAXPAUbitmap32@@0HHHHHHUC32@@@Z 00494fe0 f   engq:m_bitmap32.obj
 0001:00094090       ?gcon_printf@@YAXPBDZZ     00495090 f   engq:m_bitmap32.obj
 0001:000940b0       ?histoshow@@YAXV?$basic_string@DU?$char_traits@D@std@@V?$allocator@D@2@@std@@@Z 004950b0 f   engq:m_bitmap32.obj
 0001:000943e0       ?makeblackxpar@@YAXPAUbitmap32@@V?$basic_string@DU?$char_traits@D@std@@V?$allocator@D@2@@std@@@Z 004953e0 f   engq:m_bitmap32.obj
 0001:00094710       ?pattern1@@YAXPAUbitmap32@@H@Z 00495710 f   engq:m_bitmap32.obj
 0001:00094790       ?pattern2@@YAXPAUbitmap32@@HH@Z 00495790 f   engq:m_bitmap32.obj
 0001:000948d0       ?resetcliprect32@@YAXPAUbitmap32@@@Z 004958d0 f   engq:m_bitmap32.obj
 0001:000948f0       ?setcliprect32@@YAXPAUbitmap32@@HHHH@Z 004958f0 f   engq:m_bitmap32.obj
 0001:00094960       ?gfxread32@@YAPAUbitmap32@@PBD@Z 00495960 f   engq:m_gfx.obj
 0001:00094b00       ?gfxread8@@YAPAUbitmap8@@PBDPAUC32@@@Z 00495b00 f   engq:m_gfx.obj
 0001:00094bb0       ?gfxwrite32@@YAXPBDPBUbitmap32@@@Z 00495bb0 f   engq:m_gfx.obj
 0001:00094c30       ?gfxwrite8@@YAXPBDPBUbitmap8@@PBUC32@@@Z 00495c30 f   engq:m_gfx.obj
 0001:00094c80       ?getmicrosec@@YAIXZ        00495c80 f   engq:m_tm.obj
 0001:00094d40       ?getmillisec@@YAIXZ        00495d40 f   engq:m_tm.obj
 0001:00094d50       ?largeclamp@@YAXPAT_LARGE_INTEGER@@@Z 00495d50 f   engq:m_tm.obj
 0001:00094d70       ?largeminus@@YAXPAT_LARGE_INTEGER@@00@Z 00495d70 f   engq:m_tm.obj
 0001:00094da0       ?timerinit@@YAXXZ          00495da0 f   engq:m_tm.obj
 0001:00094e90       ?buildrot3d@@YAXPBUpointf3@@PAUmat4@@@Z 00495e90 f   engq:m_matrix.obj
 0001:00095050       ?buildrottrans3d@@YAXPBUpointf3@@0PAUmat4@@@Z 00496050 f   engq:m_matrix.obj
 0001:00095080       ?buildscalerot3d@@YAXPBUpointf3@@0PAUmat4@@@Z 00496080 f   engq:m_matrix.obj
 0001:00095150       ?buildscalerottrans3d@@YAXPBUpointf3@@00PAUmat4@@@Z 00496150 f   engq:m_matrix.obj
 0001:00095220       ?comatrix3to2@@YAXPBUmat3@@PAUmat2@@HH@Z 00496220 f   engq:m_matrix.obj
 0001:00095280       ?comatrix4to3@@YAXPBUmat4@@PAUmat3@@HH@Z 00496280 f   engq:m_matrix.obj
 0001:00095310       ?detmat2@@YAMPBUmat2@@@Z   00496310 f   engq:m_matrix.obj
 0001:00095330       ?detmat3@@YAMPBUmat3@@@Z   00496330 f   engq:m_matrix.obj
 0001:000953a0       ?detmat4@@YAMPBUmat4@@@Z   004963a0 f   engq:m_matrix.obj
 0001:00095560       ?identmat2@@YAXPAUmat2@@@Z 00496560 f   engq:m_matrix.obj
 0001:00095590       ?identmat3@@YAXPAUmat3@@@Z 00496590 f   engq:m_matrix.obj
 0001:000955e0       ?identmat4@@YAXPAUmat4@@@Z 004965e0 f   engq:m_matrix.obj
 0001:00095660       ?inversemat2@@YAIPBUmat2@@PAU1@@Z 00496660 f   engq:m_matrix.obj
 0001:000956f0       ?inversemat3@@YAIPBUmat3@@PAU1@@Z 004966f0 f   engq:m_matrix.obj
 0001:00095890       ?inversemat3d@@YAHPBUmat4@@PAU1@@Z 00496890 f   engq:m_matrix.obj
 0001:00095a70       ?inversemat4@@YAIPBUmat4@@PAU1@@Z 00496a70 f   engq:m_matrix.obj
 0001:00095c50       ?logmat2@@YAXPBUmat2@@PBD@Z 00496c50 f   engq:m_matrix.obj
 0001:00095cb0       ?logmat4@@YAXPBUmat4@@PBD@Z 00496cb0 f   engq:m_matrix.obj
 0001:00095d10       ?mulmat2@@YAXPBUmat2@@0PAU1@@Z 00496d10 f   engq:m_matrix.obj
 0001:00095da0       ?mulmat3@@YAXPBUmat3@@0PAU1@@Z 00496da0 f   engq:m_matrix.obj
 0001:00095f40       ?mulmat3d@@YAXPBUmat4@@0PAU1@@Z 00496f40 f   engq:m_matrix.obj
 0001:00096180       ?mulmat4@@YAXPBUmat4@@0PAU1@@Z 00497180 f   engq:m_matrix.obj
 0001:00096510       ?mulmatvec2@@YAXPBUmat2@@PBUpointf2@@PAU2@@Z 00497510 f   engq:m_matrix.obj
 0001:00096560       ?mulmatvec3@@YAXPBUmat3@@PBUpointf3@@PAU2@@Z 00497560 f   engq:m_matrix.obj
 0001:00096600       ?mulmatvec4@@YAXPBUmat4@@PBUpointf3@@PAU2@@Z 00497600 f   engq:m_matrix.obj
 0001:00096700       ?postmulscale3d@@YAXPBUmat4@@PBUpointf3@@PAU1@@Z 00497700 f   engq:m_matrix.obj
 0001:000967e0       ?premulscale3d@@YAXPBUpointf3@@PBUmat4@@PAU2@@Z 004977e0 f   engq:m_matrix.obj
 0001:00096890       ?randmat2@@YAXPAUmat2@@@Z  00497890 f   engq:m_matrix.obj
 0001:000968c0       ?randmat3@@YAXPAUmat3@@@Z  004978c0 f   engq:m_matrix.obj
 0001:000968f0       ?randmat4@@YAXPAUmat4@@@Z  004978f0 f   engq:m_matrix.obj
 0001:00096920       ?transposemat2@@YAXPBUmat2@@PAU1@@Z 00497920 f   engq:m_matrix.obj
 0001:00096960       ?transposemat3@@YAXPBUmat3@@PAU1@@Z 00497960 f   engq:m_matrix.obj
 0001:000969e0       ?transposemat4@@YAXPBUmat4@@PAU1@@Z 004979e0 f   engq:m_matrix.obj
 0001:00096ab0       ?xformdir@@YAXPBUmat4@@PBUpointf3@@PAU2@@Z 00497ab0 f   engq:m_matrix.obj
 0001:00096b50       ?xformdirinv@@YAXPBUmat4@@PBUpointf3@@PAU2@@Z 00497b50 f   engq:m_matrix.obj
 0001:00096bf0       ?xformvec@@YAXPBUmat4@@PBUpointf3@@PAU2@@Z 00497bf0 f   engq:m_matrix.obj
 0001:00096cd0       ?xformvecs@@YAXPBUmat4@@PBUpointf3@@PAU2@H@Z 00497cd0 f   engq:m_matrix.obj
 0001:00096dd0       ??0softfont@@QAE@PADHHHH@Z 00497dd0 f   engq:m_txt32.obj
 0001:00096ed0       ??1softfont@@QAE@XZ        00497ed0 f   engq:m_txt32.obj
 0001:00096f50       ?outchar32@@YAXPBUbitmap32@@HHUC32@@I@Z 00497f50 f   engq:m_txt32.obj
 0001:00096f90       ?outchar32@softfont@@QBEXPBUbitmap32@@HHUC32@@I@Z 00497f90 f   engq:m_txt32.obj
 0001:00096fd0       ?outcharc32@@YAXPAUbitmap32@@HHUC32@@I@Z 00497fd0 f   engq:m_txt32.obj
 0001:00097010       ?outcharc32@softfont@@QBEXPAUbitmap32@@HHUC32@@I@Z 00498010 f   engq:m_txt32.obj
 0001:00097070       ?outtextxy32@@YAXPBUbitmap32@@HHUC32@@PBD@Z 00498070 f   engq:m_txt32.obj
 0001:00097100       ?outtextxy32@softfont@@QBEXPBUbitmap32@@HHUC32@@PBD@Z 00498100 f   engq:m_txt32.obj
 0001:000971b0       ?outtextxyb32@@YAXPAUbitmap32@@HHUC32@@1PBD@Z 004981b0 f   engq:m_txt32.obj
 0001:00097210       ?outtextxyb32@softfont@@QBEXPAUbitmap32@@HHUC32@@1PBD@Z 00498210 f   engq:m_txt32.obj
 0001:00097280       ?outtextxybc32@@YAXPAUbitmap32@@HHUC32@@1PBD@Z 00498280 f   engq:m_txt32.obj
 0001:000972d0       ?outtextxybc32@softfont@@QBEXPAUbitmap32@@HHUC32@@1PBD@Z 004982d0 f   engq:m_txt32.obj
 0001:00097350       ?outtextxybf32@@YAXPAUbitmap32@@HHUC32@@1PBDZZ 00498350 f   engq:m_txt32.obj
 0001:000973f0       ?outtextxybf32@softfont@@QBAXPAUbitmap32@@HHUC32@@1PBDZZ 004983f0 f   engq:m_txt32.obj
 0001:000974a0       ?outtextxybfc32@@YAXPAUbitmap32@@HHUC32@@1PBDZZ 004984a0 f   engq:m_txt32.obj
 0001:00097550       ?outtextxybfc32@softfont@@QBAXPAUbitmap32@@HHUC32@@1PBDZZ 00498550 f   engq:m_txt32.obj
 0001:00097600       ?outtextxyc32@@YAXPAUbitmap32@@HHUC32@@PBD@Z 00498600 f   engq:m_txt32.obj
 0001:00097650       ?outtextxyc32@softfont@@QBEXPAUbitmap32@@HHUC32@@PBD@Z 00498650 f   engq:m_txt32.obj
 0001:000976a0       ?outtextxyf32@@YAXPAUbitmap32@@HHUC32@@PBDZZ 004986a0 f   engq:m_txt32.obj
 0001:00097700       ?outtextxyf32@softfont@@QBAXPAUbitmap32@@HHUC32@@PBDZZ 00498700 f   engq:m_txt32.obj
 0001:00097770       ?outtextxyfc32@@YAXPAUbitmap32@@HHUC32@@PBDZZ 00498770 f   engq:m_txt32.obj
 0001:000977f0       ?outtextxyfc32@softfont@@QBAXPAUbitmap32@@HHUC32@@PBDZZ 004987f0 f   engq:m_txt32.obj
 0001:00097860       ??$_Destroy_range@V?$allocator@Umater2@@@std@@@std@@YAXPAUmater2@@0AAV?$allocator@Umater2@@@0@@Z 00498860 f i engq:d2_model.obj
 0001:000978d0       ??$_Emplace_reallocate@ABUgroup2@@@?$vector@Ugroup2@@V?$allocator@Ugroup2@@@std@@@std@@QAEPAUgroup2@@QAU2@ABU2@@Z 004988d0 f i engq:d2_model.obj
 0001:00097a30       ??$_Emplace_reallocate@ABUmater2@@@?$vector@Umater2@@V?$allocator@Umater2@@@std@@@std@@QAEPAUmater2@@QAU2@ABU2@@Z 00498a30 f i engq:d2_model.obj
 0001:00097c70       ??$_Uninitialized_move@PAUmater2@@PAU1@V?$allocator@Umater2@@@std@@@std@@YAPAUmater2@@QAU1@0PAU1@AAV?$allocator@Umater2@@@0@@Z 00498c70 f i engq:d2_model.obj
 0001:00097d20       ??$assign@PBUpointf3@@X@?$vector@Upointf3@@V?$allocator@Upointf3@@@std@@@std@@QAEXPBUpointf3@@0@Z 00498d20 f i engq:d2_model.obj
 0001:00097e10       ??0?$vector@Upointf3@@V?$allocator@Upointf3@@@std@@@std@@QAE@IABV?$allocator@Upointf3@@@1@@Z 00498e10 f i engq:d2_model.obj
 0001:00097e70       ??0modelb@@QAE@V?$basic_string@DU?$char_traits@D@std@@V?$allocator@D@2@@std@@@Z 00498e70 f   engq:d2_model.obj
 0001:00098050       ??1?$vector@Umater2@@V?$allocator@Umater2@@@std@@@std@@QAE@XZ 00499050 f i engq:d2_model.obj
 0001:000980d0       ??1mater2@@QAE@XZ          004990d0 f i engq:d2_model.obj
 0001:00098120       ??1modelb@@UAE@XZ          00499120 f   engq:d2_model.obj
 0001:000984f0       ??_Emodelb@@UAEPAXI@Z      004994f0 f i engq:d2_model.obj
 0001:000984f0       ??_Gmodelb@@UAEPAXI@Z      004994f0 f i engq:d2_model.obj
 0001:00098520       ?_Buy@?$vector@Uface@@V?$allocator@Uface@@@std@@@std@@AAE_NI@Z 00499520 f i engq:d2_model.obj
 0001:00098580       ?_Destroy@?$vector@Umater2@@V?$allocator@Umater2@@@std@@@std@@AAEXPAUmater2@@0@Z 00499580 f i engq:d2_model.obj
 0001:000985a0       ?_Tidy@?$vector@Upointf3@@V?$allocator@Upointf3@@@std@@@std@@AAEXXZ 004995a0 f i engq:d2_model.obj
 0001:00098600       ?_Xlength@?$vector@Ugroup2@@V?$allocator@Ugroup2@@@std@@@std@@CAXXZ 00499600 f i engq:d2_model.obj
 0001:00098610       ?_Xlength@?$vector@Umater2@@V?$allocator@Umater2@@@std@@@std@@CAXXZ 00499610 f i engq:d2_model.obj
 0001:00098620       ?addface@modelb@@QAEXHHH_N@Z 00499620 f   engq:d2_model.obj
 0001:000986b0       ?addfaces@modelb@@QAEXPBUface@@HH_N1@Z 004996b0 f   engq:d2_model.obj
 0001:00098830       ?addfaces@modelb@@QAEXV?$vector@Uface@@V?$allocator@Uface@@@std@@@std@@H_N1@Z 00499830 f   engq:d2_model.obj
 0001:00098a40       ?addmat2c@modelb@@QAEXPBDHPAVtextureb@@PBUpointf3@@2MHH@Z 00499a40 f   engq:d2_model.obj
 0001:00098bb0       ?addmat2t@modelb@@QAEXPBDHPAVtextureb@@1PBUpointf3@@MHHM@Z 00499bb0 f   engq:d2_model.obj
 0001:00098d20       ?addmat@modelb@@QAEXPBDHPAVtextureb@@PBUpointf3@@MHHMM@Z 00499d20 f   engq:d2_model.obj
 0001:00098e90       ?addmatn@modelb@@QAEXPBDH0PBUpointf3@@MHH@Z 00499e90 f   engq:d2_model.obj
 0001:00099020       ?calcnorms@modelb@@QAEXXZ  0049a020 f   engq:d2_model.obj
 0001:00099270       ?calcuvs@modelb@@QAEXABUpointf3@@@Z 0049a270 f   engq:d2_model.obj
 0001:00099730       ?changetex@modelb@@QAEXPAVtextureb@@II@Z 0049a730 f   engq:d2_model.obj
 0001:000997b0       ?checkbbox@modelb@@QAE?AW4clipresult@@PAUmat4@@@Z 0049a7b0 f   engq:d2_model.obj
 0001:00099930       ?copybinorms@modelb@@QAEXABV?$vector@Upointf3@@V?$allocator@Upointf3@@@std@@@std@@@Z 0049a930 f   engq:d2_model.obj
 0001:00099940       ?copybinorms@modelb@@QAEXPBUpointf3@@H@Z 0049a940 f   engq:d2_model.obj
 0001:00099960       ?copycverts@modelb@@QAEXABV?$vector@Upointf3@@V?$allocator@Upointf3@@@std@@@std@@@Z 0049a960 f   engq:d2_model.obj
 0001:000999c0       ?copycverts@modelb@@QAEXPBUpointf3@@H@Z 0049a9c0 f   engq:d2_model.obj
 0001:00099a10       ?copyfaces@modelb@@QAEXABV?$vector@Uface@@V?$allocator@Uface@@@std@@@std@@_N@Z 0049aa10 f   engq:d2_model.obj
 0001:00099b40       ?copyfaces@modelb@@QAEXPBUface@@H_N@Z 0049ab40 f   engq:d2_model.obj
 0001:00099c40       ?copynorms@modelb@@QAEXABV?$vector@Upointf3@@V?$allocator@Upointf3@@@std@@@std@@@Z 0049ac40 f   engq:d2_model.obj
 0001:00099c50       ?copynorms@modelb@@QAEXPBUpointf3@@H@Z 0049ac50 f   engq:d2_model.obj
 0001:00099c70       ?copytangents@modelb@@QAEXABV?$vector@Upointf3@@V?$allocator@Upointf3@@@std@@@std@@@Z 0049ac70 f   engq:d2_model.obj
 0001:00099c80       ?copytangents@modelb@@QAEXPBUpointf3@@H@Z 0049ac80 f   engq:d2_model.obj
 0001:00099ca0       ?copyuvs0@modelb@@QAEXABV?$vector@Uuv@@V?$allocator@Uuv@@@std@@@std@@@Z 0049aca0 f   engq:d2_model.obj
 0001:00099d00       ?copyuvs0@modelb@@QAEXPBUuv@@H@Z 0049ad00 f   engq:d2_model.obj
 0001:00099d60       ?copyuvs1@modelb@@QAEXABV?$vector@Uuv@@V?$allocator@Uuv@@@std@@@std@@@Z 0049ad60 f   engq:d2_model.obj
 0001:00099dd0       ?copyuvs1@modelb@@QAEXPBUuv@@H@Z 0049add0 f   engq:d2_model.obj
 0001:00099e40       ?copyverts2@modelb@@QAEXABV?$vector@Upointf3@@V?$allocator@Upointf3@@@std@@@std@@@Z 0049ae40 f   engq:d2_model.obj
 0001:00099e50       ?copyverts2@modelb@@QAEXPBUpointf3@@H@Z 0049ae50 f   engq:d2_model.obj
 0001:00099e70       ?copyverts@modelb@@QAEXABV?$vector@Upointf3@@V?$allocator@Upointf3@@@std@@@std@@_N@Z 0049ae70 f   engq:d2_model.obj
 0001:00099ee0       ?copyverts@modelb@@QAEXPBUpointf3@@H_N@Z 0049aee0 f   engq:d2_model.obj
 0001:00099f50       ?deallocate@?$allocator@Uface@@@std@@QAEXQAUface@@I@Z 0049af50 f i engq:d2_model.obj
 0001:00099f90       ?deallocate@?$allocator@Umater2@@@std@@QAEXQAUmater2@@I@Z 0049af90 f i engq:d2_model.obj
 0001:00099fd0       ?genindifaces@modelb@@QAEX_N@Z 0049afd0 f   engq:d2_model.obj
 0001:0009a070       ?push_back@?$vector@Umater2@@V?$allocator@Umater2@@@std@@@std@@QAEXABUmater2@@@Z 0049b070 f i engq:d2_model.obj
 0001:0009a0e0       ?setbbox@modelb@@QAEXXZ    0049b0e0 f   engq:d2_model.obj
 0001:0009a2c0       ?showline@modelb@@UAEXXZ   0049b2c0 f   engq:d2_model.obj
 0001:0009a480       ?deflate_decompress@@YAPAEPAEHH@Z 0049b480 f   engq:n_deflate.obj
 0001:0009acb0       ?deflate_decompress_mask@@YAPAUbitmap8@@PAEHHH@Z 0049bcb0 f   engq:n_deflate.obj
 0001:0009ad40       ?deflate_stats@@YAXXZ      0049bd40 f   engq:n_deflate.obj
 0001:0009ae90       ?bclip8@@YA_NPBUbitmap8@@0PAH11111@Z 0049be90 f   engq:m_bitmap8.obj
 0001:0009afc0       ?bitmap8alloc@@YAPAUbitmap8@@HHH@Z 0049bfc0 f   engq:m_bitmap8.obj
 0001:0009b020       ?bitmap8free@@YAXPAUbitmap8@@@Z 0049c020 f   engq:m_bitmap8.obj
 0001:0009b040       ?clipblit8@@YAXPBUbitmap8@@0HHHHHH@Z 0049c040 f   engq:m_bitmap8.obj
 0001:0009b0f0       ?clipfloodfill8@@YAXPAUbitmap8@@HHH@Z 0049c0f0 f   engq:m_bitmap8.obj
 0001:0009b4c0       ?clipgetpixel8@@YAEPAUbitmap8@@HH@Z 0049c4c0 f   engq:m_bitmap8.obj
 0001:0009b510       ?clipline8@@YAXPAUbitmap8@@HHHHH@Z 0049c510 f   engq:m_bitmap8.obj
 0001:0009b5e0       ?clipmask8@@YAXPAUbitmap8@@0PAE@Z 0049c5e0 f   engq:m_bitmap8.obj
 0001:0009b650       ?clipputpixel8@@YAXPAUbitmap8@@HHH@Z 0049c650 f   engq:m_bitmap8.obj
 0001:0009b690       ?cliprect8@@YAXPAUbitmap8@@HHHHH@Z 0049c690 f   engq:m_bitmap8.obj
 0001:0009b7b0       ?clipscaleblit8@@YAXPBUbitmap8@@PAU1@@Z 0049c7b0 f   engq:m_bitmap8.obj
 0001:0009b830       ?fastblit8@@YAXPBUbitmap8@@0HHHHHH@Z 0049c830 f   engq:m_bitmap8.obj
 0001:0009b8b0       ?fastgetpixel8@@YAEPAUbitmap8@@HH@Z 0049c8b0 f   engq:m_bitmap8.obj
 0001:0009b8d0       ?fastline8@@YAXPAUbitmap8@@HHHHH@Z 0049c8d0 f   engq:m_bitmap8.obj
 0001:0009b9a0       ?fastputpixel8@@YAXPAUbitmap8@@HHE@Z 0049c9a0 f   engq:m_bitmap8.obj
 0001:0009b9c0       ?fastrect8@@YAXPAUbitmap8@@HHHHH@Z 0049c9c0 f   engq:m_bitmap8.obj
 0001:0009c4d0       ?gfxread32_jpg@@YAPAUbitmap32@@PBD@Z 0049d4d0 f   engq:m_gfx_jpg.obj
 0001:0009d1f0       ?jpegread@@YAPAUbitmap32@@PAU_iobuf@@@Z 0049e1f0 f   engq:m_gfx_jpg.obj
 0001:0009e120       ??0fontq@@QAE@PBD@Z        0049f120 f   engq:d2_fontq.obj
 0001:0009e260       ??1fontq@@QAE@XZ           0049f260 f   engq:d2_fontq.obj
 0001:0009e350       ?getglyph@fontq@@AAEPAVtextureb@@I@Z 0049f350 f   engq:d2_fontq.obj
 0001:0009e380       ?print@fontq@@QAAXMMMMABUpointf3@@PBDZZ 0049f380 f   engq:d2_fontq.obj
 0001:0009e830       ?setfixedwidth@fontq@@QAEXM@Z 0049f830 f   engq:d2_fontq.obj
 0001:0009e870       ??6?$basic_ostream@DU?$char_traits@D@std@@@std@@QAEAAV01@_K@Z 0049f870 f i engq:m_floatconv.obj
 0001:0009f190       ?float2str@@YA?AV?$basic_string@DU?$char_traits@D@std@@V?$allocator@D@2@@std@@M@Z 004a0190 f   engq:m_floatconv.obj
 0001:0009f4c0       ?float2strhex@@YA?AV?$basic_string@DU?$char_traits@D@std@@V?$allocator@D@2@@std@@M@Z 004a04c0 f   engq:m_floatconv.obj
 0001:0009f6a0       ?float_test@@YAXXZ         004a06a0 f   engq:m_floatconv.obj
 0001:0009f840       ?str2float@@YAMPBD@Z       004a0840 f   engq:m_floatconv.obj
 0001:0009fa00       ?str2floathex@@YAMPBD@Z    004a0a00 f   engq:m_floatconv.obj
 0001:0009fad0       ?dx9_fs_setupwindow@@YAHHH@Z 004a0ad0 f   engq:m_vid_dx9.obj
 0001:0009faf0       ?dx9_getnsubdrivers@@YAPAVscript@@XZ 004a0af0 f   engq:m_vid_dx9.obj
 0001:0009fc00       ?dx9_lock@@YAXXZ           004a0c00 f   engq:m_vid_dx9.obj
 0001:0009fd20       ?dx9_paintwindow@@YAXI@Z   004a0d20 f   engq:m_vid_dx9.obj
 0001:000a01f0       ?dx9_unlock@@YAXXZ         004a11f0 f   engq:m_vid_dx9.obj
 0001:000a0270       ?dx9_video_uninit@@YAXXZ   004a1270 f   engq:m_vid_dx9.obj
 0001:000a0320       ?dx9_wnd_setupwindow@@YAHHH@Z 004a1320 f   engq:m_vid_dx9.obj
 0001:000a0340       ?bezcalcallcoeffs@@YAXPAUkeyframe@@@Z 004a1340 f   engq:d2_keyf.obj
 0001:000a0690       ?seq_dostep@@YAXPAVtree2@@@Z 004a1690 f   engq:d2_keyf.obj
 0001:000a0ab0       ?seq_getframe@@YAMPAVtree2@@@Z 004a1ab0 f   engq:d2_keyf.obj
 0001:000a0b60       ?seq_getseq@@YAHPAVtree2@@@Z 004a1b60 f   engq:d2_keyf.obj
 0001:000a0b70       ?seq_isplaying@@YAHPAVtree2@@@Z 004a1b70 f   engq:d2_keyf.obj
 0001:000a0cb0       ?seq_setframe@@YAXPAVtree2@@M@Z 004a1cb0 f   engq:d2_keyf.obj
 0001:000a0d00       ?seq_setrepcount@@YAXPAVtree2@@H@Z 004a1d00 f   engq:d2_keyf.obj
 0001:000a0d50       ?seq_setseq@@YAXPAVtree2@@H@Z 004a1d50 f   engq:d2_keyf.obj
 0001:000a0dd0       ?seq_start@@YAXPAVtree2@@@Z 004a1dd0 f   engq:d2_keyf.obj
 0001:000a0e50       ?seq_stop@@YAXPAVtree2@@@Z 004a1e50 f   engq:d2_keyf.obj
 0001:000a0e90       ?tcbcalcallcoeffs@@YAXPAUkeyframe@@@Z 004a1e90 f   engq:d2_keyf.obj
 0001:000a18a0       ?Joy_GetState@@YAXIPAUDIJOYSTATE2@@PAUjoydata@@@Z 004a28a0 f   engq:m_input.obj
 0001:000a1b30       ?Joy_Init@@YAIXZ           004a2b30 f   engq:m_input.obj
 0001:000a1c00       ?Joy_Update@@YAXXZ         004a2c00 f   engq:m_input.obj
 0001:000a1f40       ?Joy_enumDevice@@YGHPBUDIDEVICEINSTANCEA@@PAX@Z 004a2f40 f   engq:m_input.obj
 0001:000a1f90       ?flushkeys@@YAXXZ          004a2f90 f   engq:m_input.obj
 0001:000a1fd0       ?getdikdata@@YAXPAE@Z      004a2fd0 f   engq:m_input.obj
 0001:000a2190       ?getdimdata@@YAXXZ         004a3190 f   engq:m_input.obj
 0001:000a2450       ?getsomeinput@@YAXXZ       004a3450 f   engq:m_input.obj
 0001:000a2710       ?input_init@@YAXH@Z        004a3710 f   engq:m_input.obj
 0001:000a2b80       ?input_uninit@@YAXXZ       004a3b80 f   engq:m_input.obj
 0001:000a2cd0       ?messonkeydown@@YAXPAUHWND__@@IHHI@Z 004a3cd0 f   engq:m_input.obj
 0001:000a2d40       ?messonleftmousedown@@YAXPAUHWND__@@HHHI@Z 004a3d40 f   engq:m_input.obj
 0001:000a2d70       ?messonleftmouseup@@YAXPAUHWND__@@HHI@Z 004a3d70 f   engq:m_input.obj
 0001:000a2d90       ?messonmiddlemousedown@@YAXPAUHWND__@@HHHI@Z 004a3d90 f   engq:m_input.obj
 0001:000a2dc0       ?messonmiddlemouseup@@YAXPAUHWND__@@HHI@Z 004a3dc0 f   engq:m_input.obj
 0001:000a2de0       ?messonmousemove@@YAXPAUHWND__@@HHI@Z 004a3de0 f   engq:m_input.obj
 0001:000a3000       ?messonmousewheel@@YAXH@Z  004a4000 f   engq:m_input.obj
 0001:000a3040       ?messonrightmousedown@@YAXPAUHWND__@@HHHI@Z 004a4040 f   engq:m_input.obj
 0001:000a3070       ?messonrightmouseup@@YAXPAUHWND__@@HHI@Z 004a4070 f   engq:m_input.obj
 0001:000a30d0       ?resetinput@@YAXXZ         004a40d0 f   engq:m_input.obj
 0001:000a31e0       ?resetmhold@@YAXXZ         004a41e0 f   engq:m_input.obj
 0001:000a31f0       ?setmousexy@@YAXHH@Z       004a41f0 f   engq:m_input.obj
 0001:000a32d0       ??0zee2@@QAE@H@Z           004a42d0 f   engq:ring2.obj
 0001:000a33e0       ??6@YAAAV?$basic_ostream@DU?$char_traits@D@std@@@std@@AAV01@Vzee2@@@Z 004a43e0 f   engq:ring2.obj
 0001:000a3400       ??Dzee2@@QBE?AV0@ABV0@@Z   004a4400 f   engq:ring2.obj
 0001:000a3420       ??Ezee2@@QAE?AV0@H@Z       004a4420 f   engq:ring2.obj
 0001:000a3460       ??Ezee2@@QAE?AV0@XZ        004a4460 f   engq:ring2.obj
 0001:000a34a0       ??Fzee2@@QAE?AV0@H@Z       004a44a0 f   engq:ring2.obj
 0001:000a34e0       ??Fzee2@@QAE?AV0@XZ        004a44e0 f   engq:ring2.obj
 0001:000a3520       ??Gzee2@@QBE?AV0@ABV0@@Z   004a4520 f   engq:ring2.obj
 0001:000a3540       ??Gzee2@@QBE?AV0@XZ        004a4540 f   engq:ring2.obj
 0001:000a3560       ??Hzee2@@QBE?AV0@ABV0@@Z   004a4560 f   engq:ring2.obj
 0001:000a3580       ??Kzee2@@QBE?AV0@ABV0@@Z   004a4580 f   engq:ring2.obj
 0001:000a3640       ??Xzee2@@QAE?AV0@ABV0@@Z   004a4640 f   engq:ring2.obj
 0001:000a3680       ??Yzee2@@QAE?AV0@ABV0@@Z   004a4680 f   engq:ring2.obj
 0001:000a36c0       ??Zzee2@@QAE?AV0@ABV0@@Z   004a46c0 f   engq:ring2.obj
 0001:000a3700       ??_0zee2@@QAE?AV0@ABV0@@Z  004a4700 f   engq:ring2.obj
 0001:000a37b0       ?hasminv@zee2@@QBE_NXZ     004a47b0 f   engq:ring2.obj
 0001:000a37c0       ?minv@zee2@@QBE?AV1@XZ     004a47c0 f   engq:ring2.obj
 0001:000a3800       ?reduce@zee2@@AAEXXZ       004a4800 f   engq:ring2.obj
 0001:000a3820       ?setdefmod@zee2@@SAXH@Z    004a4820 f   engq:ring2.obj
 0001:000a3850       ?tostring@zee2@@QBE?AV?$basic_string@DU?$char_traits@D@std@@V?$allocator@D@2@@std@@XZ 004a4850 f   engq:ring2.obj
 0001:000a3940       ??$?MVzee2@@V?$allocator@Vzee2@@@std@@@std@@YA_NABV?$vector@Vzee2@@V?$allocator@Vzee2@@@std@@@0@0@Z 004a4940 f i engq:augmatz.obj
 0001:000a39a0       ??$_Emplace_reallocate@ABV?$vector@Vzee2@@V?$allocator@Vzee2@@@std@@@std@@@?$vector@V?$vector@Vzee2@@V?$allocator@Vzee2@@@std@@@std@@V?$allocator@V?$vector@Vzee2@@V?$allocator@Vzee2@@@std@@@std@@@2@@std@@QAEPAV?$vector@Vzee2@@V?$allocator@Vzee2@@@std@@@1@QAV21@ABV21@@Z 004a49a0 f i engq:augmatz.obj
 0001:000a3af0       ??$_Insertion_sort_unchecked@PAV?$vector@Vzee2@@V?$allocator@Vzee2@@@std@@@std@@U?$less@X@2@@std@@YAPAV?$vector@Vzee2@@V?$allocator@Vzee2@@@std@@@0@PAV10@QAV10@U?$less@X@0@@Z 004a4af0 f i engq:augmatz.obj
 0001:000a3d90       ??$_Med3_unchecked@PAV?$vector@Vzee2@@V?$allocator@Vzee2@@@std@@@std@@U?$less@X@2@@std@@YAXPAV?$vector@Vzee2@@V?$allocator@Vzee2@@@std@@@0@00U?$less@X@0@@Z 004a4d90 f i engq:augmatz.obj
 0001:000a3e40       ??$_Partition_by_median_guess_unchecked@PAV?$vector@Vzee2@@V?$allocator@Vzee2@@@std@@@std@@U?$less@X@2@@std@@YA?AU?$pair@PAV?$vector@Vzee2@@V?$allocator@Vzee2@@@std@@@std@@PAV12@@0@PAV?$vector@Vzee2@@V?$allocator@Vzee2@@@std@@@0@0U?$less@X@0@@Z 004a4e40 f i engq:augmatz.obj
 0001:000a4160       ??$_Pop_heap_hole_by_index@PAV?$vector@Vzee2@@V?$allocator@Vzee2@@@std@@@std@@V12@U?$less@X@2@@std@@YAXPAV?$vector@Vzee2@@V?$allocator@Vzee2@@@std@@@0@HH$$QAV10@U?$less@X@0@@Z 004a5160 f i engq:augmatz.obj
 0001:000a4390       ??$_Resize@V<lambda_09af55c1ad9dea701dc786708c7eeefe>@@@?$vector@Vzee2@@V?$allocator@Vzee2@@@std@@@std@@AAEXIV<lambda_09af55c1ad9dea701dc786708c7eeefe>@@@Z 004a5390 f i engq:augmatz.obj
 0001:000a4510       ??$_Resize@V<lambda_e7f7a5a142f7e876a90509edf3ad1e1e>@@@?$vector@V?$vector@Vzee2@@V?$allocator@Vzee2@@@std@@@std@@V?$allocator@V?$vector@Vzee2@@V?$allocator@Vzee2@@@std@@@std@@@2@@std@@AAEXIV<lambda_e7f7a5a142f7e876a90509edf3ad1e1e>@@@Z 004a5510 f i engq:augmatz.obj
 0001:000a4610       ??$_Sort_unchecked@PAV?$vector@Vzee2@@V?$allocator@Vzee2@@@std@@@std@@U?$less@X@2@@std@@YAXPAV?$vector@Vzee2@@V?$allocator@Vzee2@@@std@@@0@0HU?$less@X@0@@Z 004a5610 f i engq:augmatz.obj
 0001:000a48f0       ??$_Uninitialized_move@PAV?$vector@Vzee2@@V?$allocator@Vzee2@@@std@@@std@@PAV12@V?$allocator@V?$vector@Vzee2@@V?$allocator@Vzee2@@@std@@@std@@@2@@std@@YAPAV?$vector@Vzee2@@V?$allocator@Vzee2@@@std@@@0@QAV10@0PAV10@AAV?$allocator@V?$vector@Vzee2@@V?$allocator@Vzee2@@@std@@@std@@@0@@Z 004a58f0 f i engq:augmatz.obj
 0001:000a4970       ??0?$vector@V?$vector@Vzee2@@V?$allocator@Vzee2@@@std@@@std@@V?$allocator@V?$vector@Vzee2@@V?$allocator@Vzee2@@@std@@@std@@@2@@std@@QAE@$$QAV01@@Z 004a5970 f i engq:augmatz.obj
 0001:000a49c0       ??0?$vector@Vzee2@@V?$allocator@Vzee2@@@std@@@std@@QAE@IABV?$allocator@Vzee2@@@1@@Z 004a59c0 f i engq:augmatz.obj
 0001:000a4a80       ??0augmatz@@QAE@HHH@Z      004a5a80 f   engq:augmatz.obj
 0001:000a4bc0       ??1?$_Uninitialized_backout_al@PAVzee2@@V?$allocator@Vzee2@@@std@@@std@@QAE@XZ 004a5bc0 f i engq:augmatz.obj
 0001:000a4bd0       ??R<lambda_09af55c1ad9dea701dc786708c7eeefe>@@QBEPAVzee2@@PAV1@I@Z 004a5bd0 f i engq:augmatz.obj
 0001:000a4c40       ??R<lambda_e7f7a5a142f7e876a90509edf3ad1e1e>@@QBEPAV?$vector@Vzee2@@V?$allocator@Vzee2@@@std@@@std@@PAV12@I@Z 004a5c40 f i engq:augmatz.obj
 0001:000a4c80       ?_Change_array@?$vector@V?$vector@Vzee2@@V?$allocator@Vzee2@@@std@@@std@@V?$allocator@V?$vector@Vzee2@@V?$allocator@Vzee2@@@std@@@std@@@2@@std@@AAEXQAV?$vector@Vzee2@@V?$allocator@Vzee2@@@std@@@2@II@Z 004a5c80 f i engq:augmatz.obj
 0001:000a4d10       ?_Destroy@?$vector@V?$vector@Vzee2@@V?$allocator@Vzee2@@@std@@@std@@V?$allocator@V?$vector@Vzee2@@V?$allocator@Vzee2@@@std@@@std@@@2@@std@@AAEXPAV?$vector@Vzee2@@V?$allocator@Vzee2@@@std@@@2@0@Z 004a5d10 f i engq:augmatz.obj
 0001:000a4d30       ?_Destroy@?$vector@Vzee2@@V?$allocator@Vzee2@@@std@@@std@@AAEXPAVzee2@@0@Z 004a5d30 f i engq:augmatz.obj
 0001:000a4d40       ?_Getal@?$_Vector_alloc@U?$_Vec_base_types@Vzee2@@V?$allocator@Vzee2@@@std@@@std@@@std@@QAEAAV?$allocator@Vzee2@@@2@XZ 004a5d40 f i engq:augmatz.obj
 0001:000a4d50       ?_Tidy@?$vector@Vzee2@@V?$allocator@Vzee2@@@std@@@std@@AAEXXZ 004a5d50 f i engq:augmatz.obj
 0001:000a4db0       ?add@augmatz@@AAEXHHVzee2@@@Z 004a5db0 f   engq:augmatz.obj
 0001:000a4e30       ?allocate@?$allocator@V?$vector@Vzee2@@V?$allocator@Vzee2@@@std@@@std@@@std@@QAEPAV?$vector@Vzee2@@V?$allocator@Vzee2@@@std@@@2@I@Z 004a5e30 f i engq:augmatz.obj
 0001:000a4ea0       ?allocate@?$allocator@Vzee2@@@std@@QAEPAVzee2@@I@Z 004a5ea0 f i engq:augmatz.obj
 0001:000a4f10       ?calc@augmatz@@QAEXXZ      004a5f10 f   engq:augmatz.obj
 0001:000a50a0       ?calcpivot@augmatz@@AAEXHH@Z 004a60a0 f   engq:augmatz.obj
 0001:000a5170       ?checkvars@augmatz@@QAE?AV?$vector@V?$vector@Vzee2@@V?$allocator@Vzee2@@@std@@@std@@V?$allocator@V?$vector@Vzee2@@V?$allocator@Vzee2@@@std@@@std@@@2@@std@@V23@@Z 004a6170 f   engq:augmatz.obj
 0001:000a5360       ?deallocate@?$allocator@V?$vector@Vzee2@@V?$allocator@Vzee2@@@std@@@std@@@std@@QAEXQAV?$vector@Vzee2@@V?$allocator@Vzee2@@@std@@@2@I@Z 004a6360 f i engq:augmatz.obj
 0001:000a53a0       ?deallocate@?$allocator@Vzee2@@@std@@QAEXQAVzee2@@I@Z 004a63a0 f i engq:augmatz.obj
 0001:000a53e0       ?getmult@augmatz@@QAE?AV?$vector@Vzee2@@V?$allocator@Vzee2@@@std@@@std@@V23@@Z 004a63e0 f   engq:augmatz.obj
 0001:000a54f0       ?getnonhom@augmatz@@QBE?AV?$vector@Vzee2@@V?$allocator@Vzee2@@@std@@@std@@XZ 004a64f0 f   engq:augmatz.obj
 0001:000a5570       ?getsum@augmatz@@SAHV?$vector@Vzee2@@V?$allocator@Vzee2@@@std@@@std@@@Z 004a6570 f   engq:augmatz.obj
 0001:000a5610       ?getvars@augmatz@@QAE?AV?$vector@V?$vector@Vzee2@@V?$allocator@Vzee2@@@std@@@std@@V?$allocator@V?$vector@Vzee2@@V?$allocator@Vzee2@@@std@@@std@@@2@@std@@XZ 004a6610 f   engq:augmatz.obj
 0001:000a5d50       ?getvarsbrute@augmatz@@QAE?AV?$vector@V?$vector@Vzee2@@V?$allocator@Vzee2@@@std@@@std@@V?$allocator@V?$vector@Vzee2@@V?$allocator@Vzee2@@@std@@@std@@@2@@std@@XZ 004a6d50 f   engq:augmatz.obj
 0001:000a60f0       ?getvarsc@augmatz@@QAE?AV?$vector@V?$vector@Vzee2@@V?$allocator@Vzee2@@@std@@@std@@V?$allocator@V?$vector@Vzee2@@V?$allocator@Vzee2@@@std@@@std@@@2@@std@@XZ 004a70f0 f   engq:augmatz.obj
 0001:000a6430       ?getvarscomb2@augmatz@@QAE?AV?$vector@V?$vector@Vzee2@@V?$allocator@Vzee2@@@std@@@std@@V?$allocator@V?$vector@Vzee2@@V?$allocator@Vzee2@@@std@@@std@@@2@@std@@H@Z 004a7430 f   engq:augmatz.obj
 0001:000a6500       ?getvarscomb@augmatz@@QAE?AV?$vector@V?$vector@Vzee2@@V?$allocator@Vzee2@@@std@@@std@@V?$allocator@V?$vector@Vzee2@@V?$allocator@Vzee2@@@std@@@std@@@2@@std@@H@Z 004a7500 f   engq:augmatz.obj
 0001:000a65d0       ?intersectsortvars@augmatz@@AAE?AV?$vector@V?$vector@Vzee2@@V?$allocator@Vzee2@@@std@@@std@@V?$allocator@V?$vector@Vzee2@@V?$allocator@Vzee2@@@std@@@std@@@2@@std@@V23@0@Z 004a75d0 f   engq:augmatz.obj
 0001:000a6760       ?iter@augmatz@@QAE_NXZ     004a7760 f   engq:augmatz.obj
 0001:000a67e0       ?load@augmatz@@QAEXPBE@Z   004a77e0 f   engq:augmatz.obj
 0001:000a6860       ?modreduce@augmatz@@AAE?AV1@H@Z 004a7860 f   engq:augmatz.obj
 0001:000a6a60       ?print@augmatz@@QBEXXZ     004a7a60 f   engq:augmatz.obj
 0001:000a6ad0       ?printcalc@augmatz@@QBEXXZ 004a7ad0 f   engq:augmatz.obj
 0001:000a6b60       ?printvars@augmatz@@SAXV?$vector@V?$vector@Vzee2@@V?$allocator@Vzee2@@@std@@@std@@V?$allocator@V?$vector@Vzee2@@V?$allocator@Vzee2@@@std@@@std@@@2@@std@@@Z 004a7b60 f   engq:augmatz.obj
 0001:000a6c30       ?printvec@augmatz@@SAXV?$vector@Vzee2@@V?$allocator@Vzee2@@@std@@@std@@@Z 004a7c30 f   engq:augmatz.obj
 0001:000a6d90       ?reset@augmatz@@QAEXXZ     004a7d90 f   engq:augmatz.obj
 0001:000a6f10       ?scale@augmatz@@AAEXHVzee2@@@Z 004a7f10 f   engq:augmatz.obj
 0001:000a6f50       ?setnoreset@augmatz@@QAEX_N@Z 004a7f50 f   engq:augmatz.obj
 0001:000a6f60       ?setrc@augmatz@@AAEXHHVzee2@@@Z 004a7f60 f   engq:augmatz.obj
 0001:000a6f90       ?swap@augmatz@@AAEXHH@Z    004a7f90 f   engq:augmatz.obj
 0001:000a7010       ?upvars@augmatz@@AAE?AV?$vector@V?$vector@Vzee2@@V?$allocator@Vzee2@@@std@@@std@@V?$allocator@V?$vector@Vzee2@@V?$allocator@Vzee2@@@std@@@std@@@2@@std@@V23@@Z 004a8010 f   engq:augmatz.obj
 0001:000a72c0       ??$?RAAV?$vector@Vzee2@@V?$allocator@Vzee2@@@std@@@std@@AAV01@@?$less@X@std@@QBE_NAAV?$vector@Vzee2@@V?$allocator@Vzee2@@@std@@@1@0@Z 004a82c0 f i engq:augmatz2.obj
 0001:000a7320       ??$_Emplace_reallocate@Vzee2@@@?$vector@Vzee2@@V?$allocator@Vzee2@@@std@@@std@@QAEPAVzee2@@QAV2@$$QAV2@@Z 004a8320 f i engq:augmatz2.obj
 0001:000a7470       ??$_Push_heap_by_index@PAV?$vector@Vzee2@@V?$allocator@Vzee2@@@std@@@std@@V12@U?$less@X@2@@std@@YAXPAV?$vector@Vzee2@@V?$allocator@Vzee2@@@std@@@0@HH$$QAV10@U?$less@X@0@@Z 004a8470 f i engq:augmatz2.obj
 0001:000a75b0       ??0?$vector@Vzee2@@V?$allocator@Vzee2@@@std@@@std@@QAE@$$QAV01@@Z 004a85b0 f i engq:augmatz2.obj
 0001:000a7600       ?allvars@augmatz@@SA?AV?$vector@V?$vector@Vzee2@@V?$allocator@Vzee2@@@std@@@std@@V?$allocator@V?$vector@Vzee2@@V?$allocator@Vzee2@@@std@@@std@@@2@@std@@H@Z 004a8600 f   engq:augmatz2.obj
 0001:000a7880       ?anyfront@augmatz@@QAE?AV?$vector@V?$vector@Vzee2@@V?$allocator@Vzee2@@@std@@@std@@V?$allocator@V?$vector@Vzee2@@V?$allocator@Vzee2@@@std@@@std@@@2@@std@@V23@H@Z 004a8880 f   engq:augmatz2.obj
 0001:000a7cc0       ?axeb@augmatz@@AAE?AV?$vector@Vzee2@@V?$allocator@Vzee2@@@std@@@std@@Vzee2@@0@Z 004a8cc0 f   engq:augmatz2.obj
 0001:000a7f00       ?calc2@augmatz@@QAEXXZ     004a8f00 f   engq:augmatz2.obj
 0001:000a8030       ?calcpivot2@augmatz@@AAE_NHH@Z 004a9030 f   engq:augmatz2.obj
 0001:000a8150       ?getvars2@augmatz@@QAE?AV?$vector@V?$vector@Vzee2@@V?$allocator@Vzee2@@@std@@@std@@V?$allocator@V?$vector@Vzee2@@V?$allocator@Vzee2@@@std@@@std@@@2@@std@@_N@Z 004a9150 f   engq:augmatz2.obj
 0001:000a8300       ?getvars2sum@augmatz@@AAE?AV?$vector@V?$vector@Vzee2@@V?$allocator@Vzee2@@@std@@@std@@V?$allocator@V?$vector@Vzee2@@V?$allocator@Vzee2@@@std@@@std@@@2@@std@@XZ 004a9300 f   engq:augmatz2.obj
 0001:000a8900       ?solve@augmatz@@QAE?AV?$vector@V?$vector@Vzee2@@V?$allocator@Vzee2@@@std@@@std@@V?$allocator@V?$vector@Vzee2@@V?$allocator@Vzee2@@@std@@@std@@@2@@std@@V23@HH@Z 004a9900 f   engq:augmatz2.obj
 0001:000a8ec0       ?midi_load@@YAXPBD@Z       004a9ec0 f   engq:m_midi.obj
 0001:000a9170       ?midi_play@@YAXMH@Z        004aa170 f   engq:m_midi.obj
 0001:000a9200       ?midi_unload@@YAXXZ        004aa200 f   engq:m_midi.obj
 0001:000a9290       ??$?0V?$reverse_iterator@V?$_String_iterator@V?$_String_val@U?$_Simple_types@D@std@@@std@@@std@@@std@@X@?$basic_string@DU?$char_traits@D@std@@V?$allocator@D@2@@std@@QAE@V?$reverse_iterator@V?$_String_iterator@V?$_String_val@U?$_Simple_types@D@std@@@std@@@std@@@1@0ABV?$allocator@D@1@@Z 004aa290 f i engq:math_abstract.obj
 0001:000a9420       ??$?8Vfraction@@V?$allocator@Vfraction@@@std@@@std@@YA_NABV?$vector@Vfraction@@V?$allocator@Vfraction@@@std@@@0@0@Z 004aa420 f i engq:math_abstract.obj
 0001:000a9480       ??$?MVfraction@@V?$allocator@Vfraction@@@std@@@std@@YA_NABV?$vector@Vfraction@@V?$allocator@Vfraction@@@std@@@0@0@Z 004aa480 f i engq:math_abstract.obj
 0001:000a94e0       ??$_Construct@V?$reverse_iterator@PAD@std@@@?$basic_string@DU?$char_traits@D@std@@V?$allocator@D@2@@std@@QAEXV?$reverse_iterator@PAD@1@V21@Uinput_iterator_tag@1@@Z 004aa4e0 f i engq:math_abstract.obj
 0001:000a96a0       ??$_Emplace_reallocate@ABVfraction@@@?$vector@Vfraction@@V?$allocator@Vfraction@@@std@@@std@@QAEPAVfraction@@QAV2@ABV2@@Z 004aa6a0 f i engq:math_abstract.obj
 0001:000a97b0       ??$_Fill_unchecked@PAHH@std@@YAXPAH0ABH@Z 004aa7b0 f i engq:math_abstract.obj
 0001:000a9830       ??$_Resize@V<lambda_d7fc9ff825e98d9e57db4712436a137a>@@@?$vector@Vfraction@@V?$allocator@Vfraction@@@std@@@std@@AAEXIV<lambda_d7fc9ff825e98d9e57db4712436a137a>@@@Z 004aa830 f i engq:math_abstract.obj
 0001:000a9940       ??$reverse@V?$_Vector_iterator@V?$_Vector_val@U?$_Simple_types@Vfraction@@@std@@@std@@@std@@@std@@YAXV?$_Vector_iterator@V?$_Vector_val@U?$_Simple_types@Vfraction@@@std@@@std@@@0@0@Z 004aa940 f i engq:math_abstract.obj
 0001:000a9980       ??0complexf@@QAE@XZ        004aa980 f i engq:math_abstract.obj
 0001:000a9990       ??0field2@@QAE@PBD@Z       004aa990 f   engq:math_abstract.obj
 0001:000a99d0       ??0mat2c@@QAE@ABV0@@Z      004aa9d0 f   engq:math_abstract.obj
 0001:000a9a10       ??0mat2c@@QAE@Vcomplexf@@000@Z 004aaa10 f   engq:math_abstract.obj
 0001:000a9a50       ??0mat2c@@QAE@Vcomplexf@@@Z 004aaa50 f   engq:math_abstract.obj
 0001:000a9aa0       ??0polynomial@@QAE@ABVfraction@@00000@Z 004aaaa0 f   engq:math_abstract.obj
 0001:000a9bc0       ??0polynomial@@QAE@ABVfraction@@0000@Z 004aabc0 f   engq:math_abstract.obj
 0001:000a9cc0       ??0polynomial@@QAE@ABVfraction@@000@Z 004aacc0 f   engq:math_abstract.obj
 0001:000a9d90       ??0polynomial@@QAE@ABVfraction@@00@Z 004aad90 f   engq:math_abstract.obj
 0001:000a9e40       ??0polynomial@@QAE@ABVfraction@@0@Z 004aae40 f   engq:math_abstract.obj
 0001:000a9ed0       ??0polynomial@@QAE@ABVfraction@@@Z 004aaed0 f   engq:math_abstract.obj
 0001:000a9f30       ??1polynomial@@QAE@XZ      004aaf30 f i engq:math_abstract.obj
 0001:000a9f90       ??4?$vector@Vfraction@@V?$allocator@Vfraction@@@std@@@std@@QAEAAV01@ABV01@@Z 004aaf90 f i engq:math_abstract.obj
 0001:000aa0e0       ??6@YAAAV?$basic_ostream@DU?$char_traits@D@std@@@std@@AAV01@ABVfield2@@@Z 004ab0e0 f   engq:math_abstract.obj
 0001:000aa1c0       ??6@YAAAV?$basic_ostream@DU?$char_traits@D@std@@@std@@AAV01@Vfraction@@@Z 004ab1c0 f   engq:math_abstract.obj
 0001:000aa210       ??8polynomial@@QBE_NABV0@@Z 004ab210 f   engq:math_abstract.obj
 0001:000aa230       ??9field2@@QBE_NABV0@@Z    004ab230 f   engq:math_abstract.obj
 0001:000aa250       ??9polynomial@@QBE_NABV0@@Z 004ab250 f   engq:math_abstract.obj
 0001:000aa270       ??Bcomplexf@@QAE?AUpointf2@@XZ 004ab270 f   engq:math_abstract.obj
 0001:000aa290       ??Dfield2@@QBE?AV0@ABV0@@Z 004ab290 f   engq:math_abstract.obj
 0001:000aa2e0       ??Dfraction@@QBE?AV0@ABV0@@Z 004ab2e0 f   engq:math_abstract.obj
 0001:000aa3a0       ??Dmat2c@@QBE?AV0@V0@@Z    004ab3a0 f   engq:math_abstract.obj
 0001:000aa5a0       ??Dpolynomial@@QBE?AV0@ABV0@@Z 004ab5a0 f   engq:math_abstract.obj
 0001:000aa780       ??Efraction@@QAE?AV0@H@Z   004ab780 f   engq:math_abstract.obj
 0001:000aa7a0       ??Efraction@@QAE?AV0@XZ    004ab7a0 f   engq:math_abstract.obj
 0001:000aa7c0       ??Ffraction@@QAE?AV0@H@Z   004ab7c0 f   engq:math_abstract.obj
 0001:000aa7e0       ??Ffraction@@QAE?AV0@XZ    004ab7e0 f   engq:math_abstract.obj
 0001:000aa800       ??Gfield2@@QBE?AV0@XZ      004ab800 f   engq:math_abstract.obj
 0001:000aa810       ??Gfraction@@QBE?AV0@ABV0@@Z 004ab810 f   engq:math_abstract.obj
 0001:000aa880       ??Gfraction@@QBE?AV0@XZ    004ab880 f   engq:math_abstract.obj
 0001:000aa8f0       ??Gmat2c@@QAE?AV0@XZ       004ab8f0 f   engq:math_abstract.obj
 0001:000aa9a0       ??Gmat2c@@QBE?AV0@V0@@Z    004ab9a0 f   engq:math_abstract.obj
 0001:000aaa60       ??Gpolynomial@@QBE?AV0@ABV0@@Z 004aba60 f   engq:math_abstract.obj
 0001:000aad30       ??Gpolynomial@@QBE?AV0@XZ  004abd30 f   engq:math_abstract.obj
 0001:000aae10       ??Hfield2@@QBE?AV0@ABV0@@Z 004abe10 f   engq:math_abstract.obj
 0001:000aae30       ??Hfraction@@QBE?AV0@ABV0@@Z 004abe30 f   engq:math_abstract.obj
 0001:000aaec0       ??Hmat2c@@QBE?AV0@ABV0@@Z  004abec0 f   engq:math_abstract.obj
 0001:000aaf80       ??Hpolynomial@@QBE?AV0@ABV0@@Z 004abf80 f   engq:math_abstract.obj
 0001:000ab070       ??Kcomplexf@@QBE?AV0@V0@@Z 004ac070 f   engq:math_abstract.obj
 0001:000ab0e0       ??Kfield2@@QBE?AV0@ABV0@@Z 004ac0e0 f   engq:math_abstract.obj
 0001:000ab130       ??Kfraction@@QBE?AV0@ABV0@@Z 004ac130 f   engq:math_abstract.obj
 0001:000ab1f0       ??Kpolynomial@@QBE?AV0@ABV0@@Z 004ac1f0 f   engq:math_abstract.obj
 0001:000ab290       ??Lpolynomial@@QBE?AV0@ABV0@@Z 004ac290 f   engq:math_abstract.obj
 0001:000ab340       ??Mpolynomial@@QBE_NABV0@@Z 004ac340 f   engq:math_abstract.obj
 0001:000ab3c0       ??Npolynomial@@QBE_NABV0@@Z 004ac3c0 f   engq:math_abstract.obj
 0001:000ab440       ??Opolynomial@@QBE_NABV0@@Z 004ac440 f   engq:math_abstract.obj
 0001:000ab4c0       ??Ppolynomial@@QBE_NABV0@@Z 004ac4c0 f   engq:math_abstract.obj
 0001:000ab540       ??Xfield2@@QAE?AV0@ABV0@@Z 004ac540 f   engq:math_abstract.obj
 0001:000ab590       ??Xfraction@@QAE?AV0@ABV0@@Z 004ac590 f   engq:math_abstract.obj
 0001:000ab5d0       ??Yfield2@@QAE?AV0@ABV0@@Z 004ac5d0 f   engq:math_abstract.obj
 0001:000ab5f0       ??Yfraction@@QAE?AV0@ABV0@@Z 004ac5f0 f   engq:math_abstract.obj
 0001:000ab630       ??Zfraction@@QAE?AV0@ABV0@@Z 004ac630 f   engq:math_abstract.obj
 0001:000ab670       ??_0fraction@@QAE?AV0@ABV0@@Z 004ac670 f   engq:math_abstract.obj
 0001:000ab6b0       ?_Buy@?$vector@HV?$allocator@H@std@@@std@@AAE_NI@Z 004ac6b0 f i engq:math_abstract.obj
 0001:000ab770       ?_Buy@?$vector@Vfraction@@V?$allocator@Vfraction@@@std@@@std@@AAE_NI@Z 004ac770 f i engq:math_abstract.obj
 0001:000ab7d0       ?_Change_array@?$vector@Vfraction@@V?$allocator@Vfraction@@@std@@@std@@AAEXQAVfraction@@II@Z 004ac7d0 f i engq:math_abstract.obj
 0001:000ab830       ?abs@fraction@@QBE?AV1@XZ  004ac830 f   engq:math_abstract.obj
 0001:000ab850       ?assign@?$vector@HV?$allocator@H@std@@@std@@QAEXIABH@Z 004ac850 f i engq:math_abstract.obj
 0001:000ab930       ?assign@?$vector@IV?$allocator@I@std@@@std@@QAEXIABI@Z 004ac930 f i engq:math_abstract.obj
 0001:000abb40       ?det@mat2c@@QBE?AVcomplexf@@XZ 004acb40 f   engq:math_abstract.obj
 0001:000abbc0       ?divmod@polynomial@@QBE?AV1@ABV1@AAV1@@Z 004acbc0 f   engq:math_abstract.obj
 0001:000ac020       ?downgrade@field2@@SAII@Z  004ad020 f   engq:math_abstract.obj
 0001:000ac080       ?eval@polynomial@@QBE?AVfraction@@ABV2@@Z 004ad080 f   engq:math_abstract.obj
 0001:000ac120       ?f2p@field2@@QBEHXZ        004ad120 f   engq:math_abstract.obj
 0001:000ac130       ?highest@polynomial@@QBE?AVfraction@@XZ 004ad130 f   engq:math_abstract.obj
 0001:000ac190       ?inv@mat2c@@QBE?AV1@XZ     004ad190 f   engq:math_abstract.obj
 0001:000ac370       ?p2f@field2@@SA?AV1@H@Z    004ad370 f   engq:math_abstract.obj
 0001:000ac3a0       ?reduce@fraction@@AAEXXZ   004ad3a0 f   engq:math_abstract.obj
 0001:000ac3f0       ?reduce@polynomial@@AAEXXZ 004ad3f0 f   engq:math_abstract.obj
 0001:000ac470       ?setprim@field2@@SAXPBD@Z  004ad470 f   engq:math_abstract.obj
 0001:000acc20       ?tostring@complexf@@QBE?AV?$basic_string@DU?$char_traits@D@std@@V?$allocator@D@2@@std@@XZ 004adc20 f   engq:math_abstract.obj
 0001:000accd0       ?tostring@fraction@@QBE?AV?$basic_string@DU?$char_traits@D@std@@V?$allocator@D@2@@std@@XZ 004adcd0 f   engq:math_abstract.obj
 0001:000acd60       ?tostring@mat2c@@QBE?AV?$basic_string@DU?$char_traits@D@std@@V?$allocator@D@2@@std@@XZ 004add60 f   engq:math_abstract.obj
 0001:000acfe0       ?tostring@polynomial@@QBE?AV?$basic_string@DU?$char_traits@D@std@@V?$allocator@D@2@@std@@XZ 004adfe0 f   engq:math_abstract.obj
 0001:000ad230       ?tovector@polynomial@@QBE?AV?$vector@Vfraction@@V?$allocator@Vfraction@@@std@@@std@@XZ 004ae230 f   engq:math_abstract.obj
 0001:000ad2f0       ?movieexit@@YAXXZ          004ae2f0 f   engq:m_movie.obj
 0001:000ad3c0       ?moviegetframe@@YAPAUbitmap32@@XZ 004ae3c0 f   engq:m_movie.obj
 0001:000ad7b0       ?movieinit@@YAHPADAAH1@Z   004ae7b0 f   engq:m_movie.obj
 0001:000adc50       ?close_VCT@model3@@IAEXXZ  004aec50 f   engq:d2_dx9effectshaders.obj
 0001:000addd0       ?close_VT@model3@@IAEXXZ   004aedd0 f   engq:d2_dx9effectshaders.obj
 0001:000adfb0       ?close_VT2@model3@@IAEXXZ  004aefb0 f   engq:d2_dx9effectshaders.obj
 0001:000ae2e0       ?close_VN@model3@@IAEXXZ   004af2e0 f   engq:d2_dx9effectshaders.obj
 0001:000ae3f0       ?close_VNT@model3@@IAEXXZ  004af3f0 f   engq:d2_dx9effectshaders.obj
 0001:000ae630       ?close_VNT2@model3@@IAEXXZ 004af630 f   engq:d2_dx9effectshaders.obj
 0001:000ae9c0       ?close_VNTM@model3@@IAEXXZ 004af9c0 f   engq:d2_dx9effectshaders.obj
 0001:000aecb0       ?close_VE@model3@@IAEXXZ   004afcb0 f   engq:d2_dx9effectshaders.obj
 0001:000aedc0       ??$_Destroy_range@V?$allocator@Ushadeslot@d2_dx9@@@std@@@std@@YAXPAUshadeslot@d2_dx9@@0AAV?$allocator@Ushadeslot@d2_dx9@@@0@@Z 004afdc0 f i engq:d2_dx9effectshaders.obj
 0001:000aee30       ??$_Emplace_reallocate@ABU?$referencecountelement@Vmodelb@@@@@?$vector@U?$referencecountelement@Vmodelb@@@@V?$allocator@U?$referencecountelement@Vmodelb@@@@@std@@@std@@QAEPAU?$referencecountelement@Vmodelb@@@@QAU2@ABU2@@Z 004afe30 f i engq:d2_dx9effectshaders.obj
 0001:000aefd0       ??$_Emplace_reallocate@ABUdx9_mater2@model3@@@?$vector@Udx9_mater2@model3@@V?$allocator@Udx9_mater2@model3@@@std@@@std@@QAEPAUdx9_mater2@model3@@QAU23@ABU23@@Z 004affd0 f i engq:d2_dx9effectshaders.obj
 0001:000af130       ??$_Emplace_reallocate@ABUshadeslot@d2_dx9@@@?$vector@Ushadeslot@d2_dx9@@V?$allocator@Ushadeslot@d2_dx9@@@std@@@std@@QAEPAUshadeslot@d2_dx9@@QAU23@ABU23@@Z 004b0130 f i engq:d2_dx9effectshaders.obj
 0001:000af300       ??$_Uninitialized_move@PAUshadeslot@d2_dx9@@PAU12@V?$allocator@Ushadeslot@d2_dx9@@@std@@@std@@YAPAUshadeslot@d2_dx9@@QAU12@0PAU12@AAV?$allocator@Ushadeslot@d2_dx9@@@0@@Z 004b0300 f i engq:d2_dx9effectshaders.obj
 0001:000af380       ??$newrc@Vmodel3@@@?$referencecount@Vmodelb@@@@QAEPAVmodelb@@PBD@Z 004b0380 f i engq:d2_dx9effectshaders.obj
 0001:000af580       ??$newrc@Vtexture3@@@?$referencecount@Vtextureb@@@@QAEPAVtextureb@@PBD@Z 004b0580 f i engq:d2_dx9effectshaders.obj
 0001:000af740       ??1model3@@UAE@XZ          004b0740 f   engq:d2_dx9effectshaders.obj
 0001:000af800       ??1shadeslot@d2_dx9@@QAE@XZ 004b0800 f i engq:d2_dx9effectshaders.obj
 0001:000af850       ??1texture3@@UAE@XZ        004b0850 f   engq:d2_dx9effectshaders.obj
 0001:000af8f0       ??_Gmodel3@@UAEPAXI@Z      004b08f0 f i engq:d2_dx9effectshaders.obj
 0001:000af8f0       ??_Emodel3@@UAEPAXI@Z      004b08f0 f i engq:d2_dx9effectshaders.obj
 0001:000af9d0       ??_Gtexture3@@UAEPAXI@Z    004b09d0 f i engq:d2_dx9effectshaders.obj
 0001:000af9d0       ??_Etexture3@@UAEPAXI@Z    004b09d0 f i engq:d2_dx9effectshaders.obj
 0001:000afa80       ?_Destroy@?$vector@Ushadeslot@d2_dx9@@V?$allocator@Ushadeslot@d2_dx9@@@std@@@std@@AAEXPAUshadeslot@d2_dx9@@0@Z 004b0a80 f i engq:d2_dx9effectshaders.obj
 0001:000afaa0       ?_Xlength@?$vector@U?$referencecountelement@Vmodelb@@@@V?$allocator@U?$referencecountelement@Vmodelb@@@@@std@@@std@@CAXXZ 004b0aa0 f i engq:d2_dx9effectshaders.obj
 0001:000afab0       ?_Xlength@?$vector@Udx9_mater2@model3@@V?$allocator@Udx9_mater2@model3@@@std@@@std@@CAXXZ 004b0ab0 f i engq:d2_dx9effectshaders.obj
 0001:000afac0       ?_Xlength@?$vector@Ushadeslot@d2_dx9@@V?$allocator@Ushadeslot@d2_dx9@@@std@@@std@@CAXXZ 004b0ac0 f i engq:d2_dx9effectshaders.obj
 0001:000afad0       ?addbitmap@texture3@@UAEXPBUbitmap32@@_N@Z 004b0ad0 f   engq:d2_dx9effectshaders.obj
 0001:000b0010       ?close@model3@@UAEXXZ      004b1010 f   engq:d2_dx9effectshaders.obj
 0001:000b01b0       ?close_ib@model3@@IAEXXZ   004b11b0 f   engq:d2_dx9effectshaders.obj
 0001:000b0400       ?createshaders@model3@@SAXXZ 004b1400 f   engq:d2_dx9effectshaders.obj
 0001:000b09b0       ?deallocate@?$allocator@Ushadeslot@d2_dx9@@@std@@QAEXQAUshadeslot@d2_dx9@@I@Z 004b19b0 f i engq:d2_dx9effectshaders.obj
 0001:000b09f0       ?destroyshaders@model3@@SAXXZ 004b19f0 f   engq:d2_dx9effectshaders.obj
 0001:000b0ab0       ?dolightsdestrec@model3@@AAEXPAUmat4@@@Z 004b1ab0 f   engq:d2_dx9effectshaders.obj
 0001:000b0c60       ?draw@model3@@UAEXPAUmat4@@0PAUpointf3@@MPAVtextureb@@PAUpointf2@@W4clipresult@@@Z 004b1c60 f   engq:d2_dx9effectshaders.obj
 0001:000b18e0       ?dx9_beginscene@@YAXXZ     004b28e0 f   engq:d2_dx9effectshaders.obj
 0001:000b18f0       ?dx9_createmodel@@YAPAVmodelb@@PBD@Z 004b28f0 f   engq:d2_dx9effectshaders.obj
 0001:000b1910       ?dx9_createtexture@@YAPAVtextureb@@PBD@Z 004b2910 f   engq:d2_dx9effectshaders.obj
 0001:000b1930       ?dx9_endscene@@YAX_N@Z     004b2930 f   engq:d2_dx9effectshaders.obj
 0001:000b1950       ?dx9_init@@YAXXZ           004b2950 f   engq:d2_dx9effectshaders.obj
 0001:000b1c00       ?dx9_rendertargetmainfunc@@YAXXZ 004b2c00 f   engq:d2_dx9effectshaders.obj
 0001:000b1c70       ?dx9_rendertargetshadowmapfunc@@YA_NXZ 004b2c70 f   engq:d2_dx9effectshaders.obj
 0001:000b1dc0       ?dx9_setviewport@@YAXPAUviewport2@@@Z 004b2dc0 f   engq:d2_dx9effectshaders.obj
 0001:000b2220       ?dx9_uninit@@YAXXZ         004b3220 f   engq:d2_dx9effectshaders.obj
 0001:000b23e0       ?findshaderidx@model3@@CAHPBD@Z 004b33e0 f   engq:d2_dx9effectshaders.obj
 0001:000b2990       ?getnextshadername@model3@@SAPBDPBD@Z 004b3990 f   engq:d2_dx9effectshaders.obj
 0001:000b2a30       ?getrefcount@d2_dx9@@YAHPAUIUnknown@@@Z 004b3a30 f   engq:d2_dx9effectshaders.obj
 0001:000b2a60       ?load@texture3@@UAEXXZ     004b3a60 f   engq:d2_dx9effectshaders.obj
 0001:000b2bc0       ?locktexture@texture3@@UAEPAUbitmap32@@XZ 004b3bc0 f   engq:d2_dx9effectshaders.obj
 0001:000b2c60       ?print4cc@texture3@@AAEPBDI@Z 004b3c60 f   engq:d2_dx9effectshaders.obj
 0001:000b2cb0       ?release_d3dpool_default@@YAXXZ 004b3cb0 f   engq:d2_dx9effectshaders.obj
 0001:000b2d60       ?reset_d3dpool_default@@YAXXZ 004b3d60 f   engq:d2_dx9effectshaders.obj
 0001:000b2f00       ?showline@model3@@UAEXXZ   004b3f00 f i engq:d2_dx9effectshaders.obj
 0001:000b2f20       ?showline@texture3@@UAEXXZ 004b3f20 f i engq:d2_dx9effectshaders.obj
 0001:000b2f90       ?unlocktexture@texture3@@UAEXXZ 004b3f90 f   engq:d2_dx9effectshaders.obj
 0001:000b2fd0       ?update@model3@@UAEXXZ     004b3fd0 f   engq:d2_dx9effectshaders.obj
 0001:000b3060       ??$_Emplace_reallocate@Umodel_mat@@@?$vector@Umodel_mat@@V?$allocator@Umodel_mat@@@std@@@std@@QAEPAUmodel_mat@@QAU2@$$QAU2@@Z 004b4060 f i engq:d2_bwo.obj
 0001:000b3270       ??0?$vector@UVC2@@V?$allocator@UVC2@@@std@@@std@@QAE@XZ 004b4270 f i engq:d2_bwo.obj
 0001:000b3290       ??0model_mat@@QAE@$$QAU0@@Z 004b4290 f i engq:d2_bwo.obj
 0001:000b3370       ??1?$vector@UIDX3M@@V?$allocator@UIDX3M@@@std@@@std@@QAE@XZ 004b4370 f i engq:d2_bwo.obj
 0001:000b33d0       ??1?$vector@UVC2@@V?$allocator@UVC2@@@std@@@std@@QAE@XZ 004b43d0 f i engq:d2_bwo.obj
 0001:000b3430       ??1?$vector@Umodel_mat@@V?$allocator@Umodel_mat@@@std@@@std@@QAE@XZ 004b4430 f i engq:d2_bwo.obj
 0001:000b34c0       ??1model_info@@QAE@XZ      004b44c0 f i engq:d2_bwo.obj
 0001:000b3570       ??1model_mat@@QAE@XZ       004b4570 f i engq:d2_bwo.obj
 0001:000b3650       ??1unchunker@@QAE@XZ       004b4650 f i engq:d2_bwo.obj
 0001:000b3660       ??4?$vector@UVC2@@V?$allocator@UVC2@@@std@@@std@@QAEAAV01@$$QAV01@@Z 004b4660 f i engq:d2_bwo.obj
 0001:000b36a0       ?_Tidy@?$vector@UIDX3M@@V?$allocator@UIDX3M@@@std@@@std@@AAEXXZ 004b46a0 f i engq:d2_bwo.obj
 0001:000b3700       ?_Tidy@?$vector@UVC2@@V?$allocator@UVC2@@@std@@@std@@AAEXXZ 004b4700 f i engq:d2_bwo.obj
 0001:000b3760       ?_Tidy@?$vector@UVC3@@V?$allocator@UVC3@@@std@@@std@@AAEXXZ 004b4760 f i engq:d2_bwo.obj
 0001:000b37d0       ?_Xlength@?$vector@Umodel_mat@@V?$allocator@Umodel_mat@@@std@@@std@@CAXXZ 004b47d0 f i engq:d2_bwo.obj
 0001:000b3ba0       ?loadbwomodel@@YAPAVmodelb@@PBD@Z 004b4ba0 f   engq:d2_bwo.obj
 0001:000b4910       ??$_Emplace_reallocate@ABUFLOAT_BEZv2@@@?$vector@UFLOAT_BEZv2@@V?$allocator@UFLOAT_BEZv2@@@std@@@std@@QAEPAUFLOAT_BEZv2@@QAU2@ABU2@@Z 004b5910 f i engq:d2_bws.obj
 0001:000b4ae0       ??$_Emplace_reallocate@ABUFLOAT_LIN@@@?$vector@UFLOAT_LIN@@V?$allocator@UFLOAT_LIN@@@std@@@std@@QAEPAUFLOAT_LIN@@QAU2@ABU2@@Z 004b5ae0 f i engq:d2_bws.obj
 0001:000b4c50       ??$_Emplace_reallocate@ABUPOS_BEZv2@@@?$vector@UPOS_BEZv2@@V?$allocator@UPOS_BEZv2@@@std@@@std@@QAEPAUPOS_BEZv2@@QAU2@ABU2@@Z 004b5c50 f i engq:d2_bws.obj
 0001:000b4e30       ??$_Emplace_reallocate@ABUPOS_LIN@@@?$vector@UPOS_LIN@@V?$allocator@UPOS_LIN@@@std@@@std@@QAEPAUPOS_LIN@@QAU2@ABU2@@Z 004b5e30 f i engq:d2_bws.obj
 0001:000b4f90       ??$_Emplace_reallocate@ABUPOS_TCB@@@?$vector@UPOS_TCB@@V?$allocator@UPOS_TCB@@@std@@@std@@QAEPAUPOS_TCB@@QAU2@ABU2@@Z 004b5f90 f i engq:d2_bws.obj
 0001:000b5140       ??$_Emplace_reallocate@ABUROT_BEZ@@@?$vector@UROT_BEZ@@V?$allocator@UROT_BEZ@@@std@@@std@@QAEPAUROT_BEZ@@QAU2@ABU2@@Z 004b6140 f i engq:d2_bws.obj
 0001:000b52e0       ??$_Emplace_reallocate@ABUROT_LIN@@@?$vector@UROT_LIN@@V?$allocator@UROT_LIN@@@std@@@std@@QAEPAUROT_LIN@@QAU2@ABU2@@Z 004b62e0 f i engq:d2_bws.obj
 0001:000b5480       ??$_Emplace_reallocate@ABUROT_TCB@@@?$vector@UROT_TCB@@V?$allocator@UROT_TCB@@@std@@@std@@QAEPAUROT_TCB@@QAU2@ABU2@@Z 004b6480 f i engq:d2_bws.obj
 0001:000b5640       ??$_Emplace_reallocate@ABUSCL_BEZv2@@@?$vector@USCL_BEZv2@@V?$allocator@USCL_BEZv2@@@std@@@std@@QAEPAUSCL_BEZv2@@QAU2@ABU2@@Z 004b6640 f i engq:d2_bws.obj
 0001:000b5820       ??$_Emplace_reallocate@ABUSCL_LIN@@@?$vector@USCL_LIN@@V?$allocator@USCL_LIN@@@std@@@std@@QAEPAUSCL_LIN@@QAU2@ABU2@@Z 004b6820 f i engq:d2_bws.obj
 0001:000b5980       ??$_Emplace_reallocate@ABUSCL_TCB@@@?$vector@USCL_TCB@@V?$allocator@USCL_TCB@@@std@@@std@@QAEPAUSCL_TCB@@QAU2@ABU2@@Z 004b6980 f i engq:d2_bws.obj
 0001:000b5b30       ??$_Emplace_reallocate@Utree_info@@@?$vector@Utree_info@@V?$allocator@Utree_info@@@std@@@std@@QAEPAUtree_info@@QAU2@$$QAU2@@Z 004b6b30 f i engq:d2_bws.obj
 0001:000b5d50       ??$float2key@UFLOAT_BEZv2@@@@YAXABV?$vector@UFLOAT_BEZv2@@V?$allocator@UFLOAT_BEZv2@@@std@@@std@@PAVtree2@@H@Z 004b6d50 f i engq:d2_bws.obj
 0001:000b5ef0       ??$float2key@UFLOAT_LIN@@@@YAXABV?$vector@UFLOAT_LIN@@V?$allocator@UFLOAT_LIN@@@std@@@std@@PAVtree2@@H@Z 004b6ef0 f i engq:d2_bws.obj
 0001:000b6040       ??$pos2key@UPOS_LIN@@@@YAXABV?$vector@UPOS_LIN@@V?$allocator@UPOS_LIN@@@std@@@std@@PAVtree2@@@Z 004b7040 f i engq:d2_bws.obj
 0001:000b6290       ??$pos2key@UPOS_TCB@@@@YAXABV?$vector@UPOS_TCB@@V?$allocator@UPOS_TCB@@@std@@@std@@PAVtree2@@@Z 004b7290 f i engq:d2_bws.obj
 0001:000b6510       ??$rot2key@UROT_BEZ@@@@YAXABV?$vector@UROT_BEZ@@V?$allocator@UROT_BEZ@@@std@@@std@@PAVtree2@@@Z 004b7510 f i engq:d2_bws.obj
 0001:000b67b0       ??$rot2key@UROT_LIN@@@@YAXABV?$vector@UROT_LIN@@V?$allocator@UROT_LIN@@@std@@@std@@PAVtree2@@@Z 004b77b0 f i engq:d2_bws.obj
 0001:000b6a50       ??$rot2key@UROT_TCB@@@@YAXABV?$vector@UROT_TCB@@V?$allocator@UROT_TCB@@@std@@@std@@PAVtree2@@@Z 004b7a50 f i engq:d2_bws.obj
 0001:000b6cf0       ??$scl2key@USCL_LIN@@@@YAXABV?$vector@USCL_LIN@@V?$allocator@USCL_LIN@@@std@@@std@@PAVtree2@@@Z 004b7cf0 f i engq:d2_bws.obj
 0001:000b6f40       ??$scl2key@USCL_TCB@@@@YAXABV?$vector@USCL_TCB@@V?$allocator@USCL_TCB@@@std@@@std@@PAVtree2@@@Z 004b7f40 f i engq:d2_bws.obj
 0001:000b71c0       ??0?$vector@PAVtree2@@V?$allocator@PAVtree2@@@std@@@std@@QAE@IABQAVtree2@@ABV?$allocator@PAVtree2@@@1@@Z 004b81c0 f i engq:d2_bws.obj
 0001:000b7270       ??0tree_info@@QAE@$$QAU0@@Z 004b8270 f i engq:d2_bws.obj
 0001:000b7950       ??0tree_info@@QAE@XZ       004b8950 f i engq:d2_bws.obj
 0001:000b7c20       ??1?$vector@UFLOAT_BEZv2@@V?$allocator@UFLOAT_BEZv2@@@std@@@std@@QAE@XZ 004b8c20 f i engq:d2_bws.obj
 0001:000b7ca0       ??1?$vector@UPOS_BEZv2@@V?$allocator@UPOS_BEZv2@@@std@@@std@@QAE@XZ 004b8ca0 f i engq:d2_bws.obj
 0001:000b7d10       ??1?$vector@UPOS_TCB@@V?$allocator@UPOS_TCB@@@std@@@std@@QAE@XZ 004b8d10 f i engq:d2_bws.obj
 0001:000b7d80       ??1?$vector@UROT_BEZ@@V?$allocator@UROT_BEZ@@@std@@@std@@QAE@XZ 004b8d80 f i engq:d2_bws.obj
 0001:000b7df0       ??1?$vector@UROT_LIN@@V?$allocator@UROT_LIN@@@std@@@std@@QAE@XZ 004b8df0 f i engq:d2_bws.obj
 0001:000b7e60       ??1?$vector@UROT_TCB@@V?$allocator@UROT_TCB@@@std@@@std@@QAE@XZ 004b8e60 f i engq:d2_bws.obj
 0001:000b7ed0       ??1?$vector@USCL_BEZv2@@V?$allocator@USCL_BEZv2@@@std@@@std@@QAE@XZ 004b8ed0 f i engq:d2_bws.obj
 0001:000b7f40       ??1?$vector@USCL_TCB@@V?$allocator@USCL_TCB@@@std@@@std@@QAE@XZ 004b8f40 f i engq:d2_bws.obj
 0001:000b7fb0       ??1?$vector@Utree_info@@V?$allocator@Utree_info@@@std@@@std@@QAE@XZ 004b8fb0 f i engq:d2_bws.obj
 0001:000b8040       ??1tree_info@@QAE@XZ       004b9040 f i engq:d2_bws.obj
 0001:000b82b0       ??4?$basic_string@DU?$char_traits@D@std@@V?$allocator@D@2@@std@@QAEAAV01@$$QAV01@@Z 004b92b0 f i engq:d2_bws.obj
 0001:000b82f0       ?_Tidy@?$vector@PAVtree2@@V?$allocator@PAVtree2@@@std@@@std@@AAEXXZ 004b92f0 f i engq:d2_bws.obj
 0001:000b8350       ?_Xlength@?$vector@UFLOAT_BEZv2@@V?$allocator@UFLOAT_BEZv2@@@std@@@std@@CAXXZ 004b9350 f i engq:d2_bws.obj
 0001:000b8360       ?_Xlength@?$vector@UFLOAT_LIN@@V?$allocator@UFLOAT_LIN@@@std@@@std@@CAXXZ 004b9360 f i engq:d2_bws.obj
 0001:000b8370       ?_Xlength@?$vector@UPOS_BEZv2@@V?$allocator@UPOS_BEZv2@@@std@@@std@@CAXXZ 004b9370 f i engq:d2_bws.obj
 0001:000b8380       ?_Xlength@?$vector@UPOS_LIN@@V?$allocator@UPOS_LIN@@@std@@@std@@CAXXZ 004b9380 f i engq:d2_bws.obj
 0001:000b8390       ?_Xlength@?$vector@UPOS_TCB@@V?$allocator@UPOS_TCB@@@std@@@std@@CAXXZ 004b9390 f i engq:d2_bws.obj
 0001:000b83a0       ?_Xlength@?$vector@UROT_BEZ@@V?$allocator@UROT_BEZ@@@std@@@std@@CAXXZ 004b93a0 f i engq:d2_bws.obj
 0001:000b83b0       ?_Xlength@?$vector@UROT_LIN@@V?$allocator@UROT_LIN@@@std@@@std@@CAXXZ 004b93b0 f i engq:d2_bws.obj
 0001:000b83c0       ?_Xlength@?$vector@UROT_TCB@@V?$allocator@UROT_TCB@@@std@@@std@@CAXXZ 004b93c0 f i engq:d2_bws.obj
 0001:000b83d0       ?_Xlength@?$vector@USCL_BEZv2@@V?$allocator@USCL_BEZv2@@@std@@@std@@CAXXZ 004b93d0 f i engq:d2_bws.obj
 0001:000b83e0       ?_Xlength@?$vector@USCL_LIN@@V?$allocator@USCL_LIN@@@std@@@std@@CAXXZ 004b93e0 f i engq:d2_bws.obj
 0001:000b83f0       ?_Xlength@?$vector@USCL_TCB@@V?$allocator@USCL_TCB@@@std@@@std@@CAXXZ 004b93f0 f i engq:d2_bws.obj
 0001:000b8400       ?_Xlength@?$vector@Utree_info@@V?$allocator@Utree_info@@@std@@@std@@CAXXZ 004b9400 f i engq:d2_bws.obj
 0001:000b8410       ?deallocate@?$allocator@Utree_info@@@std@@QAEXQAUtree_info@@I@Z 004b9410 f i engq:d2_bws.obj
 0001:000b9440       ?loadbws@@YAXPAVtree2@@@Z  004ba440 f   engq:d2_bws.obj
 0001:000ba730       ?pos2key@@YAXABV?$vector@UPOS_BEZv2@@V?$allocator@UPOS_BEZv2@@@std@@@std@@PAVtree2@@@Z 004bb730 f   engq:d2_bws.obj
 0001:000ba9f0       ?push_back@?$vector@UFLOAT_BEZv2@@V?$allocator@UFLOAT_BEZv2@@@std@@@std@@QAEXABUFLOAT_BEZv2@@@Z 004bb9f0 f i engq:d2_bws.obj
 0001:000baa30       ?push_back@?$vector@UROT_LIN@@V?$allocator@UROT_LIN@@@std@@@std@@QAEXABUROT_LIN@@@Z 004bba30 f i engq:d2_bws.obj
 0001:000baa60       ?push_back@?$vector@V?$basic_string@DU?$char_traits@D@std@@V?$allocator@D@2@@std@@V?$allocator@V?$basic_string@DU?$char_traits@D@std@@V?$allocator@D@2@@std@@@2@@std@@QAEXABV?$basic_string@DU?$char_traits@D@std@@V?$allocator@D@2@@2@@Z 004bba60 f i engq:d2_bws.obj
 0001:000baa90       ?scl2key@@YAXABV?$vector@USCL_BEZv2@@V?$allocator@USCL_BEZv2@@@std@@@std@@PAVtree2@@@Z 004bba90 f   engq:d2_bws.obj
 0001:000bad60       ?software_drawchars@@YAXABUfntque@@@Z 004bbd60 f   engq:d2_software_font.obj
 0001:000bae80       ?software_drawtextque_do@@YAXXZ 004bbe80 f   engq:d2_software_font.obj
 0001:000bb0c0       ??$newrc@Vmodel2@@@?$referencecount@Vmodelb@@@@QAEPAVmodelb@@PBD@Z 004bc0c0 f i engq:d2_software.obj
 0001:000bb270       ??$newrc@Vtexture2@@@?$referencecount@Vtextureb@@@@QAEPAVtextureb@@PBD@Z 004bc270 f i engq:d2_software.obj
 0001:000bb430       ??1texture2@@UAE@XZ        004bc430 f   engq:d2_software.obj
 0001:000bb4c0       ??_Emodel2@@UAEPAXI@Z      004bc4c0 f i engq:d2_software.obj
 0001:000bb4c0       ??_Gmodel2@@UAEPAXI@Z      004bc4c0 f i engq:d2_software.obj
 0001:000bb4f0       ??_Gtexture2@@UAEPAXI@Z    004bc4f0 f i engq:d2_software.obj
 0001:000bb4f0       ??_Etexture2@@UAEPAXI@Z    004bc4f0 f i engq:d2_software.obj
 0001:000bb5a0       ?addbitmap@texture2@@UAEXPBUbitmap32@@_N@Z 004bc5a0 f   engq:d2_software.obj
 0001:000bb710       ?checkandor@model2@@AAE?AW4clipresult@@XZ 004bc710 f   engq:d2_software.obj
 0001:000bb7f0       ?close@model2@@UAEXXZ      004bc7f0 f   engq:d2_software.obj
 0001:000bb880       ?dolightsdestrec@model2@@AAEXPAUmat4@@@Z 004bc880 f   engq:d2_software.obj
 0001:000bbb30       ?draw@model2@@UAEXPAUmat4@@0PAUpointf3@@MPAVtextureb@@PAUpointf2@@W4clipresult@@@Z 004bcb30 f   engq:d2_software.obj
 0001:000bbfc0       ?load@texture2@@UAEXXZ     004bcfc0 f   engq:d2_software.obj
 0001:000bc090       ?locktexture@texture2@@UAEPAUbitmap32@@XZ 004bd090 f   engq:d2_software.obj
 0001:000bc270       ?showline@model2@@UAEXXZ   004bd270 f i engq:d2_software.obj
 0001:000bc290       ?showline@texture2@@UAEXXZ 004bd290 f i engq:d2_software.obj
 0001:000bc2f0       ?software_beginscene@@YAXXZ 004bd2f0 f   engq:d2_software.obj
 0001:000bda50       ?software_createmodel@@YAPAVmodelb@@PBD@Z 004bea50 f   engq:d2_software.obj
 0001:000bda70       ?software_createtexture@@YAPAVtextureb@@PBD@Z 004bea70 f   engq:d2_software.obj
 0001:000bda90       ?software_endscene@@YAX_N@Z 004bea90 f   engq:d2_software.obj
 0001:000bdaa0       ?software_init@@YAXXZ      004beaa0 f   engq:d2_software.obj
 0001:000bdb00       ?software_rendertargetmainfunc@@YAXXZ 004beb00 f   engq:d2_software.obj
 0001:000bdb10       ?software_rendertargetshadowmapfunc@@YA_NXZ 004beb10 f   engq:d2_software.obj
 0001:000bdb20       ?software_setviewport@@YAXPAUviewport2@@@Z 004beb20 f   engq:d2_software.obj
 0001:000bdd60       ?software_uninit@@YAXXZ    004bed60 f   engq:d2_software.obj
 0001:000bdd80       ?unlocktexture@texture2@@UAEXXZ 004bed80 f   engq:d2_software.obj
 0001:000bddc0       ?update@model2@@UAEXXZ     004bedc0 f   engq:d2_software.obj
 0001:000bde70       ?gdi_getnsubdrivers@@YAPAVscript@@XZ 004bee70 f   engq:m_vid_gdi.obj
 0001:000bdf70       ?gdi_lock@@YAXXZ           004bef70 f   engq:m_vid_gdi.obj
 0001:000bdfa0       ?gdi_paintwindow@@YAXI@Z   004befa0 f   engq:m_vid_gdi.obj
 0001:000be070       ?gdi_setupwindow@@YAHHH@Z  004bf070 f   engq:m_vid_gdi.obj
 0001:000be250       ?gdi_unlock@@YAXXZ         004bf250 f   engq:m_vid_gdi.obj
 0001:000be280       ?gdi_video_uninit@@YAXXZ   004bf280 f   engq:m_vid_gdi.obj
 0001:000be2c0       ?ddraw_getnsubdrivers@@YAPAVscript@@XZ 004bf2c0 f   engq:m_vid_ddraw.obj
 0001:000be330       ?ddraw_lock@@YAXXZ         004bf330 f   engq:m_vid_ddraw.obj
 0001:000be360       ?ddraw_paintwindow@@YAXI@Z 004bf360 f   engq:m_vid_ddraw.obj
 0001:000be470       ?ddraw_setupwindow@@YAHHH@Z 004bf470 f   engq:m_vid_ddraw.obj
 0001:000be820       ?ddraw_unlock@@YAXXZ       004bf820 f   engq:m_vid_ddraw.obj
 0001:000be850       ?ddraw_video_uninit@@YAXXZ 004bf850 f   engq:m_vid_ddraw.obj
 0001:000bef50       ?gfxread8_pcx@@YAPAUbitmap8@@PBDPAUC32@@@Z 004bff50 f   engq:m_gfx_pcx.obj
 0001:000bf1e0       ?gfxwrite8_pcx@@YAXPBDPBUbitmap8@@PBUC32@@@Z 004c01e0 f   engq:m_gfx_pcx.obj
 0001:000bf330       ?gfxread32_tga@@YAPAUbitmap32@@PBD@Z 004c0330 f   engq:m_gfx_tga.obj
 0001:000bf890       ?gfxwrite32_tga@@YAXPBDPBUbitmap32@@@Z 004c0890 f   engq:m_gfx_tga.obj
 0001:000c0290       ?gfxread32_dds@@YAPAUbitmap32@@PBD@Z 004c1290 f   engq:m_gfx_dds.obj
 0001:000c0aa0       ??$_Resize@V<lambda_1c24340e0c23a1361b49dbc3231bff51>@@@?$vector@EV?$allocator@E@std@@@std@@AAEXIV<lambda_1c24340e0c23a1361b49dbc3231bff51>@@@Z 004c1aa0 f i engq:m_gfx_png.obj
 0001:000c0be0       ?fixupRGBA@@YAXAAV?$vector@EV?$allocator@E@std@@@std@@@Z 004c1be0 f   engq:m_gfx_png.obj
 0001:000c0c20       ?gfxread32_png@@YAPAUbitmap32@@PBD@Z 004c1c20 f   engq:m_gfx_png.obj
 0001:000c0e40       ?gfxwrite32_png@@YAXPBDPBUbitmap32@@@Z 004c1e40 f   engq:m_gfx_png.obj
 0001:000c10e0       ?gfxread8_lbm@@YAPAUbitmap8@@PBDPAUC32@@@Z 004c20e0 f   engq:m_gfx_lbm.obj
 0001:000c1de0       ?d2_drawtextque_build@@YAPAVmodelb@@XZ 004c2de0 f   engq:d2_dx9_font.obj
 0001:000c20a0       ?d2_drawtextque_do@@YAXXZ  004c30a0 f   engq:d2_dx9_font.obj
 0001:000c2450       ??$_Emplace_reallocate@ABUIDX3@@@?$vector@UIDX3@@V?$allocator@UIDX3@@@std@@@std@@QAEPAUIDX3@@QAU2@ABU2@@Z 004c3450 f i engq:m_chunk.obj
 0001:000c25f0       ??$_Emplace_reallocate@ABUIDX3M@@@?$vector@UIDX3M@@V?$allocator@UIDX3M@@@std@@@std@@QAEPAUIDX3M@@QAU2@ABU2@@Z 004c35f0 f i engq:m_chunk.obj
 0001:000c2750       ??$_Emplace_reallocate@ABUVC2@@@?$vector@UVC2@@V?$allocator@UVC2@@@std@@@std@@QAEPAUVC2@@QAU2@ABU2@@Z 004c3750 f i engq:m_chunk.obj
 0001:000c28c0       ??$_Emplace_reallocate@ABUVC3@@@?$vector@UVC3@@V?$allocator@UVC3@@@std@@@std@@QAEPAUVC3@@QAU2@ABU2@@Z 004c38c0 f i engq:m_chunk.obj
 0001:000c2a60       ??$_Emplace_reallocate@ABUVC3M@@@?$vector@UVC3M@@V?$allocator@UVC3M@@@std@@@std@@QAEPAUVC3M@@QAU2@ABU2@@Z 004c3a60 f i engq:m_chunk.obj
 0001:000c2bc0       ??0chunker@@QAE@QBD@Z      004c3bc0 f   engq:m_chunk.obj
 0001:000c2c30       ??0unchunker@@QAE@QBD@Z    004c3c30 f   engq:m_chunk.obj
 0001:000c2c80       ??1?$vector@UIDX3@@V?$allocator@UIDX3@@@std@@@std@@QAE@XZ 004c3c80 f i engq:m_chunk.obj
 0001:000c2c90       ??1?$vector@UVC3@@V?$allocator@UVC3@@@std@@@std@@QAE@XZ 004c3c90 f i engq:m_chunk.obj
 0001:000c2ca0       ??1?$vector@UVC3M@@V?$allocator@UVC3M@@@std@@@std@@QAE@XZ 004c3ca0 f i engq:m_chunk.obj
 0001:000c2d00       ?_Change_array@?$vector@HV?$allocator@H@std@@@std@@AAEXQAHII@Z 004c3d00 f i engq:m_chunk.obj
 0001:000c2d60       ?_Tidy@?$vector@UIDX3@@V?$allocator@UIDX3@@@std@@@std@@AAEXXZ 004c3d60 f i engq:m_chunk.obj
 0001:000c2dd0       ?_Tidy@?$vector@UVC3M@@V?$allocator@UVC3M@@@std@@@std@@AAEXXZ 004c3dd0 f i engq:m_chunk.obj
 0001:000c2e30       ?_Xlength@?$vector@UIDX3@@V?$allocator@UIDX3@@@std@@@std@@CAXXZ 004c3e30 f i engq:m_chunk.obj
 0001:000c2e40       ?_Xlength@?$vector@UIDX3M@@V?$allocator@UIDX3M@@@std@@@std@@CAXXZ 004c3e40 f i engq:m_chunk.obj
 0001:000c2e50       ?_Xlength@?$vector@UVC2@@V?$allocator@UVC2@@@std@@@std@@CAXXZ 004c3e50 f i engq:m_chunk.obj
 0001:000c2e60       ?_Xlength@?$vector@UVC3@@V?$allocator@UVC3@@@std@@@std@@CAXXZ 004c3e60 f i engq:m_chunk.obj
 0001:000c2e70       ?_Xlength@?$vector@UVC3M@@V?$allocator@UVC3M@@@std@@@std@@CAXXZ 004c3e70 f i engq:m_chunk.obj
 0001:000c2e80       ?endchunk@chunker@@QAE_NW4chunkname@@@Z 004c3e80 f   engq:m_chunk.obj
 0001:000c2f10       ?getchunkheader@unchunker@@QAE_NAAW4chunkname@@AAW4chunktype@@AAH22@Z 004c3f10 f   engq:m_chunk.obj
 0001:000c3030       ?getchunkname_strs@unchunker@@SAQBDW4chunkname@@@Z 004c4030 f   engq:m_chunk.obj
 0001:000c3050       ?getchunktype_bytesize@unchunker@@SAHW4chunktype@@@Z 004c4050 f   engq:m_chunk.obj
 0001:000c3080       ?getchunktype_strs@unchunker@@SAQBDW4chunktype@@@Z 004c4080 f   engq:m_chunk.obj
 0001:000c30b0       ?readFLOAT@unchunker@@QAEXAAM@Z 004c40b0 f   engq:m_chunk.obj
 0001:000c30d0       ?readFLOAT_BEZv2@unchunker@@QAEXAAUFLOAT_BEZv2@@@Z 004c40d0 f   engq:m_chunk.obj
 0001:000c3150       ?readFLOAT_LIN@unchunker@@QAEXAAUFLOAT_LIN@@@Z 004c4150 f   engq:m_chunk.obj
 0001:000c3180       ?readFLOAT_TCB@unchunker@@QAEXAAUFLOAT_TCB@@@Z 004c4180 f   engq:m_chunk.obj
 0001:000c3200       ?readI32@unchunker@@QAEXAAH@Z 004c4200 f   engq:m_chunk.obj
 0001:000c3220       ?readI32v@unchunker@@QAE?AV?$vector@HV?$allocator@H@std@@@std@@XZ 004c4220 f   engq:m_chunk.obj
 0001:000c32f0       ?readI8v@unchunker@@QAE?AV?$basic_string@DU?$char_traits@D@std@@V?$allocator@D@2@@std@@XZ 004c42f0 f   engq:m_chunk.obj
 0001:000c33d0       ?readIDX3@unchunker@@QAEXAAUIDX3@@@Z 004c43d0 f   engq:m_chunk.obj
 0001:000c33f0       ?readIDX3M@unchunker@@QAEXAAUIDX3M@@@Z 004c43f0 f   engq:m_chunk.obj
 0001:000c3410       ?readIDX3Mv@unchunker@@QAE?AV?$vector@UIDX3M@@V?$allocator@UIDX3M@@@std@@@std@@XZ 004c4410 f   engq:m_chunk.obj
 0001:000c34e0       ?readIDX3v@unchunker@@QAE?AV?$vector@UIDX3@@V?$allocator@UIDX3@@@std@@@std@@XZ 004c44e0 f   engq:m_chunk.obj
 0001:000c35c0       ?readMATRIX34@unchunker@@QAE?AUMATRIX34@@XZ 004c45c0 f   engq:m_chunk.obj
 0001:000c3610       ?readPOS_BEZv2@unchunker@@QAEXAAUPOS_BEZv2@@@Z 004c4610 f   engq:m_chunk.obj
 0001:000c3730       ?readPOS_LIN@unchunker@@QAEXAAUPOS_LIN@@@Z 004c4730 f   engq:m_chunk.obj
 0001:000c3780       ?readPOS_TCB@unchunker@@QAEXAAUPOS_TCB@@@Z 004c4780 f   engq:m_chunk.obj
 0001:000c3820       ?readROT_BEZ@unchunker@@QAEXAAUROT_BEZ@@@Z 004c4820 f   engq:m_chunk.obj
 0001:000c3880       ?readROT_LIN@unchunker@@QAEXAAUROT_LIN@@@Z 004c4880 f   engq:m_chunk.obj
 0001:000c38e0       ?readROT_TCB@unchunker@@QAEXAAUROT_TCB@@@Z 004c48e0 f   engq:m_chunk.obj
 0001:000c3990       ?readSCL_BEZv2@unchunker@@QAEXAAUSCL_BEZv2@@@Z 004c4990 f   engq:m_chunk.obj
 0001:000c3ab0       ?readSCL_LIN@unchunker@@QAEXAAUSCL_LIN@@@Z 004c4ab0 f   engq:m_chunk.obj
 0001:000c3b00       ?readSCL_TCB@unchunker@@QAEXAAUSCL_TCB@@@Z 004c4b00 f   engq:m_chunk.obj
 0001:000c3ba0       ?readVC2@unchunker@@QAEXAAUVC2@@@Z 004c4ba0 f   engq:m_chunk.obj
 0001:000c3bc0       ?readVC2v@unchunker@@QAE?AV?$vector@UVC2@@V?$allocator@UVC2@@@std@@@std@@XZ 004c4bc0 f   engq:m_chunk.obj
 0001:000c3c90       ?readVC3@unchunker@@QAEXAAUVC3@@@Z 004c4c90 f   engq:m_chunk.obj
 0001:000c3cb0       ?readVC3M@unchunker@@QAEXAAUVC3M@@@Z 004c4cb0 f   engq:m_chunk.obj
 0001:000c3cd0       ?readVC3Mv@unchunker@@QAE?AV?$vector@UVC3M@@V?$allocator@UVC3M@@@std@@@std@@XZ 004c4cd0 f   engq:m_chunk.obj
 0001:000c3da0       ?readVC3v@unchunker@@QAE?AV?$vector@UVC3@@V?$allocator@UVC3@@@std@@@std@@XZ 004c4da0 f   engq:m_chunk.obj
 0001:000c3e80       ?readVC4@unchunker@@QAEXAAUpointf3@@@Z 004c4e80 f   engq:m_chunk.obj
 0001:000c3ea0       ?skipdata@unchunker@@QAEXXZ 004c4ea0 f   engq:m_chunk.obj
 0001:000c3ed0       ?startchunk@chunker@@QAE_NW4chunkname@@@Z 004c4ed0 f   engq:m_chunk.obj
 0001:000c3f40       ?unchunktest@@YAXPBDH@Z    004c4f40 f   engq:m_chunk.obj
 0001:000c5dc0       ?write@chunker@@QAE_NW4chunkname@@ABUFLOAT_BEZv2@@@Z 004c6dc0 f   engq:m_chunk.obj
 0001:000c5e70       ?write@chunker@@QAE_NW4chunkname@@ABUFLOAT_LIN@@@Z 004c6e70 f   engq:m_chunk.obj
 0001:000c5ed0       ?write@chunker@@QAE_NW4chunkname@@ABUFLOAT_TCB@@@Z 004c6ed0 f   engq:m_chunk.obj
 0001:000c5f80       ?write@chunker@@QAE_NW4chunkname@@ABUMATRIX34@@@Z 004c6f80 f   engq:m_chunk.obj
 0001:000c6030       ?write@chunker@@QAE_NW4chunkname@@ABUPOS_BEZv2@@@Z 004c7030 f   engq:m_chunk.obj
 0001:000c6180       ?write@chunker@@QAE_NW4chunkname@@ABUPOS_LIN@@@Z 004c7180 f   engq:m_chunk.obj
 0001:000c6200       ?write@chunker@@QAE_NW4chunkname@@ABUPOS_TCB@@@Z 004c7200 f   engq:m_chunk.obj
 0001:000c62d0       ?write@chunker@@QAE_NW4chunkname@@ABUROT_BEZ@@@Z 004c72d0 f   engq:m_chunk.obj
 0001:000c6360       ?write@chunker@@QAE_NW4chunkname@@ABUROT_LIN@@@Z 004c7360 f   engq:m_chunk.obj
 0001:000c63f0       ?write@chunker@@QAE_NW4chunkname@@ABUROT_TCB@@@Z 004c73f0 f   engq:m_chunk.obj
 0001:000c64d0       ?write@chunker@@QAE_NW4chunkname@@ABUSCL_BEZv2@@@Z 004c74d0 f   engq:m_chunk.obj
 0001:000c6620       ?write@chunker@@QAE_NW4chunkname@@ABUSCL_LIN@@@Z 004c7620 f   engq:m_chunk.obj
 0001:000c66a0       ?write@chunker@@QAE_NW4chunkname@@ABUSCL_TCB@@@Z 004c76a0 f   engq:m_chunk.obj
 0001:000c6770       ?write@chunker@@QAE_NW4chunkname@@ABUVC3@@@Z 004c7770 f   engq:m_chunk.obj
 0001:000c67e0       ?write@chunker@@QAE_NW4chunkname@@ABUpointf3@@@Z 004c77e0 f   engq:m_chunk.obj
 0001:000c6860       ?write@chunker@@QAE_NW4chunkname@@H@Z 004c7860 f   engq:m_chunk.obj
 0001:000c68b0       ?write@chunker@@QAE_NW4chunkname@@M@Z 004c78b0 f   engq:m_chunk.obj
 0001:000c6900       ?write@chunker@@QAE_NW4chunkname@@QBD@Z 004c7900 f   engq:m_chunk.obj
 0001:000c69c0       ?writearr@chunker@@QAE_NABH@Z 004c79c0 f   engq:m_chunk.obj
 0001:000c69e0       ?writearr@chunker@@QAE_NABM@Z 004c79e0 f   engq:m_chunk.obj
 0001:000c6a00       ?writearr@chunker@@QAE_NABUIDX3@@@Z 004c7a00 f   engq:m_chunk.obj
 0001:000c6a40       ?writearr@chunker@@QAE_NABUIDX3M@@@Z 004c7a40 f   engq:m_chunk.obj
 0001:000c6a90       ?writearr@chunker@@QAE_NABUVC2@@@Z 004c7a90 f   engq:m_chunk.obj
 0001:000c6ac0       ?writearr@chunker@@QAE_NABUVC3@@@Z 004c7ac0 f   engq:m_chunk.obj
 0001:000c6b00       ?writearrend@chunker@@QAE_NXZ 004c7b00 f   engq:m_chunk.obj
 0001:000c6b10       ?writearrstart@chunker@@QAE_NW4chunkname@@IW4chunktype@@@Z 004c7b10 f   engq:m_chunk.obj
 0001:000c97f0       ?drawtris@@YAXAAV?$vector@Uface@@V?$allocator@Uface@@@std@@@std@@HH@Z 004ca7f0 f   engq:d_floattri.obj
 0001:000c9850       ?drawtris@@YAXPAUface@@H@Z 004ca850 f   engq:d_floattri.obj
 0001:000c9d10       ?registercverts@@YAXPAUpointf3@@@Z 004cad10 f   engq:d_floattri.obj
 0001:000c9d20       ?registermat@@YAXPAUmater2@@@Z 004cad20 f   engq:d_floattri.obj
 0001:000c9ed0       ?registertribackdrop@@YAXPAUbitmap32@@@Z 004caed0 f   engq:d_floattri.obj
 0001:000c9f30       ?registertriwb@@YAXPAUbitmap32@@@Z 004caf30 f   engq:d_floattri.obj
 0001:000c9f40       ?registeruvs@@YAXPAUuv@@@Z 004caf40 f   engq:d_floattri.obj
 0001:000c9f50       ?registerverts@@YAXPAUpointf3@@@Z 004caf50 f   engq:d_floattri.obj
 0001:000ca130       ??$_Insert_range@PAE@?$vector@EV?$allocator@E@std@@@std@@AAEXV?$_Vector_const_iterator@V?$_Vector_val@U?$_Simple_types@E@std@@@std@@@1@PAE1Uforward_iterator_tag@1@@Z 004cb130 f i engq:lodepng.obj
 0001:000ca2c0       ??0?$basic_filebuf@DU?$char_traits@D@std@@@std@@QAE@PAU_iobuf@@@Z 004cb2c0 f i engq:lodepng.obj
 0001:000ca390       ??0Decoder@LodePNG@@QAE@XZ 004cb390 f   engq:lodepng.obj
 0001:000ca3a0       ??0Encoder@LodePNG@@QAE@XZ 004cb3a0 f   engq:lodepng.obj
 0001:000ca3b0       ??1?$basic_ifstream@DU?$char_traits@D@std@@@std@@UAE@XZ 004cb3b0 f i engq:lodepng.obj
 0001:000ca400       ??1?$basic_ofstream@DU?$char_traits@D@std@@@std@@UAE@XZ 004cb400 f i engq:lodepng.obj
 0001:000ca450       ??1Decoder@LodePNG@@QAE@XZ 004cb450 f   engq:lodepng.obj
 0001:000ca480       ??1Encoder@LodePNG@@QAE@XZ 004cb480 f   engq:lodepng.obj
 0001:000ca4b0       ??1_Sentry_base@?$basic_istream@DU?$char_traits@D@std@@@std@@QAE@XZ 004cb4b0 f i engq:lodepng.obj
 0001:000ca4f0       ??1sentry@?$basic_istream@DU?$char_traits@D@std@@@std@@QAE@XZ 004cb4f0 f i engq:lodepng.obj
 0001:000ca540       ??4Decoder@LodePNG@@QAEXABULodePNG_Decoder@@@Z 004cb540 f   engq:lodepng.obj
 0001:000ca5f0       ??4Encoder@LodePNG@@QAEXABULodePNG_Encoder@@@Z 004cb5f0 f   engq:lodepng.obj
 0001:000ca6b0       ??_D?$basic_ifstream@DU?$char_traits@D@std@@@std@@QAEXXZ 004cb6b0 f i engq:lodepng.obj
 0001:000ca730       ??_D?$basic_ofstream@DU?$char_traits@D@std@@@std@@QAEXXZ 004cb730 f i engq:lodepng.obj
 0001:000ca7ae       ??_E?$basic_ifstream@DU?$char_traits@D@std@@@std@@$4PPPPPPPM@A@AEPAXI@Z 004cb7ae f i engq:lodepng.obj
 0001:000ca7b6       ??_E?$basic_ofstream@DU?$char_traits@D@std@@@std@@$4PPPPPPPM@A@AEPAXI@Z 004cb7b6 f i engq:lodepng.obj
 0001:000ca7c0       ??_E?$basic_ifstream@DU?$char_traits@D@std@@@std@@UAEPAXI@Z 004cb7c0 f i engq:lodepng.obj
 0001:000ca7c0       ??_G?$basic_ifstream@DU?$char_traits@D@std@@@std@@UAEPAXI@Z 004cb7c0 f i engq:lodepng.obj
 0001:000ca7f0       ??_G?$basic_ofstream@DU?$char_traits@D@std@@@std@@UAEPAXI@Z 004cb7f0 f i engq:lodepng.obj
 0001:000ca7f0       ??_E?$basic_ofstream@DU?$char_traits@D@std@@@std@@UAEPAXI@Z 004cb7f0 f i engq:lodepng.obj
 0001:000cbc10       ?LodePNG_CompressSettings_init@@YAXPAULodePNG_CompressSettings@@@Z 004ccc10 f   engq:lodepng.obj
 0001:000cbc30       ?LodePNG_DecodeSettings_init@@YAXPAULodePNG_DecodeSettings@@@Z 004ccc30 f   engq:lodepng.obj
 0001:000cbc60       ?LodePNG_Decoder_cleanup@@YAXPAULodePNG_Decoder@@@Z 004ccc60 f   engq:lodepng.obj
 0001:000cbc90       ?LodePNG_Decoder_copy@@YAXPAULodePNG_Decoder@@PBU1@@Z 004ccc90 f   engq:lodepng.obj
 0001:000cbd40       ?LodePNG_Decoder_decode@@YAXPAULodePNG_Decoder@@PAPAEPAIPBEI@Z 004ccd40 f   engq:lodepng.obj
 0001:000cbe50       ?LodePNG_Decoder_init@@YAXPAULodePNG_Decoder@@@Z 004cce50 f   engq:lodepng.obj
 0001:000cbed0       ?LodePNG_Decoder_inspect@@YAXPAULodePNG_Decoder@@PBEI@Z 004cced0 f   engq:lodepng.obj
 0001:000cc090       ?LodePNG_DecompressSettings_init@@YAXPAULodePNG_DecompressSettings@@@Z 004cd090 f   engq:lodepng.obj
 0001:000cc0a0       ?LodePNG_EncodeSettings_init@@YAXPAULodePNG_EncodeSettings@@@Z 004cd0a0 f   engq:lodepng.obj
 0001:000cc0e0       ?LodePNG_Encoder_cleanup@@YAXPAULodePNG_Encoder@@@Z 004cd0e0 f   engq:lodepng.obj
 0001:000cc120       ?LodePNG_Encoder_copy@@YAXPAULodePNG_Encoder@@PBU1@@Z 004cd120 f   engq:lodepng.obj
 0001:000cc1e0       ?LodePNG_Encoder_encode@@YAXPAULodePNG_Encoder@@PAPAEPAIPBEII@Z 004cd1e0 f   engq:lodepng.obj
 0001:000cc9d0       ?LodePNG_Encoder_init@@YAXPAULodePNG_Encoder@@@Z 004cd9d0 f   engq:lodepng.obj
 0001:000cca80       ?LodePNG_IText_add@@YAIPAULodePNG_IText@@PBD111@Z 004cda80 f   engq:lodepng.obj
 0001:000ccbe0       ?LodePNG_IText_cleanup@@YAXPAULodePNG_IText@@@Z 004cdbe0 f   engq:lodepng.obj
 0001:000ccbf0       ?LodePNG_IText_clear@@YAXPAULodePNG_IText@@@Z 004cdbf0 f   engq:lodepng.obj
 0001:000ccc90       ?LodePNG_IText_copy@@YAIPAULodePNG_IText@@PBU1@@Z 004cdc90 f   engq:lodepng.obj
 0001:000cceb0       ?LodePNG_IText_init@@YAXPAULodePNG_IText@@@Z 004cdeb0 f   engq:lodepng.obj
 0001:000ccee0       ?LodePNG_InfoColor_addPalette@@YAIPAULodePNG_InfoColor@@EEEE@Z 004cdee0 f   engq:lodepng.obj
 0001:000ccf60       ?LodePNG_InfoColor_canHaveAlpha@@YAIPBULodePNG_InfoColor@@@Z 004cdf60 f   engq:lodepng.obj
 0001:000ccfa0       ?LodePNG_InfoColor_cleanup@@YAXPAULodePNG_InfoColor@@@Z 004cdfa0 f   engq:lodepng.obj
 0001:000ccfd0       ?LodePNG_InfoColor_clearPalette@@YAXPAULodePNG_InfoColor@@@Z 004cdfd0 f   engq:lodepng.obj
 0001:000cd000       ?LodePNG_InfoColor_copy@@YAIPAULodePNG_InfoColor@@PBU1@@Z 004ce000 f   engq:lodepng.obj
 0001:000cd080       ?LodePNG_InfoColor_equal@@YAIPBULodePNG_InfoColor@@0@Z 004ce080 f   engq:lodepng.obj
 0001:000cd0b0       ?LodePNG_InfoColor_getBpp@@YAIPBULodePNG_InfoColor@@@Z 004ce0b0 f   engq:lodepng.obj
 0001:000cd120       ?LodePNG_InfoColor_getChannels@@YAIPBULodePNG_InfoColor@@@Z 004ce120 f   engq:lodepng.obj
 0001:000cd170       ?LodePNG_InfoColor_hasPaletteAlpha@@YAIPBULodePNG_InfoColor@@@Z 004ce170 f   engq:lodepng.obj
 0001:000cd1a0       ?LodePNG_InfoColor_init@@YAXPAULodePNG_InfoColor@@@Z 004ce1a0 f   engq:lodepng.obj
 0001:000cd1e0       ?LodePNG_InfoColor_isAlphaType@@YAIPBULodePNG_InfoColor@@@Z 004ce1e0 f   engq:lodepng.obj
 0001:000cd1f0       ?LodePNG_InfoColor_isGreyscaleType@@YAIPBULodePNG_InfoColor@@@Z 004ce1f0 f   engq:lodepng.obj
 0001:000cd210       ?LodePNG_InfoColor_isPaletteType@@YAIPBULodePNG_InfoColor@@@Z 004ce210 f   engq:lodepng.obj
 0001:000cd220       ?LodePNG_InfoPng_cleanup@@YAXPAULodePNG_InfoPng@@@Z 004ce220 f   engq:lodepng.obj
 0001:000cd280       ?LodePNG_InfoPng_copy@@YAIPAULodePNG_InfoPng@@PBU1@@Z 004ce280 f   engq:lodepng.obj
 0001:000cd3f0       ?LodePNG_InfoPng_init@@YAXPAULodePNG_InfoPng@@@Z 004ce3f0 f   engq:lodepng.obj
 0001:000cd4f0       ?LodePNG_InfoPng_swap@@YAXPAULodePNG_InfoPng@@0@Z 004ce4f0 f   engq:lodepng.obj
 0001:000cd530       ?LodePNG_InfoRaw_cleanup@@YAXPAULodePNG_InfoRaw@@@Z 004ce530 f   engq:lodepng.obj
 0001:000cd560       ?LodePNG_InfoRaw_copy@@YAIPAULodePNG_InfoRaw@@PBU1@@Z 004ce560 f   engq:lodepng.obj
 0001:000cd5c0       ?LodePNG_InfoRaw_init@@YAXPAULodePNG_InfoRaw@@@Z 004ce5c0 f   engq:lodepng.obj
 0001:000cd600       ?LodePNG_Text_add@@YAIPAULodePNG_Text@@PBD1@Z 004ce600 f   engq:lodepng.obj
 0001:000cd6e0       ?LodePNG_Text_cleanup@@YAXPAULodePNG_Text@@@Z 004ce6e0 f   engq:lodepng.obj
 0001:000cd6f0       ?LodePNG_Text_clear@@YAXPAULodePNG_Text@@@Z 004ce6f0 f   engq:lodepng.obj
 0001:000cd760       ?LodePNG_Text_copy@@YAIPAULodePNG_Text@@PBU1@@Z 004ce760 f   engq:lodepng.obj
 0001:000cd900       ?LodePNG_Text_init@@YAXPAULodePNG_Text@@@Z 004ce900 f   engq:lodepng.obj
 0001:000cd920       ?LodePNG_UnknownChunks_cleanup@@YAXPAULodePNG_UnknownChunks@@@Z 004ce920 f   engq:lodepng.obj
 0001:000cd950       ?LodePNG_UnknownChunks_copy@@YAIPAULodePNG_UnknownChunks@@PBU1@@Z 004ce950 f   engq:lodepng.obj
 0001:000cd9e0       ?LodePNG_UnknownChunks_init@@YAXPAULodePNG_UnknownChunks@@@Z 004ce9e0 f   engq:lodepng.obj
 0001:000cda20       ?LodePNG_append_chunk@@YAIPAPAEPAIPBE@Z 004cea20 f   engq:lodepng.obj
 0001:000cdab0       ?LodePNG_chunk_check_crc@@YAIPBE@Z 004ceab0 f   engq:lodepng.obj
 0001:000cdb20       ?LodePNG_chunk_critical@@YAEPBE@Z 004ceb20 f   engq:lodepng.obj
 0001:000cdb40       ?LodePNG_chunk_data@@YAPAEPAE@Z 004ceb40 f   engq:lodepng.obj
 0001:000cdb50       ?LodePNG_chunk_data_const@@YAPBEPBE@Z 004ceb50 f   engq:lodepng.obj
 0001:000cdb60       ?LodePNG_chunk_generate_crc@@YAXPAE@Z 004ceb60 f   engq:lodepng.obj
 0001:000cdbc0       ?LodePNG_chunk_length@@YAIPBE@Z 004cebc0 f   engq:lodepng.obj
 0001:000cdbf0       ?LodePNG_chunk_next@@YAPAEPAE@Z 004cebf0 f   engq:lodepng.obj
 0001:000cdc20       ?LodePNG_chunk_next_const@@YAPBEPBE@Z 004cec20 f   engq:lodepng.obj
 0001:000cdc50       ?LodePNG_chunk_private@@YAEPBE@Z 004cec50 f   engq:lodepng.obj
 0001:000cdc60       ?LodePNG_chunk_safetocopy@@YAEPBE@Z 004cec60 f   engq:lodepng.obj
 0001:000cdc70       ?LodePNG_chunk_type@@YAXQADPBE@Z 004cec70 f   engq:lodepng.obj
 0001:000cdca0       ?LodePNG_chunk_type_equals@@YAEPBEPBD@Z 004ceca0 f   engq:lodepng.obj
 0001:000cdd00       ?LodePNG_convert@@YAIPAEPBEPAULodePNG_InfoColor@@2II@Z 004ced00 f   engq:lodepng.obj
 0001:000cf570       ?LodePNG_create_chunk@@YAIPAPAEPAIIPBDPBE@Z 004d0570 f   engq:lodepng.obj
 0001:000cf690       ?LodePNG_decode24@@YAIPAPAEPAI1PBEI@Z 004d0690 f   engq:lodepng.obj
 0001:000cf6b0       ?LodePNG_decode24_file@@YAIPAPAEPAI1PBD@Z 004d06b0 f   engq:lodepng.obj
 0001:000cf6d0       ?LodePNG_decode32@@YAIPAPAEPAI1PBEI@Z 004d06d0 f   engq:lodepng.obj
 0001:000cf6f0       ?LodePNG_decode32_file@@YAIPAPAEPAI1PBD@Z 004d06f0 f   engq:lodepng.obj
 0001:000cf710       ?LodePNG_decode@@YAIPAPAEPAI1PBEIII@Z 004d0710 f   engq:lodepng.obj
 0001:000cf7a0       ?LodePNG_decode_file@@YAIPAPAEPAI1PBDII@Z 004d07a0 f   engq:lodepng.obj
 0001:000cf870       ?LodePNG_encode24@@YAIPAPAEPAIPBEII@Z 004d0870 f   engq:lodepng.obj
 0001:000cf8f0       ?LodePNG_encode24_file@@YAIPBDPBEII@Z 004d08f0 f   engq:lodepng.obj
 0001:000cf910       ?LodePNG_encode32@@YAIPAPAEPAIPBEII@Z 004d0910 f   engq:lodepng.obj
 0001:000cf990       ?LodePNG_encode32_file@@YAIPBDPBEII@Z 004d0990 f   engq:lodepng.obj
 0001:000cf9b0       ?LodePNG_encode@@YAIPAPAEPAIPBEIIII@Z 004d09b0 f   engq:lodepng.obj
 0001:000cfa30       ?LodePNG_encode_file@@YAIPBDPBEIIII@Z 004d0a30 f   engq:lodepng.obj
 0001:000cfb00       ?LodePNG_error_text@@YAPBDI@Z 004d0b00 f   engq:lodepng.obj
 0001:000d0060       ?LodePNG_loadFile@@YAIPAPAEPAIPBD@Z 004d1060 f   engq:lodepng.obj
 0001:000d0100       ?LodePNG_read32bitInt@@YAIPBE@Z 004d1100 f   engq:lodepng.obj
 0001:000d0130       ?LodePNG_saveFile@@YAIPBEIPBD@Z 004d1130 f   engq:lodepng.obj
 0001:000d0170       ?LodePNG_zlib_compress@@YAIPAPAEPAIPBEIPBULodePNG_CompressSettings@@@Z 004d1170 f   engq:lodepng.obj
 0001:000d0330       ?LodePNG_zlib_decompress@@YAIPAPAEPAIPBEIPBULodePNG_DecompressSettings@@@Z 004d1330 f   engq:lodepng.obj
 0001:000d0420       ?_Ipfx@?$basic_istream@DU?$char_traits@D@std@@@std@@QAE_N_N@Z 004d1420 f i engq:lodepng.obj
 0001:000d12d0       ?addIText@Encoder@LodePNG@@QAEXABV?$basic_string@DU?$char_traits@D@std@@V?$allocator@D@2@@std@@000@Z 004d22d0 f   engq:lodepng.obj
 0001:000d1520       ?addPalette@Encoder@LodePNG@@QAEXEEEE@Z 004d2520 f   engq:lodepng.obj
 0001:000d1550       ?addText@Encoder@LodePNG@@QAEXABV?$basic_string@DU?$char_traits@D@std@@V?$allocator@D@2@@std@@0@Z 004d2550 f   engq:lodepng.obj
 0001:000d1740       ?clearIText@Encoder@LodePNG@@QAEXXZ 004d2740 f   engq:lodepng.obj
 0001:000d1750       ?clearPalette@Encoder@LodePNG@@QAEXXZ 004d2750 f   engq:lodepng.obj
 0001:000d1770       ?clearText@Encoder@LodePNG@@QAEXXZ 004d2770 f   engq:lodepng.obj
 0001:000d1780       ?compress@LodePNG@@YAIAAV?$vector@EV?$allocator@E@std@@@std@@ABV23@ABULodePNG_CompressSettings@@@Z 004d2780 f   engq:lodepng.obj
 0001:000d17f0       ?compress@LodePNG@@YAIAAV?$vector@EV?$allocator@E@std@@@std@@PBEIABULodePNG_CompressSettings@@@Z 004d27f0 f   engq:lodepng.obj
 0001:000d1de0       ?decode@Decoder@LodePNG@@QAEXAAV?$vector@EV?$allocator@E@std@@@std@@ABV34@@Z 004d2de0 f   engq:lodepng.obj
 0001:000d1e40       ?decode@Decoder@LodePNG@@QAEXAAV?$vector@EV?$allocator@E@std@@@std@@PBEI@Z 004d2e40 f   engq:lodepng.obj
 0001:000d1e90       ?decode@LodePNG@@YAIAAV?$vector@EV?$allocator@E@std@@@std@@AAI1ABV23@II@Z 004d2e90 f   engq:lodepng.obj
 0001:000d1f80       ?decode@LodePNG@@YAIAAV?$vector@EV?$allocator@E@std@@@std@@AAI1ABV?$basic_string@DU?$char_traits@D@std@@V?$allocator@D@2@@3@II@Z 004d2f80 f   engq:lodepng.obj
 0001:000d20d0       ?decode@LodePNG@@YAIAAV?$vector@EV?$allocator@E@std@@@std@@AAI1PBEIII@Z 004d30d0 f   engq:lodepng.obj
 0001:000d3010       ?decompress@LodePNG@@YAIAAV?$vector@EV?$allocator@E@std@@@std@@ABV23@ABULodePNG_DecompressSettings@@@Z 004d4010 f   engq:lodepng.obj
 0001:000d3080       ?decompress@LodePNG@@YAIAAV?$vector@EV?$allocator@E@std@@@std@@PBEIABULodePNG_DecompressSettings@@@Z 004d4080 f   engq:lodepng.obj
 0001:000d3bf0       ?doAutoChooseColor@@YAXPAULodePNG_InfoColor@@PBEII0@Z 004d4bf0 f   engq:lodepng.obj
 0001:000d3eb0       ?encode@Encoder@LodePNG@@QAEXAAV?$vector@EV?$allocator@E@std@@@std@@ABV34@II@Z 004d4eb0 f   engq:lodepng.obj
 0001:000d3f10       ?encode@Encoder@LodePNG@@QAEXAAV?$vector@EV?$allocator@E@std@@@std@@PBEII@Z 004d4f10 f   engq:lodepng.obj
 0001:000d3f60       ?encode@LodePNG@@YAIAAV?$vector@EV?$allocator@E@std@@@std@@ABV23@IIII@Z 004d4f60 f   engq:lodepng.obj
 0001:000d4030       ?encode@LodePNG@@YAIAAV?$vector@EV?$allocator@E@std@@@std@@PBEIIII@Z 004d5030 f   engq:lodepng.obj
 0001:000d4100       ?encode@LodePNG@@YAIABV?$basic_string@DU?$char_traits@D@std@@V?$allocator@D@2@@std@@ABV?$vector@EV?$allocator@E@std@@@3@IIII@Z 004d5100 f   engq:lodepng.obj
 0001:000d4120       ?encode@LodePNG@@YAIABV?$basic_string@DU?$char_traits@D@std@@V?$allocator@D@2@@std@@PBEIIII@Z 004d5120 f   engq:lodepng.obj
 0001:000d5680       ?getBpp@Decoder@LodePNG@@QAEIXZ 004d6680 f   engq:lodepng.obj
 0001:000d5690       ?getChannels@Decoder@LodePNG@@QAEIXZ 004d6690 f   engq:lodepng.obj
 0001:000d58b0       ?getError@Decoder@LodePNG@@QBEIXZ 004d68b0 f   engq:lodepng.obj
 0001:000d58c0       ?getError@Encoder@LodePNG@@QBEIXZ 004d68c0 f   engq:lodepng.obj
 0001:000d58d0       ?getHeight@Decoder@LodePNG@@QBEIXZ 004d68d0 f   engq:lodepng.obj
 0001:000d58e0       ?getInfoPng@Decoder@LodePNG@@QAEAAULodePNG_InfoPng@@XZ 004d68e0 f   engq:lodepng.obj
 0001:000d58f0       ?getInfoPng@Decoder@LodePNG@@QBEABULodePNG_InfoPng@@XZ 004d68f0 f   engq:lodepng.obj
 0001:000d5900       ?getInfoPng@Encoder@LodePNG@@QAEAAULodePNG_InfoPng@@XZ 004d6900 f   engq:lodepng.obj
 0001:000d5910       ?getInfoPng@Encoder@LodePNG@@QBEABULodePNG_InfoPng@@XZ 004d6910 f   engq:lodepng.obj
 0001:000d5920       ?getInfoRaw@Decoder@LodePNG@@QAEAAULodePNG_InfoRaw@@XZ 004d6920 f   engq:lodepng.obj
 0001:000d5930       ?getInfoRaw@Decoder@LodePNG@@QBEABULodePNG_InfoRaw@@XZ 004d6930 f   engq:lodepng.obj
 0001:000d5940       ?getInfoRaw@Encoder@LodePNG@@QAEAAULodePNG_InfoRaw@@XZ 004d6940 f   engq:lodepng.obj
 0001:000d5950       ?getInfoRaw@Encoder@LodePNG@@QBEABULodePNG_InfoRaw@@XZ 004d6950 f   engq:lodepng.obj
 0001:000d59f0       ?getPixelColorRGBA8@@YAIPAE000PBEIPBULodePNG_InfoColor@@@Z 004d69f0 f   engq:lodepng.obj
 0001:000d5ec0       ?getSettings@Decoder@LodePNG@@QAEAAULodePNG_DecodeSettings@@XZ 004d6ec0 f   engq:lodepng.obj
 0001:000d5ed0       ?getSettings@Decoder@LodePNG@@QBEABULodePNG_DecodeSettings@@XZ 004d6ed0 f   engq:lodepng.obj
 0001:000d5ee0       ?getSettings@Encoder@LodePNG@@QAEAAULodePNG_EncodeSettings@@XZ 004d6ee0 f   engq:lodepng.obj
 0001:000d5ef0       ?getSettings@Encoder@LodePNG@@QBEABULodePNG_EncodeSettings@@XZ 004d6ef0 f   engq:lodepng.obj
 0001:000d67e0       ?getValueRequiredBits@@YAIE@Z 004d77e0 f   engq:lodepng.obj
 0001:000d6830       ?getWidth@Decoder@LodePNG@@QBEIXZ 004d7830 f   engq:lodepng.obj
 0001:000d6840       ?hasError@Decoder@LodePNG@@QBE_NXZ 004d7840 f   engq:lodepng.obj
 0001:000d6850       ?hasError@Encoder@LodePNG@@QBE_NXZ 004d7850 f   engq:lodepng.obj
 0001:000d6bc0       ?init@?$basic_ios@DU?$char_traits@D@std@@@std@@IAEXPAV?$basic_streambuf@DU?$char_traits@D@std@@@2@_N@Z 004d7bc0 f i engq:lodepng.obj
 0001:000d6d40       ?inspect@Decoder@LodePNG@@QAEXABV?$vector@EV?$allocator@E@std@@@std@@@Z 004d7d40 f   engq:lodepng.obj
 0001:000d6d70       ?inspect@Decoder@LodePNG@@QAEXPBEI@Z 004d7d70 f   engq:lodepng.obj
 0001:000d6d90       ?isAlphaType@Decoder@LodePNG@@QAEIXZ 004d7d90 f   engq:lodepng.obj
 0001:000d6f70       ?isGreyscaleType@Decoder@LodePNG@@QAEIXZ 004d7f70 f   engq:lodepng.obj
 0001:000d6f90       ?loadFile@LodePNG@@YAXAAV?$vector@EV?$allocator@E@std@@@std@@ABV?$basic_string@DU?$char_traits@D@std@@V?$allocator@D@2@@3@@Z 004d7f90 f   engq:lodepng.obj
 0001:000d7220       ?open@?$basic_filebuf@DU?$char_traits@D@std@@@std@@QAEPAV12@PBDHH@Z 004d8220 f i engq:lodepng.obj
 0001:000d7660       ?read@?$basic_istream@DU?$char_traits@D@std@@@std@@QAEAAV12@PAD_J@Z 004d8660 f i engq:lodepng.obj
 0001:000d7960       ?saveFile@LodePNG@@YAXABV?$vector@EV?$allocator@E@std@@@std@@ABV?$basic_string@DU?$char_traits@D@std@@V?$allocator@D@2@@3@@Z 004d8960 f   engq:lodepng.obj
 0001:000d7ba0       ?seekg@?$basic_istream@DU?$char_traits@D@std@@@std@@QAEAAV12@_JH@Z 004d8ba0 f i engq:lodepng.obj
 0001:000d7d30       ?setInfoPng@Decoder@LodePNG@@QAEXABULodePNG_InfoPng@@@Z 004d8d30 f   engq:lodepng.obj
 0001:000d7d50       ?setInfoPng@Encoder@LodePNG@@QAEXABULodePNG_InfoPng@@@Z 004d8d50 f   engq:lodepng.obj
 0001:000d7d70       ?setInfoRaw@Decoder@LodePNG@@QAEXABULodePNG_InfoRaw@@@Z 004d8d70 f   engq:lodepng.obj
 0001:000d7d90       ?setInfoRaw@Encoder@LodePNG@@QAEXABULodePNG_InfoRaw@@@Z 004d8d90 f   engq:lodepng.obj
 0001:000d7dc0       ?setSettings@Decoder@LodePNG@@QAEXABULodePNG_DecodeSettings@@@Z 004d8dc0 f   engq:lodepng.obj
 0001:000d7de0       ?setSettings@Encoder@LodePNG@@QAEXABULodePNG_EncodeSettings@@@Z 004d8de0 f   engq:lodepng.obj
 0001:000d7e90       ?swapInfoPng@Decoder@LodePNG@@QAEXAAULodePNG_InfoPng@@@Z 004d8e90 f   engq:lodepng.obj
 0001:000d7ee0       ?swapInfoPng@Encoder@LodePNG@@QAEXAAULodePNG_InfoPng@@@Z 004d8ee0 f   engq:lodepng.obj
 0001:000d7f30       ?tellg@?$basic_istream@DU?$char_traits@D@std@@@std@@QAE?AV?$fpos@U_Mbstatet@@@2@XZ 004d8f30 f i engq:lodepng.obj
 0001:000d8700       ?updateHashChain@@YAXPAGPAH1IHI@Z 004d9700 f   engq:lodepng.obj
 0001:000d8790       ?write@?$basic_ostream@DU?$char_traits@D@std@@@std@@QAEAAV12@PBD_J@Z 004d9790 f i engq:lodepng.obj
 0001:000d8d10       _ogg_packet_clear          004d9d10 f   ogg_static:framing.obj
 0001:000d8d30       _ogg_page_bos              004d9d30 f   ogg_static:framing.obj
 0001:000d8d50       _ogg_page_checksum_set     004d9d50 f   ogg_static:framing.obj
 0001:000d8e00       _ogg_page_continued        004d9e00 f   ogg_static:framing.obj
 0001:000d8e20       _ogg_page_eos              004d9e20 f   ogg_static:framing.obj
 0001:000d8e40       _ogg_page_granulepos       004d9e40 f   ogg_static:framing.obj
 0001:000d8ed0       _ogg_page_packets          004d9ed0 f   ogg_static:framing.obj
 0001:000d8f10       _ogg_page_pageno           004d9f10 f   ogg_static:framing.obj
 0001:000d8f40       _ogg_page_serialno         004d9f40 f   ogg_static:framing.obj
 0001:000d8f70       _ogg_page_version          004d9f70 f   ogg_static:framing.obj
 0001:000d8f80       _ogg_stream_clear          004d9f80 f   ogg_static:framing.obj
 0001:000d8fd0       _ogg_stream_destroy        004d9fd0 f   ogg_static:framing.obj
 0001:000d8ff0       _ogg_stream_eos            004d9ff0 f   ogg_static:framing.obj
 0001:000d9000       _ogg_stream_flush          004da000 f   ogg_static:framing.obj
 0001:000d9250       _ogg_stream_init           004da250 f   ogg_static:framing.obj
 0001:000d92c0       _ogg_stream_packetin       004da2c0 f   ogg_static:framing.obj
 0001:000d9400       _ogg_stream_packetout      004da400 f   ogg_static:framing.obj
 0001:000d9420       _ogg_stream_packetpeek     004da420 f   ogg_static:framing.obj
 0001:000d9440       _ogg_stream_pagein         004da440 f   ogg_static:framing.obj
 0001:000d96e0       _ogg_stream_pageout        004da6e0 f   ogg_static:framing.obj
 0001:000d9730       _ogg_stream_reset          004da730 f   ogg_static:framing.obj
 0001:000d97b0       _ogg_stream_reset_serialno 004da7b0 f   ogg_static:framing.obj
 0001:000d97d0       _ogg_sync_buffer           004da7d0 f   ogg_static:framing.obj
 0001:000d9850       _ogg_sync_clear            004da850 f   ogg_static:framing.obj
 0001:000d9880       _ogg_sync_destroy          004da880 f   ogg_static:framing.obj
 0001:000d98a0       _ogg_sync_init             004da8a0 f   ogg_static:framing.obj
 0001:000d98c0       _ogg_sync_pageout          004da8c0 f   ogg_static:framing.obj
 0001:000d9910       _ogg_sync_pageseek         004da910 f   ogg_static:framing.obj
 0001:000d9a80       _ogg_sync_reset            004daa80 f   ogg_static:framing.obj
 0001:000d9ab0       _ogg_sync_wrote            004daab0 f   ogg_static:framing.obj
 0001:000d9ba0       _theora_decode_YUVout      004daba0 f   libtheora:decapiwrapper.obj
 0001:000d9c10       _theora_decode_header      004dac10 f   libtheora:decapiwrapper.obj
 0001:000d9d30       _theora_decode_init        004dad30 f   libtheora:decapiwrapper.obj
 0001:000d9dd0       _theora_decode_packetin    004dadd0 f   libtheora:decapiwrapper.obj
 0001:000d9e20       _oc_theora_info2th_info    004dae20 f   libtheora:apiwrapper.obj
 0001:000d9f20       _theora_clear              004daf20 f   libtheora:apiwrapper.obj
 0001:000d9f90       _theora_comment_add        004daf90 f   libtheora:apiwrapper.obj
 0001:000d9fa0       _theora_comment_add_tag    004dafa0 f   libtheora:apiwrapper.obj
 0001:000d9fb0       _theora_comment_clear      004dafb0 f   libtheora:apiwrapper.obj
 0001:000d9fc0       _theora_comment_init       004dafc0 f   libtheora:apiwrapper.obj
 0001:000d9fd0       _theora_comment_query      004dafd0 f   libtheora:apiwrapper.obj
 0001:000d9fe0       _theora_comment_query_count 004dafe0 f   libtheora:apiwrapper.obj
 0001:000d9ff0       _theora_control            004daff0 f   libtheora:apiwrapper.obj
 0001:000da020       _theora_granule_frame      004db020 f   libtheora:apiwrapper.obj
 0001:000da050       _theora_granule_shift      004db050 f   libtheora:apiwrapper.obj
 0001:000da070       _theora_granule_time       004db070 f   libtheora:apiwrapper.obj
 0001:000da0a0       _theora_info_clear         004db0a0 f   libtheora:apiwrapper.obj
 0001:000da0e0       _theora_info_init          004db0e0 f   libtheora:apiwrapper.obj
 0001:000da100       _theora_packet_isheader    004db100 f   libtheora:apiwrapper.obj
 0001:000da110       _theora_packet_iskeyframe  004db110 f   libtheora:apiwrapper.obj
 0001:000da120       _theora_version_number     004db120 f   libtheora:apiwrapper.obj
 0001:000da130       _theora_version_string     004db130 f   libtheora:apiwrapper.obj
 0001:000daa90       _oc_restore_fpu            004dba90 f   libtheora:state.obj
 0001:000daaa0       _oc_restore_fpu_c          004dbaa0 f   libtheora:state.obj
 0001:000daf30       _oc_state_borders_fill     004dbf30 f   libtheora:state.obj
 0001:000db080       _oc_state_borders_fill_caps 004dc080 f   libtheora:state.obj
 0001:000db140       _oc_state_borders_fill_rows 004dc140 f   libtheora:state.obj
 0001:000db1d0       _oc_state_clear            004dc1d0 f   libtheora:state.obj
 0001:000db220       _oc_state_fill_buffer_ptrs 004dc220 f   libtheora:state.obj
 0001:000db320       _oc_state_frag_copy        004dc320 f   libtheora:state.obj
 0001:000db330       _oc_state_frag_copy_c      004dc330 f   libtheora:state.obj
 0001:000db440       _oc_state_frag_recon       004dc440 f   libtheora:state.obj
 0001:000db450       _oc_state_frag_recon_c     004dc450 f   libtheora:state.obj
 0001:000dbbd0       _oc_state_get_mv_offsets   004dcbd0 f   libtheora:state.obj
 0001:000dbc90       _oc_state_init             004dcc90 f   libtheora:state.obj
 0001:000dbe30       _oc_state_loop_filter_frag_rows 004dce30 f   libtheora:state.obj
 0001:000dbe40       _oc_state_loop_filter_frag_rows_c 004dce40 f   libtheora:state.obj
 0001:000dbff0       _oc_state_loop_filter_init 004dcff0 f   libtheora:state.obj
 0001:000dc0c0       _oc_state_mbi_for_pos      004dd0c0 f   libtheora:state.obj
 0001:000dc3b0       _oc_state_vtable_init      004dd3b0 f   libtheora:state.obj
 0001:000dc3c0       _oc_state_vtable_init_c    004dd3c0 f   libtheora:state.obj
 0001:000dc400       _th_granule_frame          004dd400 f   libtheora:state.obj
 0001:000dc4a0       _th_granule_time           004dd4a0 f   libtheora:state.obj
 0001:000dcb90       _th_decode_headerin        004ddb90 f   libtheora:decinfo.obj
 0001:000dcbe0       _th_setup_free             004ddbe0 f   libtheora:decinfo.obj
 0001:000dfb60       _th_decode_alloc           004e0b60 f   libtheora:decode1.obj
 0001:000dfda0       _th_decode_ctl             004e0da0 f   libtheora:decode1.obj
 0001:000dff20       _th_decode_free            004e0f20 f   libtheora:decode1.obj
 0001:000dff80       _th_decode_packetin        004e0f80 f   libtheora:decode1.obj
 0001:000e0880       _th_decode_ycbcr_out       004e1880 f   libtheora:decode1.obj
 0001:000e0a00       _oc_calloc_2d              004e1a00 f   libtheora:internal.obj
 0001:000e0a50       _oc_dct_token_skip         004e1a50 f   libtheora:internal.obj
 0001:000e0a70       _oc_free_2d                004e1a70 f   libtheora:internal.obj
 0001:000e0a80       _oc_ilog                   004e1a80 f   libtheora:internal.obj
 0001:000e0aa0       _oc_malloc_2d              004e1aa0 f   libtheora:internal.obj
 0001:000e0b80       _oc_ycbcr_buffer_flip      004e1b80 f   libtheora:internal.obj
 0001:000e0c00       _th_packet_isheader        004e1c00 f   libtheora:internal.obj
 0001:000e0c20       _th_packet_iskeyframe      004e1c20 f   libtheora:internal.obj
 0001:000e0c50       _th_version_number         004e1c50 f   libtheora:internal.obj
 0001:000e0c60       _th_version_string         004e1c60 f   libtheora:internal.obj
 0001:000e0c70       _th_comment_add            004e1c70 f   libtheora:info.obj
 0001:000e0d00       _th_comment_add_tag        004e1d00 f   libtheora:info.obj
 0001:000e0de0       _th_comment_clear          004e1de0 f   libtheora:info.obj
 0001:000e0e30       _th_comment_init           004e1e30 f   libtheora:info.obj
 0001:000e0e40       _th_comment_query          004e1e40 f   libtheora:info.obj
 0001:000e0f10       _th_comment_query_count    004e1f10 f   libtheora:info.obj
 0001:000e0fc0       _th_info_clear             004e1fc0 f   libtheora:info.obj
 0001:000e0fe0       _th_info_init              004e1fe0 f   libtheora:info.obj
 0001:000e1010       _oc_frag_pred_dc           004e2010 f   libtheora:fragment.obj
 0001:000e12c0       _oc_frag_recon_inter       004e22c0 f   libtheora:fragment.obj
 0001:000e12e0       _oc_frag_recon_inter2      004e22e0 f   libtheora:fragment.obj
 0001:000e1310       _oc_frag_recon_inter2_c    004e2310 f   libtheora:fragment.obj
 0001:000e1520       _oc_frag_recon_inter_c     004e2520 f   libtheora:fragment.obj
 0001:000e16a0       _oc_frag_recon_intra       004e26a0 f   libtheora:fragment.obj
 0001:000e16c0       _oc_frag_recon_intra_c     004e26c0 f   libtheora:fragment.obj
 0001:000e1ad0       _oc_idct8x8_10_c           004e2ad0 f   libtheora:idct1.obj
 0001:000e1da0       _oc_idct8x8_c              004e2da0 f   libtheora:idct1.obj
 0001:000e2080       _oc_state_vtable_init_x86  004e3080 f   libtheora:x86state.obj
 0001:000e20e0       _theorapackB_adv1          004e30e0 f   libtheora:bitwise.obj
 0001:000e2100       _theorapackB_bits          004e3100 f   libtheora:bitwise.obj
 0001:000e2110       _theorapackB_bytes         004e3110 f   libtheora:bitwise.obj
 0001:000e2130       _theorapackB_get_buffer    004e3130 f   libtheora:bitwise.obj
 0001:000e2140       _theorapackB_look1         004e3140 f   libtheora:bitwise.obj
 0001:000e2180       _theorapackB_read          004e3180 f   libtheora:bitwise.obj
 0001:000e2260       _theorapackB_read1         004e3260 f   libtheora:bitwise.obj
 0001:000e22b0       _theorapackB_readinit      004e32b0 f   libtheora:bitwise.obj
 0001:000e22e0       _theorapackB_reset         004e32e0 f   libtheora:bitwise.obj
 0001:000e2390       _oc_huff_token_decode      004e3390 f   libtheora:huffdec.obj
 0001:000e27e0       _oc_huff_trees_clear       004e37e0 f   libtheora:huffdec.obj
 0001:000e2860       _oc_huff_trees_copy        004e3860 f   libtheora:huffdec.obj
 0001:000e2940       _oc_huff_trees_unpack      004e3940 f   libtheora:huffdec.obj
 0001:000e2980       _oc_quant_params_clear     004e3980 f   libtheora:dequant.obj
 0001:000e2a90       _oc_quant_params_unpack    004e3a90 f   libtheora:dequant.obj
 0001:000e2da0       _oc_dequant_tables_init    004e3da0 f   libtheora:quant1.obj
 0001:000e30f0       _oc_frag_recon_inter2_mmx  004e40f0 f   libtheora:mmxfrag.obj
 0001:000e3170       _oc_frag_recon_inter_mmx   004e4170 f   libtheora:mmxfrag.obj
 0001:000e31f0       _oc_frag_recon_intra_mmx   004e41f0 f   libtheora:mmxfrag.obj
 0001:000e32c0       _oc_restore_fpu_mmx        004e42c0 f   libtheora:mmxfrag.obj
 0001:000e32d0       _oc_state_frag_copy_mmx    004e42d0 f   libtheora:mmxstate.obj
 0001:000e3450       _oc_state_frag_recon_mmx   004e4450 f   libtheora:mmxstate.obj
 0001:000e39c0       _oc_state_loop_filter_frag_rows_mmx 004e49c0 f   libtheora:mmxloopfilter.obj
 0001:000e3ba0       _oc_cpu_flags_get          004e4ba0 f   libtheora:cpu.obj
 0001:000e3ce0       _oc_idct8x8_10_mmx         004e4ce0 f   libtheora:mmxidct.obj
 0001:000e4300       _oc_idct8x8_mmx            004e5300 f   libtheora:mmxidct.obj
 0001:000e6ba0       _ov_bitrate                004e7ba0 f   libvorbisfile:vorbisfile.obj
 0001:000e6e50       _ov_bitrate_instant        004e7e50 f   libvorbisfile:vorbisfile.obj
 0001:000e6ec0       _ov_clear                  004e7ec0 f   libvorbisfile:vorbisfile.obj
 0001:000e6fd0       _ov_comment                004e7fd0 f   libvorbisfile:vorbisfile.obj
 0001:000e7010       _ov_crosslap               004e8010 f   libvorbisfile:vorbisfile.obj
 0001:000e7210       _ov_fopen                  004e8210 f   libvorbisfile:vorbisfile.obj
 0001:000e72a0       _ov_halfrate               004e82a0 f   libvorbisfile:vorbisfile.obj
 0001:000e7330       _ov_halfrate_p             004e8330 f   libvorbisfile:vorbisfile.obj
 0001:000e7350       _ov_info                   004e8350 f   libvorbisfile:vorbisfile.obj
 0001:000e7390       _ov_open                   004e8390 f   libvorbisfile:vorbisfile.obj
 0001:000e73f0       _ov_open_callbacks         004e83f0 f   libvorbisfile:vorbisfile.obj
 0001:000e7430       _ov_pcm_seek               004e8430 f   libvorbisfile:vorbisfile.obj
 0001:000e7740       _ov_pcm_seek_lap           004e8740 f   libvorbisfile:vorbisfile.obj
 0001:000e7760       _ov_pcm_seek_page          004e8760 f   libvorbisfile:vorbisfile.obj
 0001:000e7e10       _ov_pcm_seek_page_lap      004e8e10 f   libvorbisfile:vorbisfile.obj
 0001:000e7e30       _ov_pcm_tell               004e8e30 f   libvorbisfile:vorbisfile.obj
 0001:000e7e50       _ov_pcm_total              004e8e50 f   libvorbisfile:vorbisfile.obj
 0001:000e7ef0       _ov_raw_seek               004e8ef0 f   libvorbisfile:vorbisfile.obj
 0001:000e8380       _ov_raw_seek_lap           004e9380 f   libvorbisfile:vorbisfile.obj
 0001:000e83a0       _ov_raw_tell               004e93a0 f   libvorbisfile:vorbisfile.obj
 0001:000e83c0       _ov_raw_total              004e93c0 f   libvorbisfile:vorbisfile.obj
 0001:000e8460       _ov_read                   004e9460 f   libvorbisfile:vorbisfile.obj
 0001:000e87d0       _ov_read_float             004e97d0 f   libvorbisfile:vorbisfile.obj
 0001:000e8c00       _ov_seekable               004e9c00 f   libvorbisfile:vorbisfile.obj
 0001:000e8c10       _ov_serialnumber           004e9c10 f   libvorbisfile:vorbisfile.obj
 0001:000e8c50       _ov_streams                004e9c50 f   libvorbisfile:vorbisfile.obj
 0001:000e8c60       _ov_test                   004e9c60 f   libvorbisfile:vorbisfile.obj
 0001:000e8cb0       _ov_test_callbacks         004e9cb0 f   libvorbisfile:vorbisfile.obj
 0001:000e8ce0       _ov_test_open              004e9ce0 f   libvorbisfile:vorbisfile.obj
 0001:000e8d00       _ov_time_seek              004e9d00 f   libvorbisfile:vorbisfile.obj
 0001:000e8e20       _ov_time_seek_lap          004e9e20 f   libvorbisfile:vorbisfile.obj
 0001:000e8e50       _ov_time_seek_page         004e9e50 f   libvorbisfile:vorbisfile.obj
 0001:000e8f70       _ov_time_seek_page_lap     004e9f70 f   libvorbisfile:vorbisfile.obj
 0001:000e8fa0       _ov_time_tell              004e9fa0 f   libvorbisfile:vorbisfile.obj
 0001:000e90b0       _ov_time_total             004ea0b0 f   libvorbisfile:vorbisfile.obj
 0001:000e9150       _vorbis_info_init          004ea150 f   libvorbis:info.obj
 0001:000e9180       _vorbis_info_clear         004ea180 f   libvorbis:info.obj
 0001:000e9300       _vorbis_info_blocksize     004ea300 f   libvorbis:info.obj
 0001:000e9320       _vorbis_comment_init       004ea320 f   libvorbis:info.obj
 0001:000e9330       _vorbis_comment_add        004ea330 f   libvorbis:info.obj
 0001:000e93d0       _vorbis_comment_add_tag    004ea3d0 f   libvorbis:info.obj
 0001:000e94f0       _vorbis_comment_query      004ea4f0 f   libvorbis:info.obj
 0001:000e95e0       _vorbis_comment_query_count 004ea5e0 f   libvorbis:info.obj
 0001:000e96d0       _vorbis_comment_clear      004ea6d0 f   libvorbis:info.obj
 0001:000e9740       _vorbis_granule_time       004ea740 f   libvorbis:info.obj
 0001:000e9780       _vorbis_commentheader_out  004ea780 f   libvorbis:info.obj
 0001:000e9820       _vorbis_analysis_headerout 004ea820 f   libvorbis:info.obj
 0001:000e9ba0       _vorbis_synthesis_idheader 004eaba0 f   libvorbis:info.obj
 0001:000e9c30       _vorbis_synthesis_headerin 004eac30 f   libvorbis:info.obj
 0001:000ea5f0       _vorbis_block_init         004eb5f0 f   libvorbis:block.obj
 0001:000ea660       _vorbis_block_clear        004eb660 f   libvorbis:block.obj
 0001:000ea6e0       _vorbis_dsp_clear          004eb6e0 f   libvorbis:block.obj
 0001:000ea920       _vorbis_analysis_init      004eb920 f   libvorbis:block.obj
 0001:000ea990       _vorbis_analysis_buffer    004eb990 f   libvorbis:block.obj
 0001:000eaa50       _vorbis_analysis_wrote     004eba50 f   libvorbis:block.obj
 0001:000eac30       _vorbis_analysis_blockout  004ebc30 f   libvorbis:block.obj
 0001:000eaf20       _vorbis_synthesis_init     004ebf20 f   libvorbis:block.obj
 0001:000eafc0       _vorbis_synthesis_restart  004ebfc0 f   libvorbis:block.obj
 0001:000eb040       _vorbis_synthesis_blockin  004ec040 f   libvorbis:block.obj
 0001:000eb6b0       _vorbis_synthesis_pcmout   004ec6b0 f   libvorbis:block.obj
 0001:000eb710       _vorbis_synthesis_lapout   004ec710 f   libvorbis:block.obj
 0001:000eba90       _vorbis_synthesis_read     004eca90 f   libvorbis:block.obj
 0001:000ebac0       __vorbis_block_alloc       004ecac0 f   libvorbis:block.obj
 0001:000ebb20       __vorbis_block_ripcord     004ecb20 f   libvorbis:block.obj
 0001:000ebb90       _vorbis_window             004ecb90 f   libvorbis:block.obj
 0001:000ec080       _vorbis_synthesis          004ed080 f   libvorbis:synthesis.obj
 0001:000ec1d0       _vorbis_synthesis_trackonly 004ed1d0 f   libvorbis:synthesis.obj
 0001:000ec2c0       _vorbis_packet_blocksize   004ed2c0 f   libvorbis:synthesis.obj
 0001:000ec340       _vorbis_synthesis_halfrate 004ed340 f   libvorbis:synthesis.obj
 0001:000ec370       _vorbis_synthesis_halfrate_p 004ed370 f   libvorbis:synthesis.obj
 0001:000ec390       _vorbis_analysis           004ed390 f   libvorbis:analysis.obj
 0001:000ec450       __analysis_output          004ed450 f   libvorbis:analysis.obj
 0001:000ec610       __analysis_output_always   004ed610 f   libvorbis:analysis.obj
 0001:000ec7c0       _vorbis_staticbook_clear   004ed7c0 f   libvorbis:sharedbook.obj
 0001:000ec880       _vorbis_staticbook_destroy 004ed880 f   libvorbis:sharedbook.obj
 0001:000ec940       _vorbis_book_init_encode   004ed940 f   libvorbis:sharedbook.obj
 0001:000ec990       _vorbis_book_init_decode   004ed990 f   libvorbis:sharedbook.obj
 0001:000ecf80       _vorbis_book_clear         004edf80 f   libvorbis:sharedbook.obj
 0001:000ecff0       __book_unquantize          004edff0 f   libvorbis:sharedbook.obj
 0001:000ed330       __float32_unpack           004ee330 f   libvorbis:sharedbook.obj
 0001:000ed380       __float32_pack             004ee380 f   libvorbis:sharedbook.obj
 0001:000ed450       __best                     004ee450 f   libvorbis:sharedbook.obj
 0001:000ed6a0       __ilog                     004ee6a0 f   libvorbis:sharedbook.obj
 0001:000ed6c0       __book_maptype1_quantvals  004ee6c0 f   libvorbis:sharedbook.obj
 0001:000ed770       _vorbis_book_codeword      004ee770 f   libvorbis:sharedbook.obj
 0001:000ed790       _vorbis_book_codelen       004ee790 f   libvorbis:sharedbook.obj
 0001:000ed7b0       __make_words               004ee7b0 f   libvorbis:sharedbook.obj
 0001:000ed940       _vorbis_staticbook_pack    004ee940 f   libvorbis:codebook.obj
 0001:000edba0       _vorbis_staticbook_unpack  004eeba0 f   libvorbis:codebook.obj
 0001:000ede40       _vorbis_book_encode        004eee40 f   libvorbis:codebook.obj
 0001:000ede90       _vorbis_book_errorv        004eee90 f   libvorbis:codebook.obj
 0001:000edf40       _vorbis_book_encodev       004eef40 f   libvorbis:codebook.obj
 0001:000ee020       _vorbis_book_decode        004ef020 f   libvorbis:codebook.obj
 0001:000ee050       _vorbis_book_decodevs_add  004ef050 f   libvorbis:codebook.obj
 0001:000ee350       _vorbis_book_decodev_set   004ef350 f   libvorbis:codebook.obj
 0001:000ee550       _vorbis_book_decodev_add   004ef550 f   libvorbis:codebook.obj
 0001:000ee730       _vorbis_book_decodevv_add  004ef730 f   libvorbis:codebook.obj
 0001:000eeaf0       __vp_psy_init              004efaf0 f   libvorbis:psy.obj
 0001:000ef300       __vp_psy_clear             004f0300 f   libvorbis:psy.obj
 0001:000ef3d0       __vi_psy_free              004f03d0 f   libvorbis:psy.obj
 0001:000ef400       __vp_remove_floor          004f0400 f   libvorbis:psy.obj
 0001:000ef520       __vp_noisemask             004f0520 f   libvorbis:psy.obj
 0001:000ef900       __vp_tonemask              004f0900 f   libvorbis:psy.obj
 0001:000efda0       __vp_offset_and_mix        004f0da0 f   libvorbis:psy.obj
 0001:000efed0       __vp_ampmax_decay          004f0ed0 f   libvorbis:psy.obj
 0001:000eff20       __vp_quantize_couple_memo  004f0f20 f   libvorbis:psy.obj
 0001:000f01b0       __vp_couple                004f11b0 f   libvorbis:psy.obj
 0001:000f0760       __vp_noise_normalize       004f1760 f   libvorbis:psy.obj
 0001:000f0bb0       __vp_noise_normalize_sort  004f1bb0 f   libvorbis:psy.obj
 0001:000f0d80       __vp_quantize_couple_sort  004f1d80 f   libvorbis:psy.obj
 0001:000f0ee0       _hf_reduction              004f1ee0 f   libvorbis:psy.obj
 0001:000f1120       __vp_global_look           004f2120 f   libvorbis:psy.obj
 0001:000f1150       __vp_global_free           004f2150 f   libvorbis:psy.obj
 0001:000f1180       __vi_gpsy_free             004f2180 f   libvorbis:psy.obj
 0001:000f22d0       _mdct_init                 004f32d0 f   libvorbis:mdct.obj
 0001:000f2590       _mdct_clear                004f3590 f   libvorbis:mdct.obj
 0001:000f25d0       _mdct_forward              004f35d0 f   libvorbis:mdct.obj
 0001:000f2820       _mdct_backward             004f3820 f   libvorbis:mdct.obj
 0001:000f3680       __ve_envelope_init         004f4680 f   libvorbis:envelope.obj
 0001:000f3930       __ve_envelope_clear        004f4930 f   libvorbis:envelope.obj
 0001:000f39a0       __ve_envelope_search       004f49a0 f   libvorbis:envelope.obj
 0001:000f3bb0       __ve_envelope_shift        004f4bb0 f   libvorbis:envelope.obj
 0001:000f3c10       __ve_envelope_mark         004f4c10 f   libvorbis:envelope.obj
 0001:000f4310       _drft_forward              004f5310 f   libvorbis:smallft.obj
 0001:000f4340       _drft_backward             004f5340 f   libvorbis:smallft.obj
 0001:000f4370       _drft_init                 004f5370 f   libvorbis:smallft.obj
 0001:000f43c0       _drft_clear                004f53c0 f   libvorbis:smallft.obj
 0001:000f76c0       _vorbis_bitrate_addblock   004f86c0 f   libvorbis:bitrate.obj
 0001:000f7b50       _vorbis_bitrate_flushpacket 004f8b50 f   libvorbis:bitrate.obj
 0001:000f7bf0       _vorbis_bitrate_init       004f8bf0 f   libvorbis:bitrate.obj
 0001:000f7d50       _vorbis_bitrate_clear      004f8d50 f   libvorbis:bitrate.obj
 0001:000f7d70       _vorbis_bitrate_managed    004f8d70 f   libvorbis:bitrate.obj
 0001:000f7da0       __vorbis_window_get        004f8da0 f   libvorbis:window.obj
 0001:000f7db0       __vorbis_apply_window      004f8db0 f   libvorbis:window.obj
 0001:000f7fe0       _vorbis_lpc_from_data      004f8fe0 f   libvorbis:lpc.obj
 0001:000f83e0       _vorbis_lpc_predict        004f93e0 f   libvorbis:lpc.obj
 0001:000f92e0       _floor1_fit                004fa2e0 f   libvorbis:floor1.obj
 0001:000f97d0       _floor1_interpolate_fit    004fa7d0 f   libvorbis:floor1.obj
 0001:000f9a00       _floor1_encode             004faa00 f   libvorbis:floor1.obj
 0001:000fadb0       _res0_free_info            004fbdb0 f   libvorbis:res0.obj
 0001:000fade0       _res0_free_look            004fbde0 f   libvorbis:res0.obj
 0001:000fae60       _res0_pack                 004fbe60 f   libvorbis:res0.obj
 0001:000faf60       _res0_unpack               004fbf60 f   libvorbis:res0.obj
 0001:000fb0b0       _res0_look                 004fc0b0 f   libvorbis:res0.obj
 0001:000fb670       _res0_inverse              004fc670 f   libvorbis:res0.obj
 0001:000fb6d0       _res1_forward              004fc6d0 f   libvorbis:res0.obj
 0001:000fbb30       _res1_class                004fcb30 f   libvorbis:res0.obj
 0001:000fbdb0       _res1_inverse              004fcdb0 f   libvorbis:res0.obj
 0001:000fbe10       _res2_class                004fce10 f   libvorbis:res0.obj
 0001:000fc100       _res2_forward              004fd100 f   libvorbis:res0.obj
 0001:000fc370       _res2_inverse              004fd370 f   libvorbis:res0.obj
 0001:000fdb40       _vorbis_lpc_to_lsp         004feb40 f   libvorbis:lsp.obj
 0001:000fe0b0       _vorbis_lsp_to_curve       004ff0b0 f   libvorbis:lsp.obj
 0001:000fe3c0       _vorbis_coslook            004ff3c0 f   libvorbis:lsp.obj
 0001:000fe430       _vorbis_invsqlook          004ff430 f   libvorbis:lsp.obj
 0001:000fe4b0       _vorbis_invsq2explook      004ff4b0 f   libvorbis:lsp.obj
 0001:000fe4c0       _vorbis_fromdBlook         004ff4c0 f   libvorbis:lsp.obj
 0001:000fed10       ??$?HDU?$char_traits@D@std@@V?$allocator@D@1@@std@@YA?AV?$basic_string@DU?$char_traits@D@std@@V?$allocator@D@2@@0@$$QAV10@0@Z 004ffd10 f i misclibq:l_res3d.obj
 0001:000fed90       ??$_Buynode@ABUpiecewise_construct_t@std@@V?$tuple@$$QAV?$basic_string@DU?$char_traits@D@std@@V?$allocator@D@2@@std@@@2@V?$tuple@$$V@2@@?$_Tree_comp_alloc@V?$_Tmap_traits@V?$basic_string@DU?$char_traits@D@std@@V?$allocator@D@2@@std@@P6APAXAAVscript@@@ZU?$less@V?$basic_string@DU?$char_traits@D@std@@V?$allocator@D@2@@std@@@2@V?$allocator@U?$pair@$$CBV?$basic_string@DU?$char_traits@D@std@@V?$allocator@D@2@@std@@P6APAXAAVscript@@@Z@std@@@2@$0A@@std@@@std@@QAEPAU?$_Tree_node@U?$pair@$$CBV?$basic_string@DU?$char_traits@D@std@@V?$allocator@D@2@@std@@P6APAXAAVscript@@@Z@std@@PAX@1@ABUpiecewise_construct_t@1@$$QAV?$tuple@$$QAV?$basic_string@DU?$char_traits@D@std@@V?$allocator@D@2@@std@@@1@$$QAV?$tuple@$$V@1@@Z 004ffd90 f i misclibq:l_res3d.obj
 0001:000fede0       ??$_Copy_unchecked@PAV?$basic_string@DU?$char_traits@D@std@@V?$allocator@D@2@@std@@PAV12@@std@@YAPAV?$basic_string@DU?$char_traits@D@std@@V?$allocator@D@2@@0@PAV10@00@Z 004ffde0 f i misclibq:l_res3d.obj
 0001:000fee20       ??$_Emplace_reallocate@ABQAVshape@res3d@@@?$vector@PAVshape@res3d@@V?$allocator@PAVshape@res3d@@@std@@@std@@QAEPAPAVshape@res3d@@QAPAV23@ABQAV23@@Z 004ffe20 f i misclibq:l_res3d.obj
 0001:000fef80       ??$_Insert_at@AAU?$pair@$$CBV?$basic_string@DU?$char_traits@D@std@@V?$allocator@D@2@@std@@P6APAXAAVscript@@@Z@std@@PAU?$_Tree_node@U?$pair@$$CBV?$basic_string@DU?$char_traits@D@std@@V?$allocator@D@2@@std@@P6APAXAAVscript@@@Z@std@@PAX@2@@?$_Tree@V?$_Tmap_traits@V?$basic_string@DU?$char_traits@D@std@@V?$allocator@D@2@@std@@P6APAXAAVscript@@@ZU?$less@V?$basic_string@DU?$char_traits@D@std@@V?$allocator@D@2@@std@@@2@V?$allocator@U?$pair@$$CBV?$basic_string@DU?$char_traits@D@std@@V?$allocator@D@2@@std@@P6APAXAAVscript@@@Z@std@@@2@$0A@@std@@@std@@IAE?AV?$_Tree_iterator@V?$_Tree_val@U?$_Tree_simple_types@U?$pair@$$CBV?$basic_string@DU?$char_traits@D@std@@V?$allocator@D@2@@std@@P6APAXAAVscript@@@Z@std@@@std@@@std@@@1@_NPAU?$_Tree_node@U?$pair@$$CBV?$basic_string@DU?$char_traits@D@std@@V?$allocator@D@2@@std@@P6APAXAAVscript@@@Z@std@@PAX@1@AAU?$pair@$$CBV?$basic_string@DU?$char_traits@D@std@@V?$allocator@D@2@@std@@P6APAXAAVscript@@@Z@1@1@Z 004fff80 f i misclibq:l_res3d.obj
 0001:000ff0e0       ??$_Insert_hint@AAU?$pair@$$CBV?$basic_string@DU?$char_traits@D@std@@V?$allocator@D@2@@std@@P6APAXAAVscript@@@Z@std@@PAU?$_Tree_node@U?$pair@$$CBV?$basic_string@DU?$char_traits@D@std@@V?$allocator@D@2@@std@@P6APAXAAVscript@@@Z@std@@PAX@2@@?$_Tree@V?$_Tmap_traits@V?$basic_string@DU?$char_traits@D@std@@V?$allocator@D@2@@std@@P6APAXAAVscript@@@ZU?$less@V?$basic_string@DU?$char_traits@D@std@@V?$allocator@D@2@@std@@@2@V?$allocator@U?$pair@$$CBV?$basic_string@DU?$char_traits@D@std@@V?$allocator@D@2@@std@@P6APAXAAVscript@@@Z@std@@@2@$0A@@std@@@std@@IAE?AV?$_Tree_iterator@V?$_Tree_val@U?$_Tree_simple_types@U?$pair@$$CBV?$basic_string@DU?$char_traits@D@std@@V?$allocator@D@2@@std@@P6APAXAAVscript@@@Z@std@@@std@@@std@@@1@V?$_Tree_const_iterator@V?$_Tree_val@U?$_Tree_simple_types@U?$pair@$$CBV?$basic_string@DU?$char_traits@D@std@@V?$allocator@D@2@@std@@P6APAXAAVscript@@@Z@std@@@std@@@std@@@1@AAU?$pair@$$CBV?$basic_string@DU?$char_traits@D@std@@V?$allocator@D@2@@std@@P6APAXAAVscript@@@Z@1@PAU?$_Tree_node@U?$pair@$$CBV?$basic_string@DU?$char_traits@D@std@@V?$allocator@D@2@@std@@P6APAXAAVscript@@@Z@std@@PAX@1@@Z 005000e0 f i misclibq:l_res3d.obj
 0001:000ff330       ??$_Insert_nohint@AAU?$pair@$$CBV?$basic_string@DU?$char_traits@D@std@@V?$allocator@D@2@@std@@P6APAXAAVscript@@@Z@std@@PAU?$_Tree_node@U?$pair@$$CBV?$basic_string@DU?$char_traits@D@std@@V?$allocator@D@2@@std@@P6APAXAAVscript@@@Z@std@@PAX@2@@?$_Tree@V?$_Tmap_traits@V?$basic_string@DU?$char_traits@D@std@@V?$allocator@D@2@@std@@P6APAXAAVscript@@@ZU?$less@V?$basic_string@DU?$char_traits@D@std@@V?$allocator@D@2@@std@@@2@V?$allocator@U?$pair@$$CBV?$basic_string@DU?$char_traits@D@std@@V?$allocator@D@2@@std@@P6APAXAAVscript@@@Z@std@@@2@$0A@@std@@@std@@IAE?AU?$pair@V?$_Tree_iterator@V?$_Tree_val@U?$_Tree_simple_types@U?$pair@$$CBV?$basic_string@DU?$char_traits@D@std@@V?$allocator@D@2@@std@@P6APAXAAVscript@@@Z@std@@@std@@@std@@@std@@_N@1@_NAAU?$pair@$$CBV?$basic_string@DU?$char_traits@D@std@@V?$allocator@D@2@@std@@P6APAXAAVscript@@@Z@1@PAU?$_Tree_node@U?$pair@$$CBV?$basic_string@DU?$char_traits@D@std@@V?$allocator@D@2@@std@@P6APAXAAVscript@@@Z@std@@PAX@1@@Z 00500330 f i misclibq:l_res3d.obj
 0001:000ff4e0       ??$_Insertion_sort_unchecked@PAV?$basic_string@DU?$char_traits@D@std@@V?$allocator@D@2@@std@@P6A_NABV12@0@Z@std@@YAPAV?$basic_string@DU?$char_traits@D@std@@V?$allocator@D@2@@0@PAV10@QAV10@P6A_NABV10@2@Z@Z 005004e0 f i misclibq:l_res3d.obj
 0001:000ff7d0       ??$_Insertion_sort_unchecked@PAV?$basic_string@DU?$char_traits@D@std@@V?$allocator@D@2@@std@@U?$greater@V?$basic_string@DU?$char_traits@D@std@@V?$allocator@D@2@@std@@@2@@std@@YAPAV?$basic_string@DU?$char_traits@D@std@@V?$allocator@D@2@@0@PAV10@QAV10@U?$greater@V?$basic_string@DU?$char_traits@D@std@@V?$allocator@D@2@@std@@@0@@Z 005007d0 f i misclibq:l_res3d.obj
 0001:000ffaa0       ??$_Insertion_sort_unchecked@PAV?$basic_string@DU?$char_traits@D@std@@V?$allocator@D@2@@std@@U?$less@X@2@@std@@YAPAV?$basic_string@DU?$char_traits@D@std@@V?$allocator@D@2@@0@PAV10@QAV10@U?$less@X@0@@Z 00500aa0 f i misclibq:l_res3d.obj
 0001:000ffd70       ??$_Med3_unchecked@PAV?$basic_string@DU?$char_traits@D@std@@V?$allocator@D@2@@std@@P6A_NABV12@0@Z@std@@YAXPAV?$basic_string@DU?$char_traits@D@std@@V?$allocator@D@2@@0@00P6A_NABV10@1@Z@Z 00500d70 f i misclibq:l_res3d.obj
 0001:000ffe10       ??$_Med3_unchecked@PAV?$basic_string@DU?$char_traits@D@std@@V?$allocator@D@2@@std@@U?$greater@V?$basic_string@DU?$char_traits@D@std@@V?$allocator@D@2@@std@@@2@@std@@YAXPAV?$basic_string@DU?$char_traits@D@std@@V?$allocator@D@2@@0@00U?$greater@V?$basic_string@DU?$char_traits@D@std@@V?$allocator@D@2@@std@@@0@@Z 00500e10 f i misclibq:l_res3d.obj
 0001:000fff10       ??$_Med3_unchecked@PAV?$basic_string@DU?$char_traits@D@std@@V?$allocator@D@2@@std@@U?$less@X@2@@std@@YAXPAV?$basic_string@DU?$char_traits@D@std@@V?$allocator@D@2@@0@00U?$less@X@0@@Z 00500f10 f i misclibq:l_res3d.obj
 0001:00100010       ??$_Move_backward_unchecked@PAV?$basic_string@DU?$char_traits@D@std@@V?$allocator@D@2@@std@@PAV12@@std@@YAPAV?$basic_string@DU?$char_traits@D@std@@V?$allocator@D@2@@0@PAV10@00@Z 00501010 f i misclibq:l_res3d.obj
 0001:001000b0       ??$_Move_backward_unchecked@PAV?$vector@V?$basic_string@DU?$char_traits@D@std@@V?$allocator@D@2@@std@@V?$allocator@V?$basic_string@DU?$char_traits@D@std@@V?$allocator@D@2@@std@@@2@@std@@PAV12@@std@@YAPAV?$vector@V?$basic_string@DU?$char_traits@D@std@@V?$allocator@D@2@@std@@V?$allocator@V?$basic_string@DU?$char_traits@D@std@@V?$allocator@D@2@@std@@@2@@0@PAV10@00@Z 005010b0 f i misclibq:l_res3d.obj
 0001:00100110       ??$_Partition_by_median_guess_unchecked@PAV?$basic_string@DU?$char_traits@D@std@@V?$allocator@D@2@@std@@P6A_NABV12@0@Z@std@@YA?AU?$pair@PAV?$basic_string@DU?$char_traits@D@std@@V?$allocator@D@2@@std@@PAV12@@0@PAV?$basic_string@DU?$char_traits@D@std@@V?$allocator@D@2@@0@0P6A_NABV20@1@Z@Z 00501110 f i misclibq:l_res3d.obj
 0001:001003f0       ??$_Partition_by_median_guess_unchecked@PAV?$basic_string@DU?$char_traits@D@std@@V?$allocator@D@2@@std@@U?$greater@V?$basic_string@DU?$char_traits@D@std@@V?$allocator@D@2@@std@@@2@@std@@YA?AU?$pair@PAV?$basic_string@DU?$char_traits@D@std@@V?$allocator@D@2@@std@@PAV12@@0@PAV?$basic_string@DU?$char_traits@D@std@@V?$allocator@D@2@@0@0U?$greater@V?$basic_string@DU?$char_traits@D@std@@V?$allocator@D@2@@std@@@0@@Z 005013f0 f i misclibq:l_res3d.obj
 0001:00100820       ??$_Partition_by_median_guess_unchecked@PAV?$basic_string@DU?$char_traits@D@std@@V?$allocator@D@2@@std@@U?$less@X@2@@std@@YA?AU?$pair@PAV?$basic_string@DU?$char_traits@D@std@@V?$allocator@D@2@@std@@PAV12@@0@PAV?$basic_string@DU?$char_traits@D@std@@V?$allocator@D@2@@0@0U?$less@X@0@@Z 00501820 f i misclibq:l_res3d.obj
 0001:00100c40       ??$_Pop_heap_hole_by_index@PAV?$basic_string@DU?$char_traits@D@std@@V?$allocator@D@2@@std@@V12@P6A_NABV12@0@Z@std@@YAXPAV?$basic_string@DU?$char_traits@D@std@@V?$allocator@D@2@@0@HH$$QAV10@P6A_NABV10@2@Z@Z 00501c40 f i misclibq:l_res3d.obj
 0001:00100e90       ??$_Pop_heap_hole_by_index@PAV?$basic_string@DU?$char_traits@D@std@@V?$allocator@D@2@@std@@V12@U?$greater@V?$basic_string@DU?$char_traits@D@std@@V?$allocator@D@2@@std@@@2@@std@@YAXPAV?$basic_string@DU?$char_traits@D@std@@V?$allocator@D@2@@0@HH$$QAV10@U?$greater@V?$basic_string@DU?$char_traits@D@std@@V?$allocator@D@2@@std@@@0@@Z 00501e90 f i misclibq:l_res3d.obj
 0001:00101000       ??$_Pop_heap_hole_by_index@PAV?$basic_string@DU?$char_traits@D@std@@V?$allocator@D@2@@std@@V12@U?$less@X@2@@std@@YAXPAV?$basic_string@DU?$char_traits@D@std@@V?$allocator@D@2@@0@HH$$QAV10@U?$less@X@0@@Z 00502000 f i misclibq:l_res3d.obj
 0001:00101170       ??$_Push_heap_by_index@PAV?$basic_string@DU?$char_traits@D@std@@V?$allocator@D@2@@std@@V12@U?$greater@V?$basic_string@DU?$char_traits@D@std@@V?$allocator@D@2@@std@@@2@@std@@YAXPAV?$basic_string@DU?$char_traits@D@std@@V?$allocator@D@2@@0@HH$$QAV10@U?$greater@V?$basic_string@DU?$char_traits@D@std@@V?$allocator@D@2@@std@@@0@@Z 00502170 f i misclibq:l_res3d.obj
 0001:001012d0       ??$_Push_heap_by_index@PAV?$basic_string@DU?$char_traits@D@std@@V?$allocator@D@2@@std@@V12@U?$less@X@2@@std@@YAXPAV?$basic_string@DU?$char_traits@D@std@@V?$allocator@D@2@@0@HH$$QAV10@U?$less@X@0@@Z 005022d0 f i misclibq:l_res3d.obj
 0001:00101430       ??$_Sort_heap_unchecked@PAV?$basic_string@DU?$char_traits@D@std@@V?$allocator@D@2@@std@@P6A_NABV12@0@Z@std@@YAXPAV?$basic_string@DU?$char_traits@D@std@@V?$allocator@D@2@@0@0P6A_NABV10@1@Z@Z 00502430 f i misclibq:l_res3d.obj
 0001:001015d0       ??$_Sort_unchecked@PAV?$basic_string@DU?$char_traits@D@std@@V?$allocator@D@2@@std@@P6A_NABV12@0@Z@std@@YAXPAV?$basic_string@DU?$char_traits@D@std@@V?$allocator@D@2@@0@0HP6A_NABV10@1@Z@Z 005025d0 f i misclibq:l_res3d.obj
 0001:001017e0       ??$_Sort_unchecked@PAV?$basic_string@DU?$char_traits@D@std@@V?$allocator@D@2@@std@@U?$greater@V?$basic_string@DU?$char_traits@D@std@@V?$allocator@D@2@@std@@@2@@std@@YAXPAV?$basic_string@DU?$char_traits@D@std@@V?$allocator@D@2@@0@0HU?$greater@V?$basic_string@DU?$char_traits@D@std@@V?$allocator@D@2@@std@@@0@@Z 005027e0 f i misclibq:l_res3d.obj
 0001:00101ac0       ??$_Sort_unchecked@PAV?$basic_string@DU?$char_traits@D@std@@V?$allocator@D@2@@std@@U?$less@X@2@@std@@YAXPAV?$basic_string@DU?$char_traits@D@std@@V?$allocator@D@2@@0@0HU?$less@X@0@@Z 00502ac0 f i misclibq:l_res3d.obj
 0001:00101da0       ??$_Ucopy@PAV?$basic_string@DU?$char_traits@D@std@@V?$allocator@D@2@@std@@@?$vector@V?$basic_string@DU?$char_traits@D@std@@V?$allocator@D@2@@std@@V?$allocator@V?$basic_string@DU?$char_traits@D@std@@V?$allocator@D@2@@std@@@2@@std@@AAEPAV?$basic_string@DU?$char_traits@D@std@@V?$allocator@D@2@@1@PAV21@00@Z 00502da0 f i misclibq:l_res3d.obj
 0001:00101e30       ??0?$factory2@Vshape@res3d@@@@QAE@XZ 00502e30 f   misclibq:l_res3d.obj
 0001:001022a0       ??0back@res3d@@QAE@AAVscript@@@Z 005032a0 f   misclibq:l_res3d.obj
 0001:00102360       ??0back@res3d@@QAE@PBDHHHH@Z 00503360 f   misclibq:l_res3d.obj
 0001:001023a0       ??0hscroll@res3d@@QAE@AAVscript@@@Z 005033a0 f   misclibq:l_res3d.obj
 0001:001023f0       ??0shape@res3d@@QAE@AAVscript@@@Z 005033f0 f   misclibq:l_res3d.obj
 0001:00102570       ??0shape@res3d@@QAE@PBDHH@Z 00503570 f i misclibq:l_res3d.obj
 0001:001025f0       ??0text@res3d@@QAE@AAVscript@@@Z 005035f0 f   misclibq:l_res3d.obj
 0001:001026c0       ??0vscroll@res3d@@QAE@AAVscript@@@Z 005036c0 f   misclibq:l_res3d.obj
 0001:00102710       ??0vscroll@res3d@@QAE@PBDHHHH@Z 00503710 f   misclibq:l_res3d.obj
 0001:00102780       ??1?$factory2@Vshape@res3d@@@@QAE@XZ 00503780 f i misclibq:l_res3d.obj
 0001:001027f0       ??1?$map@V?$basic_string@DU?$char_traits@D@std@@V?$allocator@D@2@@std@@P6APAXAAVscript@@@ZU?$less@V?$basic_string@DU?$char_traits@D@std@@V?$allocator@D@2@@std@@@2@V?$allocator@U?$pair@$$CBV?$basic_string@DU?$char_traits@D@std@@V?$allocator@D@2@@std@@P6APAXAAVscript@@@Z@std@@@2@@std@@QAE@XZ 005037f0 f i misclibq:l_res3d.obj
 0001:00102860       ??1?$vector@PAVshape@res3d@@V?$allocator@PAVshape@res3d@@@std@@@std@@QAE@XZ 00503860 f i misclibq:l_res3d.obj
 0001:001028c0       ??1back@res3d@@UAE@XZ      005038c0 f i misclibq:l_res3d.obj
 0001:001028d0       ??1hscroll@res3d@@UAE@XZ   005038d0 f   misclibq:l_res3d.obj
 0001:001028e0       ??1listbox@res3d@@UAE@XZ   005038e0 f   misclibq:l_res3d.obj
 0001:00102900       ??1listboxn@res3d@@UAE@XZ  00503900 f   misclibq:l_res3d.obj
 0001:00102970       ??1shape@res3d@@UAE@XZ     00503970 f   misclibq:l_res3d.obj
 0001:00102a90       ??1vscroll@res3d@@UAE@XZ   00503a90 f   misclibq:l_res3d.obj
 0001:00102aa0       ??4?$vector@V?$basic_string@DU?$char_traits@D@std@@V?$allocator@D@2@@std@@V?$allocator@V?$basic_string@DU?$char_traits@D@std@@V?$allocator@D@2@@std@@@2@@std@@QAEAAV01@ABV01@@Z 00503aa0 f i misclibq:l_res3d.obj
 0001:00102be0       ??A?$map@V?$basic_string@DU?$char_traits@D@std@@V?$allocator@D@2@@std@@P6APAXAAVscript@@@ZU?$less@V?$basic_string@DU?$char_traits@D@std@@V?$allocator@D@2@@std@@@2@V?$allocator@U?$pair@$$CBV?$basic_string@DU?$char_traits@D@std@@V?$allocator@D@2@@std@@P6APAXAAVscript@@@Z@std@@@2@@std@@QAEAAP6APAXAAVscript@@@Z$$QAV?$basic_string@DU?$char_traits@D@std@@V?$allocator@D@2@@1@@Z 00503be0 f i misclibq:l_res3d.obj
 0001:00102c70       ??E?$_Tree_const_iterator@V?$_Tree_val@U?$_Tree_simple_types@U?$pair@$$CBV?$basic_string@DU?$char_traits@D@std@@V?$allocator@D@2@@std@@P6APAXAAVscript@@@Z@std@@@std@@@std@@@std@@QAEAAV01@XZ 00503c70 f i misclibq:l_res3d.obj
 0001:00102cd0       ??F?$_Tree_const_iterator@V?$_Tree_val@U?$_Tree_simple_types@U?$pair@$$CBV?$basic_string@DU?$char_traits@D@std@@V?$allocator@D@2@@std@@P6APAXAAVscript@@@Z@std@@@std@@@std@@@std@@QAEAAV01@XZ 00503cd0 f i misclibq:l_res3d.obj
 0001:00102d60       ??_Eback@res3d@@UAEPAXI@Z  00503d60 f i misclibq:l_res3d.obj
 0001:00102d60       ??_Gback@res3d@@UAEPAXI@Z  00503d60 f i misclibq:l_res3d.obj
 0001:00102d90       ??_Eedit@res3d@@UAEPAXI@Z  00503d90 f i misclibq:l_res3d.obj
 0001:00102d90       ??_Gedit@res3d@@UAEPAXI@Z  00503d90 f i misclibq:l_res3d.obj
 0001:00102e00       ??_Ghscroll@res3d@@UAEPAXI@Z 00503e00 f i misclibq:l_res3d.obj
 0001:00102e00       ??_Ehscroll@res3d@@UAEPAXI@Z 00503e00 f i misclibq:l_res3d.obj
 0001:00102e30       ??_Glistbox@res3d@@UAEPAXI@Z 00503e30 f i misclibq:l_res3d.obj
 0001:00102e30       ??_Elistbox@res3d@@UAEPAXI@Z 00503e30 f i misclibq:l_res3d.obj
 0001:00102e70       ??_Glistboxn@res3d@@UAEPAXI@Z 00503e70 f i misclibq:l_res3d.obj
 0001:00102e70       ??_Elistboxn@res3d@@UAEPAXI@Z 00503e70 f i misclibq:l_res3d.obj
 0001:00102f00       ??_Gpbut@res3d@@UAEPAXI@Z  00503f00 f i misclibq:l_res3d.obj
 0001:00102f00       ??_Epbut@res3d@@UAEPAXI@Z  00503f00 f i misclibq:l_res3d.obj
 0001:00102f70       ??_Eshape@res3d@@UAEPAXI@Z 00503f70 f i misclibq:l_res3d.obj
 0001:00102f70       ??_Gshape@res3d@@UAEPAXI@Z 00503f70 f i misclibq:l_res3d.obj
 0001:00102fa0       ??_Gtext@res3d@@UAEPAXI@Z  00503fa0 f i misclibq:l_res3d.obj
 0001:00102fa0       ??_Etext@res3d@@UAEPAXI@Z  00503fa0 f i misclibq:l_res3d.obj
 0001:00103010       ??_Gvscroll@res3d@@UAEPAXI@Z 00504010 f i misclibq:l_res3d.obj
 0001:00103010       ??_Evscroll@res3d@@UAEPAXI@Z 00504010 f i misclibq:l_res3d.obj
 0001:00103040       ?_Buy@?$vector@V?$basic_string@DU?$char_traits@D@std@@V?$allocator@D@2@@std@@V?$allocator@V?$basic_string@DU?$char_traits@D@std@@V?$allocator@D@2@@std@@@2@@std@@AAE_NI@Z 00504040 f i misclibq:l_res3d.obj
 0001:001030a0       ?_Buyheadnode@?$_Tree_comp_alloc@V?$_Tmap_traits@V?$basic_string@DU?$char_traits@D@std@@V?$allocator@D@2@@std@@P6APAXAAVscript@@@ZU?$less@V?$basic_string@DU?$char_traits@D@std@@V?$allocator@D@2@@std@@@2@V?$allocator@U?$pair@$$CBV?$basic_string@DU?$char_traits@D@std@@V?$allocator@D@2@@std@@P6APAXAAVscript@@@Z@std@@@2@$0A@@std@@@std@@QAEPAU?$_Tree_node@U?$pair@$$CBV?$basic_string@DU?$char_traits@D@std@@V?$allocator@D@2@@std@@P6APAXAAVscript@@@Z@std@@PAX@2@XZ 005040a0 f i misclibq:l_res3d.obj
 0001:001030c0       ?_Buynode0@?$_Tree_comp_alloc@V?$_Tmap_traits@V?$basic_string@DU?$char_traits@D@std@@V?$allocator@D@2@@std@@P6APAXAAVscript@@@ZU?$less@V?$basic_string@DU?$char_traits@D@std@@V?$allocator@D@2@@std@@@2@V?$allocator@U?$pair@$$CBV?$basic_string@DU?$char_traits@D@std@@V?$allocator@D@2@@std@@P6APAXAAVscript@@@Z@std@@@2@$0A@@std@@@std@@QAEPAU?$_Tree_node@U?$pair@$$CBV?$basic_string@DU?$char_traits@D@std@@V?$allocator@D@2@@std@@P6APAXAAVscript@@@Z@std@@PAX@2@XZ 005040c0 f i misclibq:l_res3d.obj
 0001:001030e0       ?_Destroy_if_node@?$_Tree@V?$_Tmap_traits@V?$basic_string@DU?$char_traits@D@std@@V?$allocator@D@2@@std@@P6APAXAAVscript@@@ZU?$less@V?$basic_string@DU?$char_traits@D@std@@V?$allocator@D@2@@std@@@2@V?$allocator@U?$pair@$$CBV?$basic_string@DU?$char_traits@D@std@@V?$allocator@D@2@@std@@P6APAXAAVscript@@@Z@std@@@2@$0A@@std@@@std@@IAEXPAU?$_Tree_node@U?$pair@$$CBV?$basic_string@DU?$char_traits@D@std@@V?$allocator@D@2@@std@@P6APAXAAVscript@@@Z@std@@PAX@2@@Z 005040e0 f i misclibq:l_res3d.obj
 0001:00103140       ?_Lrotate@?$_Tree_val@U?$_Tree_simple_types@U?$pair@$$CBV?$basic_string@DU?$char_traits@D@std@@V?$allocator@D@2@@std@@P6APAXAAVscript@@@Z@std@@@std@@@std@@QAEXPAU?$_Tree_node@U?$pair@$$CBV?$basic_string@DU?$char_traits@D@std@@V?$allocator@D@2@@std@@P6APAXAAVscript@@@Z@std@@PAX@2@@Z 00504140 f i misclibq:l_res3d.obj
 0001:001031a0       ?_Rrotate@?$_Tree_val@U?$_Tree_simple_types@U?$pair@$$CBV?$basic_string@DU?$char_traits@D@std@@V?$allocator@D@2@@std@@P6APAXAAVscript@@@Z@std@@@std@@@std@@QAEXPAU?$_Tree_node@U?$pair@$$CBV?$basic_string@DU?$char_traits@D@std@@V?$allocator@D@2@@std@@P6APAXAAVscript@@@Z@std@@PAX@2@@Z 005041a0 f i misclibq:l_res3d.obj
 0001:00103200       ?_Xlength@?$vector@PAVshape@res3d@@V?$allocator@PAVshape@res3d@@@std@@@std@@CAXXZ 00504200 f i misclibq:l_res3d.obj
 0001:00103210       ?addstring@listbox@res3d@@QAEXPBD@Z 00504210 f   misclibq:l_res3d.obj
 0001:00103390       ?addstring@listbox@res3d@@QAEXPBDH@Z 00504390 f   misclibq:l_res3d.obj
 0001:001035c0       ?addstring@listboxn@res3d@@QAEXABV?$vector@V?$basic_string@DU?$char_traits@D@std@@V?$allocator@D@2@@std@@V?$allocator@V?$basic_string@DU?$char_traits@D@std@@V?$allocator@D@2@@std@@@2@@std@@@Z 005045c0 f   misclibq:l_res3d.obj
 0001:00103670       ?addstring@listboxn@res3d@@QAEXABV?$vector@V?$basic_string@DU?$char_traits@D@std@@V?$allocator@D@2@@std@@V?$allocator@V?$basic_string@DU?$char_traits@D@std@@V?$allocator@D@2@@std@@@2@@std@@H@Z 00504670 f   misclibq:l_res3d.obj
 0001:001037d0       ?addstringstay@listbox@res3d@@QAEXPBD@Z 005047d0 f   misclibq:l_res3d.obj
 0001:00103990       ?addstringstay@listboxn@res3d@@QAEXABV?$vector@V?$basic_string@DU?$char_traits@D@std@@V?$allocator@D@2@@std@@V?$allocator@V?$basic_string@DU?$char_traits@D@std@@V?$allocator@D@2@@std@@@2@@std@@@Z 00504990 f   misclibq:l_res3d.obj
 0001:00103a00       ?changestring@listbox@res3d@@QAEXPBDH@Z 00504a00 f   misclibq:l_res3d.obj
 0001:00103a50       ?changestring@listboxn@res3d@@QAEXABV?$vector@V?$basic_string@DU?$char_traits@D@std@@V?$allocator@D@2@@std@@V?$allocator@V?$basic_string@DU?$char_traits@D@std@@V?$allocator@D@2@@std@@@2@@std@@H@Z 00504a50 f   misclibq:l_res3d.obj
 0001:00103a90       ?checkpos@edit@res3d@@AAEXXZ 00504a90 f   misclibq:l_res3d.obj
 0001:00103ab0       ?createh@back@res3d@@SAPAVshape@2@AAVscript@@@Z 00504ab0 f i misclibq:l_res3d.obj
 0001:00103b20       ?createh@edit@res3d@@SAPAVshape@2@AAVscript@@@Z 00504b20 f i misclibq:l_res3d.obj
 0001:00103bb0       ?createh@hscroll@res3d@@SAPAVshape@2@AAVscript@@@Z 00504bb0 f i misclibq:l_res3d.obj
 0001:00103c50       ?createh@listbox@res3d@@SAPAVshape@2@AAVscript@@@Z 00504c50 f i misclibq:l_res3d.obj
 0001:00103d00       ?createh@listboxn@res3d@@SAPAVshape@2@AAVscript@@@Z 00504d00 f i misclibq:l_res3d.obj
 0001:00103dd0       ?createh@pbut@res3d@@SAPAVshape@2@AAVscript@@@Z 00504dd0 f i misclibq:l_res3d.obj
 0001:00103e60       ?createh@shape@res3d@@SAPAV12@AAVscript@@@Z 00504e60 f i misclibq:l_res3d.obj
 0001:00103ed0       ?createh@text@res3d@@SAPAVshape@2@AAVscript@@@Z 00504ed0 f i misclibq:l_res3d.obj
 0001:00103f40       ?createh@vscroll@res3d@@SAPAVshape@2@AAVscript@@@Z 00504f40 f i misclibq:l_res3d.obj
 0001:00103fe0       ?deactivate@shape@res3d@@UAEXXZ 00504fe0 f i misclibq:l_res3d.obj
 0001:00103ff0       ?draw3d@back@res3d@@UBEXXZ 00504ff0 f   misclibq:l_res3d.obj
 0001:00104120       ?draw3d@edit@res3d@@UBEXXZ 00505120 f   misclibq:l_res3d.obj
 0001:001043d0       ?draw3d@hscroll@res3d@@UBEXXZ 005053d0 f   misclibq:l_res3d.obj
 0001:00104700       ?draw3d@listbox@res3d@@UBEXXZ 00505700 f   misclibq:l_res3d.obj
 0001:001049f0       ?draw3d@listboxn@res3d@@UBEXXZ 005059f0 f   misclibq:l_res3d.obj
 0001:00104e20       ?draw3d@pbut@res3d@@UBEXXZ 00505e20 f   misclibq:l_res3d.obj
 0001:00104fc0       ?draw3d@shape@res3d@@UBEXXZ 00505fc0 f   misclibq:l_res3d.obj
 0001:00105000       ?draw3d@text@res3d@@UBEXXZ 00506000 f   misclibq:l_res3d.obj
 0001:00105160       ?draw3d@vscroll@res3d@@UBEXXZ 00506160 f   misclibq:l_res3d.obj
 0001:00105490       ?drift_col@@YA?AUC32@@U1@0M@Z 00506490 f   misclibq:l_res3d.obj
 0001:00105520       ?erase@?$vector@V?$basic_string@DU?$char_traits@D@std@@V?$allocator@D@2@@std@@V?$allocator@V?$basic_string@DU?$char_traits@D@std@@V?$allocator@D@2@@std@@@2@@std@@QAE?AV?$_Vector_iterator@V?$_Vector_val@U?$_Simple_types@V?$basic_string@DU?$char_traits@D@std@@V?$allocator@D@2@@std@@@std@@@std@@@2@V?$_Vector_const_iterator@V?$_Vector_val@U?$_Simple_types@V?$basic_string@DU?$char_traits@D@std@@V?$allocator@D@2@@std@@@std@@@std@@@2@@Z 00506520 f i misclibq:l_res3d.obj
 0001:00105620       ?erase@?$vector@V?$vector@V?$basic_string@DU?$char_traits@D@std@@V?$allocator@D@2@@std@@V?$allocator@V?$basic_string@DU?$char_traits@D@std@@V?$allocator@D@2@@std@@@2@@std@@V?$allocator@V?$vector@V?$basic_string@DU?$char_traits@D@std@@V?$allocator@D@2@@std@@V?$allocator@V?$basic_string@DU?$char_traits@D@std@@V?$allocator@D@2@@std@@@2@@std@@@2@@std@@QAE?AV?$_Vector_iterator@V?$_Vector_val@U?$_Simple_types@V?$vector@V?$basic_string@DU?$char_traits@D@std@@V?$allocator@D@2@@std@@V?$allocator@V?$basic_string@DU?$char_traits@D@std@@V?$allocator@D@2@@std@@@2@@std@@@std@@@std@@@2@V?$_Vector_const_iterator@V?$_Vector_val@U?$_Simple_types@V?$vector@V?$basic_string@DU?$char_traits@D@std@@V?$allocator@D@2@@std@@V?$allocator@V?$basic_string@DU?$char_traits@D@std@@V?$allocator@D@2@@std@@@2@@std@@@std@@@std@@@2@@Z 00506620 f i misclibq:l_res3d.obj
 0001:001056a0       ?exit_res3d@res3d@@YAXXZ   005066a0 f   misclibq:l_res3d.obj
 0001:00105700       ?find@shape@res3d@@QAEPAV12@PBD@Z 00506700 f   misclibq:l_res3d.obj
 0001:00105730       ?findrec@shape@res3d@@QAEPAV12@PBD@Z 00506730 f   misclibq:l_res3d.obj
 0001:001057b0       ?findstring@listbox@res3d@@QBEHPBD@Z 005067b0 f   misclibq:l_res3d.obj
 0001:00105830       ?findstring@listboxn@res3d@@QBEHPBD@Z 00506830 f   misclibq:l_res3d.obj
 0001:001058d0       ?getidxname@listbox@res3d@@QBEPBDH@Z 005068d0 f   misclibq:l_res3d.obj
 0001:00105920       ?getidxname@listbox@res3d@@QBEPBDXZ 00506920 f   misclibq:l_res3d.obj
 0001:00105940       ?getidxname@listboxn@res3d@@QBE?AV?$vector@V?$basic_string@DU?$char_traits@D@std@@V?$allocator@D@2@@std@@V?$allocator@V?$basic_string@DU?$char_traits@D@std@@V?$allocator@D@2@@std@@@2@@std@@H@Z 00506940 f   misclibq:l_res3d.obj
 0001:001059d0       ?getidxname@listboxn@res3d@@QBE?AV?$vector@V?$basic_string@DU?$char_traits@D@std@@V?$allocator@D@2@@std@@V?$allocator@V?$basic_string@DU?$char_traits@D@std@@V?$allocator@D@2@@std@@@2@@std@@XZ 005069d0 f   misclibq:l_res3d.obj
 0001:00105a40       ?getover@shape@res3d@@QAEPAV12@XZ 00506a40 f   misclibq:l_res3d.obj
 0001:00105b00       ?init_res3d@res3d@@YAXMM@Z 00506b00 f   misclibq:l_res3d.obj
 0001:00105c40       ?isinside@back@res3d@@UAEHXZ 00506c40 f i misclibq:l_res3d.obj
 0001:00105ca0       ?isinside@shape@res3d@@UAEHXZ 00506ca0 f i misclibq:l_res3d.obj
 0001:00105cb0       ?loglevel@shape@res3d@@ABEXH@Z 00506cb0 f   misclibq:l_res3d.obj
 0001:00105ce0       ?lower_bound@?$_Tree@V?$_Tmap_traits@V?$basic_string@DU?$char_traits@D@std@@V?$allocator@D@2@@std@@P6APAXAAVscript@@@ZU?$less@V?$basic_string@DU?$char_traits@D@std@@V?$allocator@D@2@@std@@@2@V?$allocator@U?$pair@$$CBV?$basic_string@DU?$char_traits@D@std@@V?$allocator@D@2@@std@@P6APAXAAVscript@@@Z@std@@@2@$0A@@std@@@std@@QAE?AV?$_Tree_iterator@V?$_Tree_val@U?$_Tree_simple_types@U?$pair@$$CBV?$basic_string@DU?$char_traits@D@std@@V?$allocator@D@2@@std@@P6APAXAAVscript@@@Z@std@@@std@@@std@@@2@ABV?$basic_string@DU?$char_traits@D@std@@V?$allocator@D@2@@2@@Z 00506ce0 f i misclibq:l_res3d.obj
 0001:00105d40       ?mx2pos@edit@res3d@@AAEXH@Z 00506d40 f   misclibq:l_res3d.obj
 0001:00105da0       ?newclass_from_handle@?$factory2@Vshape@res3d@@@@QAEPAVshape@res3d@@AAVscript@@@Z 00506da0 f i misclibq:l_res3d.obj
 0001:00106100       ?over_no_over_proc@shape@res3d@@QAEXPAV12@0@Z 00507100 f   misclibq:l_res3d.obj
 0001:00106150       ?pos2mx@edit@res3d@@ABEHXZ 00507150 f   misclibq:l_res3d.obj
 0001:00106170       ?printf@listbox@res3d@@QAAXPBDZZ 00507170 f   misclibq:l_res3d.obj
 0001:001061d0       ?procfocus@edit@res3d@@UAEHXZ 005071d0 f   misclibq:l_res3d.obj
 0001:00106650       ?procfocus@hscroll@res3d@@UAEHXZ 00507650 f   misclibq:l_res3d.obj
 0001:00106980       ?procfocus@listbox@res3d@@UAEHXZ 00507980 f   misclibq:l_res3d.obj
 0001:00106ba0       ?procfocus@listboxn@res3d@@UAEHXZ 00507ba0 f   misclibq:l_res3d.obj
 0001:00106de0       ?procfocus@pbut@res3d@@UAEHXZ 00507de0 f   misclibq:l_res3d.obj
 0001:00106ec0       ?procfocus@shape@res3d@@UAEHXZ 00507ec0 f   misclibq:l_res3d.obj
 0001:00106ed0       ?procfocus@vscroll@res3d@@UAEHXZ 00507ed0 f   misclibq:l_res3d.obj
 0001:001071e0       ?procnotover@edit@res3d@@UAEXXZ 005081e0 f   misclibq:l_res3d.obj
 0001:00107280       ?procnotover@listbox@res3d@@UAEXXZ 00508280 f   misclibq:l_res3d.obj
 0001:00107320       ?procnotover@listboxn@res3d@@UAEXXZ 00508320 f   misclibq:l_res3d.obj
 0001:001073c0       ?procnotover@pbut@res3d@@UAEXXZ 005083c0 f   misclibq:l_res3d.obj
 0001:00107460       ?procnotover@shape@res3d@@UAEXXZ 00508460 f   misclibq:l_res3d.obj
 0001:00107470       ?procover@edit@res3d@@UAEXXZ 00508470 f   misclibq:l_res3d.obj
 0001:00107510       ?procover@listbox@res3d@@UAEXXZ 00508510 f   misclibq:l_res3d.obj
 0001:001075b0       ?procover@listboxn@res3d@@UAEXXZ 005085b0 f   misclibq:l_res3d.obj
 0001:00107650       ?procover@pbut@res3d@@UAEXXZ 00508650 f   misclibq:l_res3d.obj
 0001:00107700       ?procover@shape@res3d@@UAEXXZ 00508700 f   misclibq:l_res3d.obj
 0001:00107710       ?rangeoffset@listbox@res3d@@AAEXXZ 00508710 f   misclibq:l_res3d.obj
 0001:00107730       ?rangeoffset@listboxn@res3d@@AAEXXZ 00508730 f   misclibq:l_res3d.obj
 0001:00107750       ?removeidx@listbox@res3d@@QAEXH@Z 00508750 f   misclibq:l_res3d.obj
 0001:00107800       ?removeidx@listbox@res3d@@QAEXXZ 00508800 f   misclibq:l_res3d.obj
 0001:001078b0       ?removeidx@listboxn@res3d@@QAEXH@Z 005088b0 f   misclibq:l_res3d.obj
 0001:00107950       ?removeidx@listboxn@res3d@@QAEXXZ 00508950 f   misclibq:l_res3d.obj
 0001:00107a00       ?res_loadfile@@YAPAVshape@res3d@@PBD@Z 00508a00 f   misclibq:l_res3d.obj
 0001:00107b20       ?setcol@listboxn@res3d@@QAEXHPBD@Z 00508b20 f   misclibq:l_res3d.obj
 0001:00107bb0       ?setidxc@listbox@res3d@@QAEXH@Z 00508bb0 f   misclibq:l_res3d.obj
 0001:00107c40       ?setidxc@listbox@res3d@@QAEXXZ 00508c40 f i misclibq:l_res3d.obj
 0001:00107cc0       ?setidxc@listboxn@res3d@@QAEXH@Z 00508cc0 f   misclibq:l_res3d.obj
 0001:00107d50       ?setidxc@listboxn@res3d@@QAEXXZ 00508d50 f i misclibq:l_res3d.obj
 0001:00107dd0       ?setidxi@vscroll@res3d@@IAEXH@Z 00508dd0 f   misclibq:l_res3d.obj
 0001:00107e40       ?setidxv@listbox@res3d@@QAEXH@Z 00508e40 f   misclibq:l_res3d.obj
 0001:00107ee0       ?setidxv@listboxn@res3d@@QAEXH@Z 00508ee0 f   misclibq:l_res3d.obj
 0001:00107f80       ?setscroll@listbox@res3d@@AAEXXZ 00508f80 f   misclibq:l_res3d.obj
 0001:001080b0       ?setscroll@listboxn@res3d@@AAEXXZ 005090b0 f   misclibq:l_res3d.obj
 0001:001081e0       ?settname@edit@res3d@@UAEXPBD@Z 005091e0 f   misclibq:l_res3d.obj
 0001:00108220       ?settname@text@res3d@@UAEXPBD@Z 00509220 f i misclibq:l_res3d.obj
 0001:00108250       ?show@back@res3d@@UBEXXZ   00509250 f   misclibq:l_res3d.obj
 0001:00108300       ?show@edit@res3d@@UBEXXZ   00509300 f   misclibq:l_res3d.obj
 0001:00108340       ?show@hscroll@res3d@@UBEXXZ 00509340 f   misclibq:l_res3d.obj
 0001:00108360       ?show@listbox@res3d@@UBEXXZ 00509360 f   misclibq:l_res3d.obj
 0001:00108380       ?show@listboxn@res3d@@UBEXXZ 00509380 f   misclibq:l_res3d.obj
 0001:001083a0       ?show@pbut@res3d@@UBEXXZ   005093a0 f   misclibq:l_res3d.obj
 0001:001083e0       ?show@shape@res3d@@UBEXXZ  005093e0 f   misclibq:l_res3d.obj
 0001:00108480       ?show@text@res3d@@UBEXXZ   00509480 f   misclibq:l_res3d.obj
 0001:001084b0       ?show@vscroll@res3d@@UBEXXZ 005094b0 f   misclibq:l_res3d.obj
 0001:001084d0       ?sort@listbox@res3d@@QAEHW4listsortkind@12@@Z 005094d0 f   misclibq:l_res3d.obj
 0001:001086c0       ?sort@listboxn@res3d@@QAEXXZ 005096c0 f   misclibq:l_res3d.obj
 0001:00108920       ??0?$basic_string@DU?$char_traits@D@std@@V?$allocator@D@2@@std@@QAE@XZ 00509920 f i misclibq:l_socker.obj
 0001:00108d30       ?freesocker@@YAIPAUsocker@@@Z 00509d30 f   misclibq:l_socker.obj
 0001:00108e00       ?getinfofromip@@YAII@Z     00509e00 f   misclibq:l_socker.obj
 0001:00108e90       ?getinfofromname@@YAIPBD@Z 00509e90 f   misclibq:l_socker.obj
 0001:00108fb0       ?getinfoip@@YAII@Z         00509fb0 f   misclibq:l_socker.obj
 0001:00108fd0       ?getinfoname@@YAPBDI@Z     00509fd0 f   misclibq:l_socker.obj
 0001:00109000       ?getmyip@@YAII@Z           0050a000 f   misclibq:l_socker.obj
 0001:00109020       ?getmyname@@YAPBDI@Z       0050a020 f   misclibq:l_socker.obj
 0001:00109050       ?getninfoip@@YAIXZ         0050a050 f   misclibq:l_socker.obj
 0001:00109060       ?getninfoname@@YAIXZ       0050a060 f   misclibq:l_socker.obj
 0001:00109070       ?getnmyip@@YAIXZ           0050a070 f   misclibq:l_socker.obj
 0001:00109080       ?getnmyname@@YAIXZ         0050a080 f   misclibq:l_socker.obj
 0001:00109390       ?initsocker@@YAIXZ         0050a390 f   misclibq:l_socker.obj
 0001:00109510       ?ip2str@@YAPBDI@Z          0050a510 f   misclibq:l_socker.obj
 0001:00109550       ?messesused@@YAIXZ         0050a550 f   misclibq:l_socker.obj
 0001:00109680       ?str2ip@@YAIPBD@Z          0050a680 f   misclibq:l_socker.obj
 0001:001096e0       ?tcpfillreadbuff@@YAXPAUsocker@@@Z 0050a6e0 f   misclibq:l_socker.obj
 0001:001097f0       ?tcpgetaccept@@YAPAUsocker@@PAU1@@Z 0050a7f0 f   misclibq:l_socker.obj
 0001:00109990       ?tcpgetbuffdata@@YAHPAUsocker@@PADHH@Z 0050a990 f   misclibq:l_socker.obj
 0001:001099f0       ?tcpgetconnect@@YAPAUsocker@@II@Z 0050a9f0 f   misclibq:l_socker.obj
 0001:00109bd0       ?tcpgetrbuffsize@@YAHPAUsocker@@@Z 0050abd0 f   misclibq:l_socker.obj
 0001:00109c00       ?tcpgetwbufffree@@YAHPAUsocker@@@Z 0050ac00 f   misclibq:l_socker.obj
 0001:00109c30       ?tcpgetwbuffsize@@YAHPAUsocker@@@Z 0050ac30 f   misclibq:l_socker.obj
 0001:00109c60       ?tcpgetwbuffused@@YAHPAUsocker@@@Z 0050ac60 f   misclibq:l_socker.obj
 0001:00109c80       ?tcpmakemaster@@YAPAUsocker@@II@Z 0050ac80 f   misclibq:l_socker.obj
 0001:00109e20       ?tcppeekbuffdata@@YAHPAUsocker@@PADHH@Z 0050ae20 f   misclibq:l_socker.obj
 0001:00109e70       ?tcpputbuffdata@@YAHPAUsocker@@PBDHH@Z 0050ae70 f   misclibq:l_socker.obj
 0001:00109ec0       ?tcpreadtoken32@@YAHPAUsocker@@PAHPADH@Z 0050aec0 f   misclibq:l_socker.obj
 0001:00109f70       ?tcpreadtoken8@@YAHPAUsocker@@PAHPADH@Z 0050af70 f   misclibq:l_socker.obj
 0001:0010a040       ?tcpsendwritebuff@@YAHPAUsocker@@@Z 0050b040 f   misclibq:l_socker.obj
 0001:0010a100       ?tcpwritetoken32@@YAHPAUsocker@@HPBDH@Z 0050b100 f   misclibq:l_socker.obj
 0001:0010a180       ?tcpwritetoken8@@YAHPAUsocker@@HPBDH@Z 0050b180 f   misclibq:l_socker.obj
 0001:0010a270       ?udpgetbuffdata@@YAHPAUsocker@@PADHPAI2@Z 0050b270 f   misclibq:l_socker.obj
 0001:0010a320       ?udpmake@@YAPAUsocker@@II@Z 0050b320 f   misclibq:l_socker.obj
 0001:0010a480       ?udpputbuffdata@@YAHPAUsocker@@PBDHII@Z 0050b480 f   misclibq:l_socker.obj
 0001:0010a510       ?uninitsocker@@YAIXZ       0050b510 f   misclibq:l_socker.obj
 0001:0010a5b0       ??0?$factory2@Vshape@res2d@@@@QAE@XZ 0050b5b0 f   misclibq:l_res.obj
 0001:0010a9b0       ??0back@res2d@@QAE@AAVscript@@@Z 0050b9b0 f   misclibq:l_res.obj
 0001:0010aa80       ??0back@res2d@@QAE@PBDHHHH@Z 0050ba80 f   misclibq:l_res.obj
 0001:0010aad0       ??0hscroll@res2d@@QAE@AAVscript@@@Z 0050bad0 f   misclibq:l_res.obj
 0001:0010ab20       ??0pbut@res2d@@QAE@AAVscript@@@Z 0050bb20 f   misclibq:l_res.obj
 0001:0010ab60       ??0pbut@res2d@@QAE@PBDHHHH0@Z 0050bb60 f   misclibq:l_res.obj
 0001:0010ac30       ??0shape@res2d@@QAE@AAVscript@@@Z 0050bc30 f   misclibq:l_res.obj
 0001:0010adb0       ??0shape@res2d@@QAE@PBDHH@Z 0050bdb0 f i misclibq:l_res.obj
 0001:0010ae30       ??0text@res2d@@QAE@AAVscript@@@Z 0050be30 f   misclibq:l_res.obj
 0001:0010af10       ??0text@res2d@@QAE@PBDHHHH0@Z 0050bf10 f   misclibq:l_res.obj
 0001:0010afd0       ??0vscroll@res2d@@QAE@AAVscript@@@Z 0050bfd0 f   misclibq:l_res.obj
 0001:0010b020       ??0vscroll@res2d@@QAE@PBDHHHH@Z 0050c020 f   misclibq:l_res.obj
 0001:0010b090       ??1?$vector@PAVshape@res2d@@V?$allocator@PAVshape@res2d@@@std@@@std@@QAE@XZ 0050c090 f i misclibq:l_res.obj
 0001:0010b0f0       ??1back@res2d@@UAE@XZ      0050c0f0 f i misclibq:l_res.obj
 0001:0010b100       ??1hscroll@res2d@@UAE@XZ   0050c100 f   misclibq:l_res.obj
 0001:0010b110       ??1listbox@res2d@@UAE@XZ   0050c110 f   misclibq:l_res.obj
 0001:0010b130       ??1shape@res2d@@UAE@XZ     0050c130 f   misclibq:l_res.obj
 0001:0010b250       ??1vscroll@res2d@@UAE@XZ   0050c250 f   misclibq:l_res.obj
 0001:0010b260       ??_Gback@res2d@@UAEPAXI@Z  0050c260 f i misclibq:l_res.obj
 0001:0010b260       ??_Eback@res2d@@UAEPAXI@Z  0050c260 f i misclibq:l_res.obj
 0001:0010b290       ??_Gedit@res2d@@UAEPAXI@Z  0050c290 f i misclibq:l_res.obj
 0001:0010b290       ??_Eedit@res2d@@UAEPAXI@Z  0050c290 f i misclibq:l_res.obj
 0001:0010b300       ??_Ehscroll@res2d@@UAEPAXI@Z 0050c300 f i misclibq:l_res.obj
 0001:0010b300       ??_Ghscroll@res2d@@UAEPAXI@Z 0050c300 f i misclibq:l_res.obj
 0001:0010b330       ??_Elistbox@res2d@@UAEPAXI@Z 0050c330 f i misclibq:l_res.obj
 0001:0010b330       ??_Glistbox@res2d@@UAEPAXI@Z 0050c330 f i misclibq:l_res.obj
 0001:0010b370       ??_Gpbut@res2d@@UAEPAXI@Z  0050c370 f i misclibq:l_res.obj
 0001:0010b370       ??_Epbut@res2d@@UAEPAXI@Z  0050c370 f i misclibq:l_res.obj
 0001:0010b3e0       ??_Etext@res2d@@UAEPAXI@Z  0050c3e0 f i misclibq:l_res.obj
 0001:0010b3e0       ??_Gtext@res2d@@UAEPAXI@Z  0050c3e0 f i misclibq:l_res.obj
 0001:0010b450       ??_Evscroll@res2d@@UAEPAXI@Z 0050c450 f i misclibq:l_res.obj
 0001:0010b450       ??_Gvscroll@res2d@@UAEPAXI@Z 0050c450 f i misclibq:l_res.obj
 0001:0010b480       ?addstring@listbox@res2d@@QAEXPBD@Z 0050c480 f   misclibq:l_res.obj
 0001:0010b670       ?addstringstay@listbox@res2d@@QAEXPBD@Z 0050c670 f   misclibq:l_res.obj
 0001:0010b820       ?checkpos@edit@res2d@@AAEXXZ 0050c820 f   misclibq:l_res.obj
 0001:0010b840       ?createh@back@res2d@@SAPAVshape@2@AAVscript@@@Z 0050c840 f i misclibq:l_res.obj
 0001:0010b8b0       ?createh@edit@res2d@@SAPAVshape@2@AAVscript@@@Z 0050c8b0 f i misclibq:l_res.obj
 0001:0010b940       ?createh@hscroll@res2d@@SAPAVshape@2@AAVscript@@@Z 0050c940 f i misclibq:l_res.obj
 0001:0010b9e0       ?createh@listbox@res2d@@SAPAVshape@2@AAVscript@@@Z 0050c9e0 f i misclibq:l_res.obj
 0001:0010ba90       ?createh@pbut@res2d@@SAPAVshape@2@AAVscript@@@Z 0050ca90 f i misclibq:l_res.obj
 0001:0010bb20       ?createh@shape@res2d@@SAPAV12@AAVscript@@@Z 0050cb20 f i misclibq:l_res.obj
 0001:0010bb90       ?createh@text@res2d@@SAPAVshape@2@AAVscript@@@Z 0050cb90 f i misclibq:l_res.obj
 0001:0010bc00       ?createh@vscroll@res2d@@SAPAVshape@2@AAVscript@@@Z 0050cc00 f i misclibq:l_res.obj
 0001:0010bca0       ?draw@back@res2d@@UBEXXZ   0050cca0 f   misclibq:l_res.obj
 0001:0010bd00       ?draw@edit@res2d@@UBEXXZ   0050cd00 f   misclibq:l_res.obj
 0001:0010be20       ?draw@hscroll@res2d@@UBEXXZ 0050ce20 f   misclibq:l_res.obj
 0001:0010c190       ?draw@listbox@res2d@@UBEXXZ 0050d190 f   misclibq:l_res.obj
 0001:0010c2e0       ?draw@pbut@res2d@@UBEXXZ   0050d2e0 f   misclibq:l_res.obj
 0001:0010c3a0       ?draw@shape@res2d@@UBEXXZ  0050d3a0 f   misclibq:l_res.obj
 0001:0010c3e0       ?draw@text@res2d@@UBEXXZ   0050d3e0 f   misclibq:l_res.obj
 0001:0010c480       ?draw@vscroll@res2d@@UBEXXZ 0050d480 f   misclibq:l_res.obj
 0001:0010c7f0       ?find@shape@res2d@@QAEPAV12@PBD@Z 0050d7f0 f   misclibq:l_res.obj
 0001:0010c820       ?findrec@shape@res2d@@QAEPAV12@PBD@Z 0050d820 f   misclibq:l_res.obj
 0001:0010c8a0       ?findstring@listbox@res2d@@QBEHPBD@Z 0050d8a0 f   misclibq:l_res.obj
 0001:0010c920       ?getfocus@shape@res2d@@QAEPAV12@XZ 0050d920 f   misclibq:l_res.obj
 0001:0010c970       ?getidxname@listbox@res2d@@QBEPBDH@Z 0050d970 f   misclibq:l_res.obj
 0001:0010c990       ?getidxname@listbox@res2d@@QBEPBDXZ 0050d990 f   misclibq:l_res.obj
 0001:0010c9b0       ?isinside@back@res2d@@UAEHXZ 0050d9b0 f i misclibq:l_res.obj
 0001:0010c9f0       ?loglevel@shape@res2d@@ABEXH@Z 0050d9f0 f   misclibq:l_res.obj
 0001:0010ca20       ?mx2pos@edit@res2d@@AAEXH@Z 0050da20 f   misclibq:l_res.obj
 0001:0010ca60       ?pos2mx@edit@res2d@@ABEHXZ 0050da60 f   misclibq:l_res.obj
 0001:0010ca80       ?printf@listbox@res2d@@QAAXPBDZZ 0050da80 f   misclibq:l_res.obj
 0001:0010cac0       ?proc@edit@res2d@@UAEHXZ   0050dac0 f   misclibq:l_res.obj
 0001:0010cf10       ?proc@hscroll@res2d@@UAEHXZ 0050df10 f   misclibq:l_res.obj
 0001:0010d1f0       ?proc@listbox@res2d@@UAEHXZ 0050e1f0 f   misclibq:l_res.obj
 0001:0010d400       ?proc@pbut@res2d@@UAEHXZ   0050e400 f   misclibq:l_res.obj
 0001:0010d430       ?proc@shape@res2d@@UAEHXZ  0050e430 f   misclibq:l_res.obj
 0001:0010d440       ?proc@vscroll@res2d@@UAEHXZ 0050e440 f   misclibq:l_res.obj
 0001:0010d730       ?rangeoffset@listbox@res2d@@AAEXXZ 0050e730 f   misclibq:l_res.obj
 0001:0010d750       ?removeidx@listbox@res2d@@QAEXH@Z 0050e750 f   misclibq:l_res.obj
 0001:0010d7f0       ?removeidx@listbox@res2d@@QAEXXZ 0050e7f0 f   misclibq:l_res.obj
 0001:0010d890       ?res_loadfile@res2d@@YAPAVshape@1@PBD@Z 0050e890 f   misclibq:l_res.obj
 0001:0010d9b0       ?setidx@vscroll@res2d@@QAEXH@Z 0050e9b0 f i misclibq:l_res.obj
 0001:0010da00       ?setidxc@listbox@res2d@@QAEXH@Z 0050ea00 f   misclibq:l_res.obj
 0001:0010da80       ?setidxi@vscroll@res2d@@IAEXH@Z 0050ea80 f   misclibq:l_res.obj
 0001:0010dad0       ?setidxv@listbox@res2d@@QAEXH@Z 0050ead0 f   misclibq:l_res.obj
 0001:0010db70       ?setscroll@listbox@res2d@@AAEXXZ 0050eb70 f   misclibq:l_res.obj
 0001:0010dd80       ?settname@edit@res2d@@UAEXPBD@Z 0050ed80 f   misclibq:l_res.obj
 0001:0010ddb0       ?settname@text@res2d@@UAEXPBD@Z 0050edb0 f i misclibq:l_res.obj
 0001:0010dde0       ?show@back@res2d@@UBEXXZ   0050ede0 f   misclibq:l_res.obj
 0001:0010de90       ?show@edit@res2d@@UBEXXZ   0050ee90 f   misclibq:l_res.obj
 0001:0010ded0       ?show@hscroll@res2d@@UBEXXZ 0050eed0 f   misclibq:l_res.obj
 0001:0010def0       ?show@listbox@res2d@@UBEXXZ 0050eef0 f   misclibq:l_res.obj
 0001:0010df10       ?show@pbut@res2d@@UBEXXZ   0050ef10 f   misclibq:l_res.obj
 0001:0010df50       ?show@shape@res2d@@UBEXXZ  0050ef50 f   misclibq:l_res.obj
 0001:0010dff0       ?show@text@res2d@@UBEXXZ   0050eff0 f   misclibq:l_res.obj
 0001:0010e020       ?show@vscroll@res2d@@UBEXXZ 0050f020 f   misclibq:l_res.obj
 0001:0010e040       ?sort@listbox@res2d@@QAEXW4listsortkind@12@@Z 0050f040 f   misclibq:l_res.obj
 0001:0010e2b0       ??0augmatz_ui@@QAE@HHHPAVshape@res2d@@@Z 0050f2b0 f   misclibq:augmatz_ui.obj
 0001:0010f040       ?dofocus@augmatz_ui@@QAEXHHI@Z 00510040 f   misclibq:augmatz_ui.obj
 0001:0010f1a0       ?isfocus@augmatz_ui@@QAE_NPAVshape@res2d@@AAH1@Z 005101a0 f   misclibq:augmatz_ui.obj
 0001:0010f210       ?update@augmatz_ui@@QAEXXZ 00510210 f   misclibq:augmatz_ui.obj
 0001:0010f660       ??0bad_alloc@std@@QAE@ABV01@@Z 00510660 f i libcpmt:xthrow.obj
 0001:0010f67b       ??0bad_alloc@std@@QAE@XZ   0051067b f i libcpmt:xthrow.obj
 0001:0010f693       ??0bad_function_call@std@@QAE@ABV01@@Z 00510693 f i libcpmt:xthrow.obj
 0001:0010f6ae       ??0bad_function_call@std@@QAE@XZ 005106ae f i libcpmt:xthrow.obj
 0001:0010f6bf       ??0exception@std@@QAE@QBD@Z 005106bf f i libcpmt:xthrow.obj
 0001:0010f6f4       ??0exception@std@@QAE@QBDH@Z 005106f4 f i libcpmt:xthrow.obj
 0001:0010f711       ??0exception@std@@QAE@XZ   00510711 f i libcpmt:xthrow.obj
 0001:0010f722       ??0invalid_argument@std@@QAE@ABV01@@Z 00510722 f i libcpmt:xthrow.obj
 0001:0010f73d       ??0invalid_argument@std@@QAE@PBD@Z 0051073d f i libcpmt:xthrow.obj
 0001:0010f75c       ??0length_error@std@@QAE@ABV01@@Z 0051075c f i libcpmt:xthrow.obj
 0001:0010f777       ??0length_error@std@@QAE@PBD@Z 00510777 f i libcpmt:xthrow.obj
 0001:0010f796       ??0logic_error@std@@QAE@ABV01@@Z 00510796 f i libcpmt:xthrow.obj
 0001:0010f7b1       ??0logic_error@std@@QAE@PBD@Z 005107b1 f i libcpmt:xthrow.obj
 0001:0010f7d0       ??0out_of_range@std@@QAE@ABV01@@Z 005107d0 f i libcpmt:xthrow.obj
 0001:0010f7eb       ??0out_of_range@std@@QAE@PBD@Z 005107eb f i libcpmt:xthrow.obj
 0001:0010f80a       ??0overflow_error@std@@QAE@ABV01@@Z 0051080a f i libcpmt:xthrow.obj
 0001:0010f825       ??0overflow_error@std@@QAE@PBD@Z 00510825 f i libcpmt:xthrow.obj
 0001:0010f844       ??0regex_error@std@@QAE@ABV01@@Z 00510844 f i libcpmt:xthrow.obj
 0001:0010f868       ??0regex_error@std@@QAE@W4error_type@regex_constants@1@@Z 00510868 f i libcpmt:xthrow.obj
 0001:0010f896       ??1bad_alloc@std@@UAE@XZ   00510896 f i libcpmt:xthrow.obj
 0001:0010f8a7       ??1bad_function_call@std@@UAE@XZ 005108a7 f i libcpmt:xthrow.obj
 0001:0010f8b8       ??1invalid_argument@std@@UAE@XZ 005108b8 f i libcpmt:xthrow.obj
 0001:0010f8c9       ??1length_error@std@@UAE@XZ 005108c9 f i libcpmt:xthrow.obj
 0001:0010f8da       ??1logic_error@std@@UAE@XZ 005108da f i libcpmt:xthrow.obj
 0001:0010f8eb       ??1out_of_range@std@@UAE@XZ 005108eb f i libcpmt:xthrow.obj
 0001:0010f8fc       ??1overflow_error@std@@UAE@XZ 005108fc f i libcpmt:xthrow.obj
 0001:0010f90d       ??1regex_error@std@@UAE@XZ 0051090d f i libcpmt:xthrow.obj
 0001:0010f91e       ??_Gbad_alloc@std@@UAEPAXI@Z 0051091e f i libcpmt:xthrow.obj
 0001:0010f91e       ??_Ebad_alloc@std@@UAEPAXI@Z 0051091e f i libcpmt:xthrow.obj
 0001:0010f94b       ??_Gbad_function_call@std@@UAEPAXI@Z 0051094b f i libcpmt:xthrow.obj
 0001:0010f94b       ??_Ebad_function_call@std@@UAEPAXI@Z 0051094b f i libcpmt:xthrow.obj
 0001:0010f978       ??_Einvalid_argument@std@@UAEPAXI@Z 00510978 f i libcpmt:xthrow.obj
 0001:0010f978       ??_Ginvalid_argument@std@@UAEPAXI@Z 00510978 f i libcpmt:xthrow.obj
 0001:0010f9a5       ??_Glength_error@std@@UAEPAXI@Z 005109a5 f i libcpmt:xthrow.obj
 0001:0010f9a5       ??_Elength_error@std@@UAEPAXI@Z 005109a5 f i libcpmt:xthrow.obj
 0001:0010f9d2       ??_Glogic_error@std@@UAEPAXI@Z 005109d2 f i libcpmt:xthrow.obj
 0001:0010f9d2       ??_Elogic_error@std@@UAEPAXI@Z 005109d2 f i libcpmt:xthrow.obj
 0001:0010f9ff       ??_Gout_of_range@std@@UAEPAXI@Z 005109ff f i libcpmt:xthrow.obj
 0001:0010f9ff       ??_Eout_of_range@std@@UAEPAXI@Z 005109ff f i libcpmt:xthrow.obj
 0001:0010fa2c       ??_Goverflow_error@std@@UAEPAXI@Z 00510a2c f i libcpmt:xthrow.obj
 0001:0010fa2c       ??_Eoverflow_error@std@@UAEPAXI@Z 00510a2c f i libcpmt:xthrow.obj
 0001:0010fa59       ??_Eregex_error@std@@UAEPAXI@Z 00510a59 f i libcpmt:xthrow.obj
 0001:0010fa59       ??_Gregex_error@std@@UAEPAXI@Z 00510a59 f i libcpmt:xthrow.obj
 0001:0010fa86       ?_Stringify@regex_error@std@@CAPBDW4error_type@regex_constants@2@@Z 00510a86 f i libcpmt:xthrow.obj
 0001:0010fb46       ?_Xbad_alloc@std@@YAXXZ    00510b46 f   libcpmt:xthrow.obj
 0001:0010fb63       ?_Xbad_function_call@std@@YAXXZ 00510b63 f   libcpmt:xthrow.obj
 0001:0010fb80       ?_Xinvalid_argument@std@@YAXPBD@Z 00510b80 f   libcpmt:xthrow.obj
 0001:0010fba0       ?_Xlength_error@std@@YAXPBD@Z 00510ba0 f   libcpmt:xthrow.obj
 0001:0010fbc0       ?_Xout_of_range@std@@YAXPBD@Z 00510bc0 f   libcpmt:xthrow.obj
 0001:0010fbe0       ?_Xoverflow_error@std@@YAXPBD@Z 00510be0 f   libcpmt:xthrow.obj
 0001:0010fc00       ?_Xregex_error@std@@YAXW4error_type@regex_constants@1@@Z 00510c00 f   libcpmt:xthrow.obj
 0001:0010fc20       ?_Xruntime_error@std@@YAXPBD@Z 00510c20 f   libcpmt:xthrow.obj
 0001:0010fc40       ?what@bad_function_call@std@@UBEPBDXZ 00510c40 f i libcpmt:xthrow.obj
 0001:0010fc46       ??0_Init_locks@std@@QAE@XZ 00510c46 f   libcpmt:xlock.obj
 0001:0010fc73       ??0_Lockit@std@@QAE@H@Z    00510c73 f   libcpmt:xlock.obj
 0001:0010fca4       ??0_Lockit@std@@QAE@XZ     00510ca4 f   libcpmt:xlock.obj
 0001:0010fcb3       ??1_Init_locks@std@@QAE@XZ 00510cb3 f   libcpmt:xlock.obj
 0001:0010fcda       ??1_Lockit@std@@QAE@XZ     00510cda f   libcpmt:xlock.obj
 0001:0010fcf9       ?_Init_locks_ctor@_Init_locks@std@@CAXPAV12@@Z 00510cf9 f   libcpmt:xlock.obj
 0001:0010fd20       ?_Init_locks_dtor@_Init_locks@std@@CAXPAV12@@Z 00510d20 f   libcpmt:xlock.obj
 0001:0010fd47       ?_Lockit_ctor@_Lockit@std@@CAXPAV12@@Z 00510d47 f   libcpmt:xlock.obj
 0001:0010fd53       ?_Lockit_ctor@_Lockit@std@@CAXPAV12@H@Z 00510d53 f   libcpmt:xlock.obj
 0001:0010fd7c       ?_Lockit_ctor@_Lockit@std@@SAXH@Z 00510d7c f   libcpmt:xlock.obj
 0001:0010fda0       ?_Lockit_dtor@_Lockit@std@@CAXPAV12@@Z 00510da0 f   libcpmt:xlock.obj
 0001:0010fdb7       ?_Lockit_dtor@_Lockit@std@@SAXH@Z 00510db7 f   libcpmt:xlock.obj
 0001:0010fddb       __Lock_at_thread_exit_mutex 00510ddb f   libcpmt:xlock.obj
 0001:0010fde7       __Unlock_at_thread_exit_mutex 00510de7 f   libcpmt:xlock.obj
 0001:0010fdf3       ?uncaught_exception@std@@YA_NXZ 00510df3 f   libcpmt:uncaught_exception.obj
 0001:0010fdf8       __Getctype                 00510df8 f   libcpmt:_tolower.obj
 0001:0010fe60       __Tolower                  00510e60 f   libcpmt:_tolower.obj
 0001:0010ff5e       __Getcvt                   00510f5e f   libcpmt:xwctomb.obj
 0001:0010ffd1       __Wcrtomb                  00510fd1 f   libcpmt:xwctomb.obj
 0001:0011002d       ___Wcrtomb_lk              0051102d f   libcpmt:xwctomb.obj
 0001:00110036       __Toupper                  00511036 f   libcpmt:_toupper.obj
 0001:00110134       ??0?$_Yarn@D@std@@QAE@PBD@Z 00511134 f i libcpmt:locale0.obj
 0001:00110150       ??0_Fac_node@std@@QAE@PAU01@PAV_Facet_base@1@@Z 00511150 f i libcpmt:locale0.obj
 0001:00110164       ??0_Facet_base@std@@QAE@XZ 00511164 f i libcpmt:locale0.obj
 0001:0011016d       ??0_Locimp@locale@std@@AAE@ABV012@@Z 0051116d f i libcpmt:locale0.obj
 0001:001101d7       ??0_Locimp@locale@std@@AAE@_N@Z 005111d7 f i libcpmt:locale0.obj
 0001:00110218       ??0facet@locale@std@@IAE@I@Z 00511218 f i libcpmt:locale0.obj
 0001:00110231       ??0id@locale@std@@QAE@I@Z  00511231 f i libcpmt:locale0.obj
 0001:0011023f       ??0locale@std@@AAE@PAV_Locimp@01@@Z 0051123f f i libcpmt:locale0.obj
 0001:0011024e       ??0locale@std@@QAE@W4_Uninitialized@1@@Z 0051124e f i libcpmt:locale0.obj
 0001:00110253       ??1_Fac_node@std@@QAE@XZ   00511253 f i libcpmt:locale0.obj
 0001:001102b2       ??1_Fac_tidy_reg_t@std@@QAE@XZ 005112b2 f i libcpmt:locale0.obj
 0001:001102d9       ??1_Locimp@locale@std@@MAE@XZ 005112d9 f i libcpmt:locale0.obj
 0001:00110332       ??2@YAPAXIPAX@Z            00511332 f i libcpmt:locale0.obj
 0001:0011033a       ??4?$_Yarn@D@std@@QAEAAV01@PBD@Z 0051133a f i libcpmt:locale0.obj
 0001:0011038e       ??_G_Fac_node@std@@QAEPAXI@Z 0051138e f i libcpmt:locale0.obj
 0001:001103b0       ??_G_Locimp@locale@std@@MAEPAXI@Z 005113b0 f i libcpmt:locale0.obj
 0001:001103b0       ??_E_Locimp@locale@std@@MAEPAXI@Z 005113b0 f i libcpmt:locale0.obj
 0001:001103d2       ?_C_str@?$_Yarn@D@std@@QBEPBDXZ 005113d2 f i libcpmt:locale0.obj
 0001:001103dc       ?_Empty@?$_Yarn@D@std@@QBE_NXZ 005113dc f i libcpmt:locale0.obj
 0001:001103e3       ?_Facet_Register@std@@YAXPAV_Facet_base@1@@Z 005113e3 f   libcpmt:locale0.obj
 0001:0011040f       ?_Getgloballocale@locale@std@@CAPAV_Locimp@12@XZ 0051140f f   libcpmt:locale0.obj
 0001:00110415       ?_Init@locale@std@@CAPAV_Locimp@12@_N@Z 00511415 f   libcpmt:locale0.obj
 0001:001104a5       ?_Locimp_dtor@_Locimp@locale@std@@CAXPAV123@@Z 005114a5 f   libcpmt:locale0.obj
 0001:0011051c       ?_Locinfo_ctor@_Locinfo@std@@SAXPAV12@PBD@Z 0051151c f   libcpmt:locale0.obj
 0001:00110567       ?_Locinfo_dtor@_Locinfo@std@@SAXPAV12@@Z 00511567 f   libcpmt:locale0.obj
 0001:00110581       ?_New_Locimp@_Locimp@locale@std@@CAPAV123@ABV123@@Z 00511581 f   libcpmt:locale0.obj
 0001:001105b1       ?_New_Locimp@_Locimp@locale@std@@CAPAV123@_N@Z 005115b1 f   libcpmt:locale0.obj
 0001:001105d4       ?_Setgloballocale@locale@std@@CAXPAX@Z 005115d4 f   libcpmt:locale0.obj
 0001:001105fc       ?_Tidy@?$_Yarn@D@std@@AAEXXZ 005115fc f i libcpmt:locale0.obj
 0001:00110611       ?c_str@?$_Yarn@D@std@@QBEPBDXZ 00511611 f i libcpmt:locale0.obj
 0001:0011061b       ?classic@locale@std@@SAABV12@XZ 0051161b f   libcpmt:locale0.obj
 0001:00110629       ?empty@locale@std@@SA?AV12@XZ 00511629 f   libcpmt:locale0.obj
 0001:00110646       __Deletegloballocale       00511646 f   libcpmt:locale0.obj
 0001:001106ab       ??$?0$$V@?$_Compressed_pair@V?$allocator@D@std@@V?$_String_val@U?$_Simple_types@D@std@@@2@$00@std@@QAE@U_Zero_then_variadic_args_t@1@@Z 005116ab f i libcpmt:xonce.obj
 0001:001106b8       ??$?0V?$allocator@D@std@@$$V@?$_Compressed_pair@V?$allocator@D@std@@V?$_String_val@U?$_Simple_types@D@std@@@2@$00@std@@QAE@U_One_then_variadic_args_t@1@$$QAV?$allocator@D@1@@Z 005116b8 f i libcpmt:xonce.obj
 0001:001106c5       ??$?0V?$allocator@D@std@@X@?$_String_alloc@U?$_String_base_types@DV?$allocator@D@std@@@std@@@std@@QAE@$$QAV?$allocator@D@1@@Z 005116c5 f i libcpmt:xonce.obj
 0001:001106d2       ??$_Allocate@$07U_Default_allocate_traits@std@@$0A@@std@@YAPAXI@Z 005116d2 f i libcpmt:xonce.obj
 0001:001106f8       ??$_Allocate_manually_vector_aligned@U_Default_allocate_traits@std@@@std@@YAPAXI@Z 005116f8 f i libcpmt:xonce.obj
 0001:00110725       ??$_Convert_size@I@std@@YAII@Z 00511725 f i libcpmt:xonce.obj
 0001:0011072d       ??$_Deallocate@$07$0A@@std@@YAXPAXI@Z 0051172d f i libcpmt:xonce.obj
 0001:00110759       ??$_Get_size_of_n@$00@std@@YAII@Z 00511759 f i libcpmt:xonce.obj
 0001:00110761       ??$_Immortalize@V_Generic_error_category@std@@@std@@YAAAV_Generic_error_category@0@XZ 00511761 f i libcpmt:xonce.obj
 0001:0011078a       ??$_Immortalize@V_System_error_category@std@@@std@@YAAAV_System_error_category@0@XZ 0051178a f i libcpmt:xonce.obj
 0001:001107b3       ??$_Immortalize_impl@V_Generic_error_category@std@@@std@@YGHPAX0PAPAX@Z 005117b3 f i libcpmt:xonce.obj
 0001:001107cd       ??$_Immortalize_impl@V_System_error_category@std@@@std@@YGHPAX0PAPAX@Z 005117cd f i libcpmt:xonce.obj
 0001:001107e7       ??$_Max_value@I@std@@YAABIABI0@Z 005117e7 f i libcpmt:xonce.obj
 0001:001107fc       ??$_Min_value@I@std@@YAABIABI0@Z 005117fc f i libcpmt:xonce.obj
 0001:00110a54       ??$_Unfancy@D@std@@YAPADPAD@Z 00511a54 f i libcpmt:xonce.obj
 0001:00110a5c       ??$addressof@PAD@std@@YAPAPADAAPAD@Z 00511a5c f i libcpmt:xonce.obj
 0001:00110a64       ??$addressof@V?$_String_val@U?$_Simple_types@D@std@@@std@@@std@@YAPAV?$_String_val@U?$_Simple_types@D@std@@@0@AAV10@@Z 00511a64 f i libcpmt:xonce.obj
 0001:00110a6c       ??$construct@PADABQAD@?$_Default_allocator_traits@V?$allocator@D@std@@@std@@SAXAAV?$allocator@D@1@QAPADABQAD@Z 00511a6c f i libcpmt:xonce.obj
 0001:00110a7b       ??$destroy@PAD@?$_Default_allocator_traits@V?$allocator@D@std@@@std@@SAXAAV?$allocator@D@1@QAPAD@Z 00511a7b f i libcpmt:xonce.obj
 0001:00110a7c       ??$forward@ABQAD@std@@YAABQADABQAD@Z 00511a7c f i libcpmt:xonce.obj
 0001:00110a84       ??$forward@V?$allocator@D@std@@@std@@YA$$QAV?$allocator@D@0@AAV10@@Z 00511a84 f i libcpmt:xonce.obj
 0001:00110a8c       ??$move@AAV?$allocator@D@std@@@std@@YA$$QAV?$allocator@D@0@AAV10@@Z 00511a8c f i libcpmt:xonce.obj
 0001:00110a94       ??$move@AAV?$basic_string@DU?$char_traits@D@std@@V?$allocator@D@2@@std@@@std@@YA$$QAV?$basic_string@DU?$char_traits@D@std@@V?$allocator@D@2@@0@AAV10@@Z 00511a94 f i libcpmt:xonce.obj
 0001:00110a9c       ??0?$_String_alloc@U?$_String_base_types@DV?$allocator@D@std@@@std@@@std@@QAE@XZ 00511a9c f i libcpmt:xonce.obj
 0001:00110aa7       ??0?$_String_val@U?$_Simple_types@D@std@@@std@@QAE@XZ 00511aa7 f i libcpmt:xonce.obj
 0001:00110ab2       ??0?$allocator@D@std@@QAE@XZ 00511ab2 f i libcpmt:xonce.obj
 0001:00110ab5       ??0?$basic_string@DU?$char_traits@D@std@@V?$allocator@D@2@@std@@QAE@$$QAV01@@Z 00511ab5 f i libcpmt:xonce.obj
 0001:00110ae6       ??0_Bxty@?$_String_val@U?$_Simple_types@D@std@@@std@@QAE@XZ 00511ae6 f i libcpmt:xonce.obj
 0001:00110ae9       ??0_Generic_error_category@std@@QAE@XZ 00511ae9 f i libcpmt:xonce.obj
 0001:00110af9       ??0_System_error_category@std@@QAE@XZ 00511af9 f i libcpmt:xonce.obj
 0001:00110b09       ??0error_category@std@@QAE@XZ 00511b09 f i libcpmt:xonce.obj
 0001:00110b0f       ??0error_code@std@@QAE@HABVerror_category@1@@Z 00511b0f f i libcpmt:xonce.obj
 0001:00110b23       ??0error_condition@std@@QAE@HABVerror_category@1@@Z 00511b23 f i libcpmt:xonce.obj
 0001:00110b37       ??0runtime_error@std@@QAE@ABV?$basic_string@DU?$char_traits@D@std@@V?$allocator@D@2@@1@@Z 00511b37 f i libcpmt:xonce.obj
 0001:00110b5f       ??0system_error@std@@QAE@Verror_code@1@@Z 00511b5f f i libcpmt:xonce.obj
 0001:00110bb9       ??1?$_Compressed_pair@V?$allocator@D@std@@V?$_String_val@U?$_Simple_types@D@std@@@2@$00@std@@QAE@XZ 00511bb9 f i libcpmt:xonce.obj
 0001:00110bba       ??1?$_String_val@U?$_Simple_types@D@std@@@std@@QAE@XZ 00511bba f i libcpmt:xonce.obj
 0001:00110bbb       ??1_Bxty@?$_String_val@U?$_Simple_types@D@std@@@std@@QAE@XZ 00511bbb f i libcpmt:xonce.obj
 0001:00110bbc       ??1_Generic_error_category@std@@UAE@XZ 00511bbc f i libcpmt:xonce.obj
 0001:00110bbd       ??1_System_error@std@@UAE@XZ 00511bbd f i libcpmt:xonce.obj
 0001:00110bce       ??1_System_error_category@std@@UAE@XZ 00511bce f i libcpmt:xonce.obj
 0001:00110bcf       ??1system_error@std@@UAE@XZ 00511bcf f i libcpmt:xonce.obj
 0001:00110be0       ??4?$basic_string@DU?$char_traits@D@std@@V?$allocator@D@2@@std@@QAEAAV01@QBD@Z 00511be0 f i libcpmt:xonce.obj
 0001:00110be9       ??8error_category@std@@QBE_NABV01@@Z 00511be9 f i libcpmt:xonce.obj
 0001:00110bfc       ??8std@@YA_NABVerror_condition@0@0@Z 00511bfc f i libcpmt:xonce.obj
 0001:00110c23       ??A?$basic_string@DU?$char_traits@D@std@@V?$allocator@D@2@@std@@QAEAADI@Z 00511c23 f i libcpmt:xonce.obj
 0001:00110ce1       ??_E_System_error_category@std@@UAEPAXI@Z 00511ce1 f i libcpmt:xonce.obj
 0001:00110ce1       ??_G_System_error_category@std@@UAEPAXI@Z 00511ce1 f i libcpmt:xonce.obj
 0001:00110cfe       ?_Adjust_manually_vector_aligned@std@@YAXAAPAXAAI@Z 00511cfe f i libcpmt:xonce.obj
 0001:00110d22       ?_Allocate@_Default_allocate_traits@std@@SAPAXI@Z 00511d22 f i libcpmt:xonce.obj
 0001:00110d2b       ?_Assign_rv_contents_with_alloc_always_equal@?$basic_string@DU?$char_traits@D@std@@V?$allocator@D@2@@std@@QAEX$$QAV12@U?$integral_constant@_N$00@2@@Z 00511d2b f i libcpmt:xonce.obj
 0001:00110d50       ?_Calculate_growth@?$basic_string@DU?$char_traits@D@std@@V?$allocator@D@2@@std@@QBEII@Z 00511d50 f i libcpmt:xonce.obj
 0001:00110d86       ?_Construct_lv_contents@?$basic_string@DU?$char_traits@D@std@@V?$allocator@D@2@@std@@QAEXABV12@@Z 00511d86 f i libcpmt:xonce.obj
 0001:00110dee       ?_Eos@?$basic_string@DU?$char_traits@D@std@@V?$allocator@D@2@@std@@QAEXI@Z 00511dee f i libcpmt:xonce.obj
 0001:00110e09       ?_Execute_once@std@@YAHAAUonce_flag@1@P6GHPAX1PAPAX@Z1@Z 00511e09 f   libcpmt:xonce.obj
 0001:00110e21       ?_Get_data@?$_String_alloc@U?$_String_base_types@DV?$allocator@D@std@@@std@@@std@@QAEAAV?$_String_val@U?$_Simple_types@D@std@@@2@XZ 00511e21 f i libcpmt:xonce.obj
 0001:00110e24       ?_Get_data@?$_String_alloc@U?$_String_base_types@DV?$allocator@D@std@@@std@@@std@@QBEABV?$_String_val@U?$_Simple_types@D@std@@@2@XZ 00511e24 f i libcpmt:xonce.obj
 0001:00110e27       ?_Get_first@?$_Compressed_pair@V?$allocator@D@std@@V?$_String_val@U?$_Simple_types@D@std@@@2@$00@std@@QAEAAV?$allocator@D@2@XZ 00511e27 f i libcpmt:xonce.obj
 0001:00110e2a       ?_Get_first@?$_Compressed_pair@V?$allocator@D@std@@V?$_String_val@U?$_Simple_types@D@std@@@2@$00@std@@QBEABV?$allocator@D@2@XZ 00511e2a f i libcpmt:xonce.obj
 0001:00110e2d       ?_Get_second@?$_Compressed_pair@V?$allocator@D@std@@V?$_String_val@U?$_Simple_types@D@std@@@2@$00@std@@QAEAAV?$_String_val@U?$_Simple_types@D@std@@@2@XZ 00511e2d f i libcpmt:xonce.obj
 0001:00110e30       ?_Get_second@?$_Compressed_pair@V?$allocator@D@std@@V?$_String_val@U?$_Simple_types@D@std@@@2@$00@std@@QBEABV?$_String_val@U?$_Simple_types@D@std@@@2@XZ 00511e30 f i libcpmt:xonce.obj
 0001:00110e33       ?_Getal@?$_String_alloc@U?$_String_base_types@DV?$allocator@D@std@@@std@@@std@@QAEAAV?$allocator@D@2@XZ 00511e33 f i libcpmt:xonce.obj
 0001:00110e36       ?_Getal@?$_String_alloc@U?$_String_base_types@DV?$allocator@D@std@@@std@@@std@@QBEABV?$allocator@D@2@XZ 00511e36 f i libcpmt:xonce.obj
 0001:00110e39       ?_Large_string_engaged@?$_String_val@U?$_Simple_types@D@std@@@std@@QBE_NXZ 00511e39 f i libcpmt:xonce.obj
 0001:00110e42       ?_Makestr@_System_error@std@@CA?AV?$basic_string@DU?$char_traits@D@std@@V?$allocator@D@2@@2@Verror_code@2@V32@@Z 00511e42 f i libcpmt:xonce.obj
 0001:00110eb3       ?_Myptr@?$_String_val@U?$_Simple_types@D@std@@@std@@QAEPADXZ 00511eb3 f i libcpmt:xonce.obj
 0001:00110ebe       ?_Myptr@?$_String_val@U?$_Simple_types@D@std@@@std@@QBEPBDXZ 00511ebe f i libcpmt:xonce.obj
 0001:00110ec9       ?_Orphan_all@?$_String_alloc@U?$_String_base_types@DV?$allocator@D@std@@@std@@@std@@QAEXXZ 00511ec9 f i libcpmt:xonce.obj
 0001:00110eca       ?_Orphan_all@_Container_base0@std@@QAEXXZ 00511eca f i libcpmt:xonce.obj
 0001:00110ecb       ?_Tidy_init@?$basic_string@DU?$char_traits@D@std@@V?$allocator@D@2@@std@@QAEXXZ 00511ecb f i libcpmt:xonce.obj
 0001:00110eda       ?_XGetLastError@std@@YAXXZ 00511eda f   libcpmt:xonce.obj
 0001:00110f12       ?append@?$basic_string@DU?$char_traits@D@std@@V?$allocator@D@2@@std@@QAEAAV12@ABV12@@Z 00511f12 f i libcpmt:xonce.obj
 0001:00110f2f       ?append@?$basic_string@DU?$char_traits@D@std@@V?$allocator@D@2@@std@@QAEAAV12@QBD@Z 00511f2f f i libcpmt:xonce.obj
 0001:00110f50       ?assign@?$basic_string@DU?$char_traits@D@std@@V?$allocator@D@2@@std@@QAEAAV12@ID@Z 00511f50 f i libcpmt:xonce.obj
 0001:00110f9c       ?assign@?$basic_string@DU?$char_traits@D@std@@V?$allocator@D@2@@std@@QAEAAV12@QBD@Z 00511f9c f i libcpmt:xonce.obj
 0001:00110fbd       ?assign@?$char_traits@D@std@@SAPADQADID@Z 00511fbd f i libcpmt:xonce.obj
 0001:00110fd5       ?assign@?$char_traits@D@std@@SAXAADABD@Z 00511fd5 f i libcpmt:xonce.obj
 0001:00110fe4       ?c_str@?$basic_string@DU?$char_traits@D@std@@V?$allocator@D@2@@std@@QBEPBDXZ 00511fe4 f i libcpmt:xonce.obj
 0001:00110fef       ?category@error_code@std@@QBEABVerror_category@2@XZ 00511fef f i libcpmt:xonce.obj
 0001:00110ff3       ?category@error_condition@std@@QBEABVerror_category@2@XZ 00511ff3 f i libcpmt:xonce.obj
 0001:00110ff7       ?copy@?$char_traits@D@std@@SAPADQADQBDI@Z 00511ff7 f i libcpmt:xonce.obj
 0001:00111000       ?default_error_condition@_System_error_category@std@@UBE?AVerror_condition@2@H@Z 00512000 f i libcpmt:xonce.obj
 0001:00111060       ?empty@?$basic_string@DU?$char_traits@D@std@@V?$allocator@D@2@@std@@QBE_NXZ 00512060 f i libcpmt:xonce.obj
 0001:00111068       ?generic_category@std@@YAABVerror_category@1@XZ 00512068 f i libcpmt:xonce.obj
 0001:0011106d       ?length@?$char_traits@D@std@@SAIQBD@Z 0051206d f i libcpmt:xonce.obj
 0001:00111081       ?max@?$numeric_limits@H@std@@SAHXZ 00512081 f i libcpmt:xonce.obj
 0001:00111087       ?max_size@?$_Default_allocator_traits@V?$allocator@D@std@@@std@@SAIABV?$allocator@D@2@@Z 00512087 f i libcpmt:xonce.obj
 0001:0011108b       ?max_size@?$basic_string@DU?$char_traits@D@std@@V?$allocator@D@2@@std@@QBEIXZ 0051208b f i libcpmt:xonce.obj
 0001:00111091       ?message@_System_error_category@std@@UBE?AV?$basic_string@DU?$char_traits@D@std@@V?$allocator@D@2@@2@H@Z 00512091 f i libcpmt:xonce.obj
 0001:0011110f       ?message@error_code@std@@QBE?AV?$basic_string@DU?$char_traits@D@std@@V?$allocator@D@2@@2@XZ 0051210f f i libcpmt:xonce.obj
 0001:00111136       ?move@?$char_traits@D@std@@SAPADQADQBDI@Z 00512136 f i libcpmt:xonce.obj
 0001:0011113f       ?name@_System_error_category@std@@UBEPBDXZ 0051213f f i libcpmt:xonce.obj
 0001:00111145       ?resize@?$basic_string@DU?$char_traits@D@std@@V?$allocator@D@2@@std@@QAEXID@Z 00512145 f i libcpmt:xonce.obj
 0001:00111171       ?select_on_container_copy_construction@?$_Default_allocator_traits@V?$allocator@D@std@@@std@@SA?AV?$allocator@D@2@ABV32@@Z 00512171 f i libcpmt:xonce.obj
 0001:00111179       ?shrink_to_fit@?$basic_string@DU?$char_traits@D@std@@V?$allocator@D@2@@std@@QAEXXZ 00512179 f i libcpmt:xonce.obj
 0001:001111d5       ?size@?$basic_string@DU?$char_traits@D@std@@V?$allocator@D@2@@std@@QBEIXZ 005121d5 f i libcpmt:xonce.obj
 0001:001111d9       ?system_category@std@@YAABVerror_category@1@XZ 005121d9 f i libcpmt:xonce.obj
 0001:001111de       ?value@error_code@std@@QBEHXZ 005121de f i libcpmt:xonce.obj
 0001:001111e1       ?value@error_condition@std@@QBEHXZ 005121e1 f i libcpmt:xonce.obj
 0001:001111e4       ??$?0$$V@?$_Compressed_pair@V?$allocator@_W@std@@V?$_String_val@U?$_Simple_types@_W@std@@@2@$00@std@@QAE@U_Zero_then_variadic_args_t@1@@Z 005121e4 f i libcpmt:syserror.obj
 0001:001111f1       ??$_Get_size_of_n@$01@std@@YAII@Z 005121f1 f i libcpmt:syserror.obj
 0001:0011127e       ??$_Unfancy@_W@std@@YAPA_WPA_W@Z 0051227e f i libcpmt:syserror.obj
 0001:00111286       ??$addressof@PA_W@std@@YAPAPA_WAAPA_W@Z 00512286 f i libcpmt:syserror.obj
 0001:0011128e       ??$construct@PA_WABQA_W@?$_Default_allocator_traits@V?$allocator@_W@std@@@std@@SAXAAV?$allocator@_W@1@QAPA_WABQA_W@Z 0051228e f i libcpmt:syserror.obj
 0001:0011129d       ??$destroy@PA_W@?$_Default_allocator_traits@V?$allocator@_W@std@@@std@@SAXAAV?$allocator@_W@1@QAPA_W@Z 0051229d f i libcpmt:syserror.obj
 0001:0011129e       ??$end@$$CBU_Sys_errtab_t@std@@$0EO@@std@@YAPBU_Sys_errtab_t@0@AAY0EO@$$CBU10@@Z 0051229e f i libcpmt:syserror.obj
 0001:001112ab       ??$end@$$CBU_Win_errtab_t@std@@$0EN@@std@@YAPBU_Win_errtab_t@0@AAY0EN@$$CBU10@@Z 005122ab f i libcpmt:syserror.obj
 0001:001112b8       ??$forward@ABQA_W@std@@YAABQA_WABQA_W@Z 005122b8 f i libcpmt:syserror.obj
 0001:001112c0       ??0?$_String_alloc@U?$_String_base_types@_WV?$allocator@_W@std@@@std@@@std@@QAE@XZ 005122c0 f i libcpmt:syserror.obj
 0001:001112cb       ??0?$_String_val@U?$_Simple_types@_W@std@@@std@@QAE@XZ 005122cb f i libcpmt:syserror.obj
 0001:001112d6       ??0?$allocator@_W@std@@QAE@XZ 005122d6 f i libcpmt:syserror.obj
 0001:001112d9       ??0?$basic_string@_WU?$char_traits@_W@std@@V?$allocator@_W@2@@std@@QAE@I_W@Z 005122d9 f i libcpmt:syserror.obj
 0001:00111301       ??0_Bxty@?$_String_val@U?$_Simple_types@_W@std@@@std@@QAE@XZ 00512301 f i libcpmt:syserror.obj
 0001:00111304       ??1?$_Compressed_pair@V?$allocator@_W@std@@V?$_String_val@U?$_Simple_types@_W@std@@@2@$00@std@@QAE@XZ 00512304 f i libcpmt:syserror.obj
 0001:00111305       ??1?$_String_alloc@U?$_String_base_types@_WV?$allocator@_W@std@@@std@@@std@@QAE@XZ 00512305 f i libcpmt:syserror.obj
 0001:00111306       ??1?$_String_val@U?$_Simple_types@_W@std@@@std@@QAE@XZ 00512306 f i libcpmt:syserror.obj
 0001:00111307       ??1?$basic_string@_WU?$char_traits@_W@std@@V?$allocator@_W@2@@std@@QAE@XZ 00512307 f i libcpmt:syserror.obj
 0001:0011130c       ??1_Bxty@?$_String_val@U?$_Simple_types@_W@std@@@std@@QAE@XZ 0051230c f i libcpmt:syserror.obj
 0001:0011130d       ??A?$basic_string@_WU?$char_traits@_W@std@@V?$allocator@_W@2@@std@@QAEAA_WI@Z 0051230d f i libcpmt:syserror.obj
 0001:00111346       ?_Calculate_growth@?$basic_string@_WU?$char_traits@_W@std@@V?$allocator@_W@2@@std@@QBEII@Z 00512346 f i libcpmt:syserror.obj
 0001:0011137c       ?_Get_data@?$_String_alloc@U?$_String_base_types@_WV?$allocator@_W@std@@@std@@@std@@QAEAAV?$_String_val@U?$_Simple_types@_W@std@@@2@XZ 0051237c f i libcpmt:syserror.obj
 0001:0011137f       ?_Get_data@?$_String_alloc@U?$_String_base_types@_WV?$allocator@_W@std@@@std@@@std@@QBEABV?$_String_val@U?$_Simple_types@_W@std@@@2@XZ 0051237f f i libcpmt:syserror.obj
 0001:00111382       ?_Get_first@?$_Compressed_pair@V?$allocator@_W@std@@V?$_String_val@U?$_Simple_types@_W@std@@@2@$00@std@@QAEAAV?$allocator@_W@2@XZ 00512382 f i libcpmt:syserror.obj
 0001:00111385       ?_Get_first@?$_Compressed_pair@V?$allocator@_W@std@@V?$_String_val@U?$_Simple_types@_W@std@@@2@$00@std@@QBEABV?$allocator@_W@2@XZ 00512385 f i libcpmt:syserror.obj
 0001:00111388       ?_Get_second@?$_Compressed_pair@V?$allocator@_W@std@@V?$_String_val@U?$_Simple_types@_W@std@@@2@$00@std@@QAEAAV?$_String_val@U?$_Simple_types@_W@std@@@2@XZ 00512388 f i libcpmt:syserror.obj
 0001:0011138b       ?_Get_second@?$_Compressed_pair@V?$allocator@_W@std@@V?$_String_val@U?$_Simple_types@_W@std@@@2@$00@std@@QBEABV?$_String_val@U?$_Simple_types@_W@std@@@2@XZ 0051238b f i libcpmt:syserror.obj
 0001:0011138e       ?_Getal@?$_String_alloc@U?$_String_base_types@_WV?$allocator@_W@std@@@std@@@std@@QAEAAV?$allocator@_W@2@XZ 0051238e f i libcpmt:syserror.obj
 0001:00111391       ?_Getal@?$_String_alloc@U?$_String_base_types@_WV?$allocator@_W@std@@@std@@@std@@QBEABV?$allocator@_W@2@XZ 00512391 f i libcpmt:syserror.obj
 0001:00111394       ?_Large_string_engaged@?$_String_val@U?$_Simple_types@_W@std@@@std@@QBE_NXZ 00512394 f i libcpmt:syserror.obj
 0001:0011139d       ?_Myptr@?$_String_val@U?$_Simple_types@_W@std@@@std@@QAEPA_WXZ 0051239d f i libcpmt:syserror.obj
 0001:001113a8       ?_Orphan_all@?$_String_alloc@U?$_String_base_types@_WV?$allocator@_W@std@@@std@@@std@@QAEXXZ 005123a8 f i libcpmt:syserror.obj
 0001:001113a9       ?_Syserror_map@std@@YAPBDH@Z 005123a9 f   libcpmt:syserror.obj
 0001:001113ce       ?_Tidy_deallocate@?$basic_string@_WU?$char_traits@_W@std@@V?$allocator@_W@2@@std@@QAEXXZ 005123ce f i libcpmt:syserror.obj
 0001:001113fc       ?_Tidy_init@?$basic_string@_WU?$char_traits@_W@std@@V?$allocator@_W@2@@std@@QAEXXZ 005123fc f i libcpmt:syserror.obj
 0001:0011140d       ?_Winerror_map@std@@YAHH@Z 0051240d f   libcpmt:syserror.obj
 0001:0011142f       ?_Winerror_message@std@@YAKKPADK@Z 0051242f f   libcpmt:syserror.obj
 0001:001114c2       ?_Xlen@?$basic_string@_WU?$char_traits@_W@std@@V?$allocator@_W@2@@std@@SAXXZ 005124c2 f i libcpmt:syserror.obj
 0001:001114cd       ?allocate@?$allocator@_W@std@@QAEPA_WI@Z 005124cd f i libcpmt:syserror.obj
 0001:001114eb       ?assign@?$_WChar_traits@_W@std@@SAPA_WQA_WI_W@Z 005124eb f i libcpmt:syserror.obj
 0001:00111501       ?assign@?$_WChar_traits@_W@std@@SAXAA_WAB_W@Z 00512501 f i libcpmt:syserror.obj
 0001:00111512       ?assign@?$basic_string@_WU?$char_traits@_W@std@@V?$allocator@_W@2@@std@@QAEAAV12@I_W@Z 00512512 f i libcpmt:syserror.obj
 0001:0011155e       ?deallocate@?$allocator@_W@std@@QAEXQA_WI@Z 0051255e f i libcpmt:syserror.obj
 0001:00111575       ?max_size@?$_Default_allocator_traits@V?$allocator@_W@std@@@std@@SAIABV?$allocator@_W@2@@Z 00512575 f i libcpmt:syserror.obj
 0001:0011157b       ?max_size@?$basic_string@_WU?$char_traits@_W@std@@V?$allocator@_W@2@@std@@QBEIXZ 0051257b f i libcpmt:syserror.obj
 0001:00111581       _wmemset                   00512581 f i libcpmt:syserror.obj
 0001:001115ab       ??_Glocale@std@@QAEPAXI@Z  005125ab f i libcpmt:ios.obj
 0001:001115cd       ?_Addstd@ios_base@std@@SAXPAV12@@Z 005125cd f   libcpmt:ios.obj
 0001:00111619       ?_Callfns@ios_base@std@@AAEXW4event@12@@Z 00512619 f i libcpmt:ios.obj
 0001:0011164c       ?_Ios_base_dtor@ios_base@std@@CAXPAV12@@Z 0051264c f   libcpmt:ios.obj
 0001:0011168c       ?_Tidy@ios_base@std@@AAEXXZ 0051268c f i libcpmt:ios.obj
 0001:001116d4       __FDtest                   005126d4 f   libcpmt:xfdtest.obj
 0001:00111720       __FPlsw                    00512720 f   libcpmt:xfdtest.obj
 0001:00111728       __FPmsw                    00512728 f   libcpmt:xfdtest.obj
 0001:00111733       ??$_Xfiopen@D@std@@YAPAU_iobuf@@PBDHH@Z 00512733 f i libcpmt:fiopen.obj
 0001:001117d3       ??$_Xfiopen@_W@std@@YAPAU_iobuf@@PB_WHH@Z 005127d3 f i libcpmt:fiopen.obj
 0001:00111873       ?_Fiopen@std@@YAPAU_iobuf@@PBDHH@Z 00512873 f   libcpmt:fiopen.obj
 0001:0011187c       ?_Fiopen@std@@YAPAU_iobuf@@PBGHH@Z 0051287c f   libcpmt:fiopen.obj
 0001:00111885       ?_Fiopen@std@@YAPAU_iobuf@@PB_WHH@Z 00512885 f   libcpmt:fiopen.obj
 0001:0011188e       ?_Xfsopen@std@@YAPAU_iobuf@@PBDHH@Z 0051288e f   libcpmt:fiopen.obj
 0001:001118ab       ?_Xfsopen@std@@YAPAU_iobuf@@PB_WHH@Z 005128ab f   libcpmt:fiopen.obj
 0001:001118c8       ??$?0AAPAV_Facet_base@std@@@?$_Compressed_pair@U?$default_delete@V_Facet_base@std@@@std@@PAV_Facet_base@2@$00@std@@QAE@U_Zero_then_variadic_args_t@1@AAPAV_Facet_base@1@@Z 005128c8 f i libcpmt:cout.obj
 0001:001118d8       ??$?0PAV_Facet_base@std@@@?$_Unique_ptr_base@V_Facet_base@std@@U?$default_delete@V_Facet_base@std@@@2@@std@@QAE@PAV_Facet_base@1@@Z 005128d8 f i libcpmt:cout.obj
 0001:001118e6       ??$?0U?$default_delete@V_Facet_base@std@@@std@@$0A@@?$unique_ptr@V_Facet_base@std@@U?$default_delete@V_Facet_base@std@@@2@@std@@QAE@PAV_Facet_base@1@@Z 005128e6 f i libcpmt:cout.obj
 0001:001118f4       ??$_Adl_verify_range@PBDPBD@std@@YAXABQBD0@Z 005128f4 f i libcpmt:cout.obj
 0001:001118f5       ??$_Fgetc@D@std@@YA_NAADPAU_iobuf@@@Z 005128f5 f i libcpmt:cout.obj
 0001:00111915       ??$_Immortalize@V_Iostream_error_category@std@@@std@@YAAAV_Iostream_error_category@0@XZ 00512915 f i libcpmt:cout.obj
 0001:00111afd       ??$_Refancy@PAD$0A@@std@@YAPADPAD@Z 00512afd f i libcpmt:cout.obj
 0001:00111b05       ??$_Ungetc@D@std@@YA_NABDPAU_iobuf@@@Z 00512b05 f i libcpmt:cout.obj
 0001:00111b21       ??$addressof@$$CBV?$codecvt@DDU_Mbstatet@@@std@@@std@@YAPBV?$codecvt@DDU_Mbstatet@@@0@ABV10@@Z 00512b21 f i libcpmt:cout.obj
 0001:00111b29       ??$forward@AAPAV_Facet_base@std@@@std@@YAAAPAV_Facet_base@0@AAPAV10@@Z 00512b29 f i libcpmt:cout.obj
 0001:00111b31       ??0?$_String_const_iterator@V?$_String_val@U?$_Simple_types@D@std@@@std@@@std@@QAE@PBDPBU_Container_base0@1@@Z 00512b31 f i libcpmt:cout.obj
 0001:00111b3f       ??0?$_String_iterator@V?$_String_val@U?$_Simple_types@D@std@@@std@@@std@@QAE@PADPBU_Container_base0@1@@Z 00512b3f f i libcpmt:cout.obj
 0001:00111b4d       ??0?$_Yarn@D@std@@QAE@XZ   00512b4d f i libcpmt:cout.obj
 0001:00111b57       ??0?$_Yarn@_W@std@@QAE@XZ  00512b57 f i libcpmt:cout.obj
 0001:00111b63       ??0?$basic_ios@DU?$char_traits@D@std@@@std@@IAE@XZ 00512b63 f i libcpmt:cout.obj
 0001:00111b74       ??0?$basic_ostream@DU?$char_traits@D@std@@@std@@QAE@PAV?$basic_streambuf@DU?$char_traits@D@std@@@1@_N@Z 00512b74 f i libcpmt:cout.obj
 0001:00111bdb       ??0?$basic_streambuf@DU?$char_traits@D@std@@@std@@IAE@XZ 00512bdb f i libcpmt:cout.obj
 0001:00111c22       ??0?$codecvt@DDU_Mbstatet@@@std@@QAE@ABV_Locinfo@1@I@Z 00512c22 f i libcpmt:cout.obj
 0001:00111c3b       ??0?$ctype@D@std@@QAE@ABV_Locinfo@1@I@Z 00512c3b f i libcpmt:cout.obj
 0001:00111c71       ??0?$fpos@U_Mbstatet@@@std@@QAE@U_Mbstatet@@_J@Z 00512c71 f i libcpmt:cout.obj
 0001:00111c99       ??0?$fpos@U_Mbstatet@@@std@@QAE@_J@Z 00512c99 f i libcpmt:cout.obj
 0001:00111cbb       ??0_Init_cout@std@@QAE@XZ  00512cbb f i libcpmt:cout.obj
 0001:00111d14       ??0_Iostream_error_category@std@@QAE@XZ 00512d14 f i libcpmt:cout.obj
 0001:00111d24       ??0bad_cast@std@@QAE@XZ    00512d24 f i libcpmt:cout.obj
 0001:00111d3c       ??0codecvt_base@std@@QAE@I@Z 00512d3c f i libcpmt:cout.obj
 0001:00111d55       ??0ctype_base@std@@QAE@I@Z 00512d55 f i libcpmt:cout.obj
 0001:00111d6e       ??0ios_base@std@@IAE@XZ    00512d6e f i libcpmt:cout.obj
 0001:00111d77       ??0locale@std@@QAE@ABV01@@Z 00512d77 f i libcpmt:cout.obj
 0001:00111dcc       ??0locale@std@@QAE@XZ      00512dcc f i libcpmt:cout.obj
 0001:00111e0c       ??0system_error@std@@QAE@Verror_code@1@PBD@Z 00512e0c f i libcpmt:cout.obj
 0001:00111e74       ??1_Iostream_error_category@std@@UAE@XZ 00512e74 f i libcpmt:cout.obj
 0001:00111e75       ??1codecvt_base@std@@UAE@XZ 00512e75 f i libcpmt:cout.obj
 0001:00111e7c       ??1ctype_base@std@@UAE@XZ  00512e7c f i libcpmt:cout.obj
 0001:00111e83       ??B?$fpos@U_Mbstatet@@@std@@QBE_JXZ 00512e83 f i libcpmt:cout.obj
 0001:00111e8f       ??Bid@locale@std@@QAEIXZ   00512e8f f i libcpmt:cout.obj
 0001:00111ec4       ??D?$_String_const_iterator@V?$_String_val@U?$_Simple_types@D@std@@@std@@@std@@QBEABDXZ 00512ec4 f i libcpmt:cout.obj
 0001:00111ec7       ??D?$_String_iterator@V?$_String_val@U?$_Simple_types@D@std@@@std@@@std@@QBEAADXZ 00512ec7 f i libcpmt:cout.obj
 0001:00111f46       ??R?$default_delete@V_Facet_base@std@@@std@@QBEXPAV_Facet_base@1@@Z 00512f46 f i libcpmt:cout.obj
 0001:00111f6a       ??_D?$basic_ostream@DU?$char_traits@D@std@@@std@@QAEXXZ 00512f6a f i libcpmt:cout.obj
 0001:00111fc8       ?_Adopt@_Iterator_base0@std@@QAEXPBX@Z 00512fc8 f i libcpmt:cout.obj
 0001:00111fcb       ?_Check_offset@?$_String_val@U?$_Simple_types@D@std@@@std@@QBEXI@Z 00512fcb f i libcpmt:cout.obj
 0001:00111fe0       ?_Clamp_suffix_size@?$_String_val@U?$_Simple_types@D@std@@@std@@QBEIII@Z 00512fe0 f i libcpmt:cout.obj
 0001:00111ff5       ?_Get_first@?$_Compressed_pair@U?$default_delete@V_Facet_base@std@@@std@@PAV_Facet_base@2@$00@std@@QAEAAU?$default_delete@V_Facet_base@std@@@2@XZ 00512ff5 f i libcpmt:cout.obj
 0001:00111ff8       ?_Get_second@?$_Compressed_pair@U?$default_delete@V_Facet_base@std@@@std@@PAV_Facet_base@2@$00@std@@QAEAAPAV_Facet_base@2@XZ 00512ff8 f i libcpmt:cout.obj
 0001:00111ffb       ?_Get_second@?$_Compressed_pair@U?$default_delete@V_Facet_base@std@@@std@@PAV_Facet_base@2@$00@std@@QBEABQAV_Facet_base@2@XZ 00512ffb f i libcpmt:cout.obj
 0001:00111ffe       ?_Getcat@?$codecvt@DDU_Mbstatet@@@std@@SAIPAPBVfacet@locale@2@PBV42@@Z 00512ffe f i libcpmt:cout.obj
 0001:00112066       ?_Getcat@?$ctype@D@std@@SAIPAPBVfacet@locale@2@PBV42@@Z 00513066 f i libcpmt:cout.obj
 0001:001120cc       ?_Getctype@_Locinfo@std@@QBE?AU_Ctypevec@@XZ 005130cc f i libcpmt:cout.obj
 0001:001120ef       ?_Getfacet@locale@std@@QBEPBVfacet@12@I@Z 005130ef f i libcpmt:cout.obj
 0001:0011212c       ?_Gndec@?$basic_streambuf@DU?$char_traits@D@std@@@std@@IAEPADXZ 0051312c f i libcpmt:cout.obj
 0001:0011213a       ?_Gninc@?$basic_streambuf@DU?$char_traits@D@std@@@std@@IAEPADXZ 0051313a f i libcpmt:cout.obj
 0001:0011214a       ?_Init@?$basic_streambuf@DU?$char_traits@D@std@@@std@@IAEXPAPAD0PAH001@Z 0051314a f i libcpmt:cout.obj
 0001:00112175       ?_Init@?$codecvt@DDU_Mbstatet@@@std@@IAEXABV_Locinfo@2@@Z 00513175 f i libcpmt:cout.obj
 0001:00112178       ?_Init@?$ctype@D@std@@IAEXABV_Locinfo@2@@Z 00513178 f i libcpmt:cout.obj
 0001:0011219b       ?_Init@ios_base@std@@IAEXXZ 0051319b f i libcpmt:cout.obj
 0001:00112201       ?_Initcvt@?$basic_filebuf@DU?$char_traits@D@std@@@std@@IAEXABV?$codecvt@DDU_Mbstatet@@@2@@Z 00513201 f i libcpmt:cout.obj
 0001:0011222c       ?_Myptr@?$_Unique_ptr_base@V_Facet_base@std@@U?$default_delete@V_Facet_base@std@@@2@@std@@QAEAAPAV_Facet_base@2@XZ 0051322c f i libcpmt:cout.obj
 0001:0011222f       ?_Myptr@?$_Unique_ptr_base@V_Facet_base@std@@U?$default_delete@V_Facet_base@std@@@2@@std@@QBEABQAV_Facet_base@2@XZ 0051322f f i libcpmt:cout.obj
 0001:00112232       ?_Pninc@?$basic_streambuf@DU?$char_traits@D@std@@@std@@IAEPADXZ 00513232 f i libcpmt:cout.obj
 0001:00112242       ?_Set_back@?$basic_filebuf@DU?$char_traits@D@std@@@std@@AAEXXZ 00513242 f i libcpmt:cout.obj
 0001:00112278       ?_Tidy@?$_Yarn@_W@std@@AAEXXZ 00513278 f i libcpmt:cout.obj
 0001:0011228d       ?_Tidy@?$ctype@D@std@@IAEXXZ 0051328d f i libcpmt:cout.obj
 0001:001122b7       ?always_noconv@codecvt_base@std@@QBE_NXZ 005132b7 f i libcpmt:cout.obj
 0001:001122cf       ?begin@?$basic_string@DU?$char_traits@D@std@@V?$allocator@D@2@@std@@QAE?AV?$_String_iterator@V?$_String_val@U?$_Simple_types@D@std@@@std@@@2@XZ 005132cf f i libcpmt:cout.obj
 0001:001122e3       ?c_str@locale@std@@QBEPBDXZ 005132e3 f i libcpmt:cout.obj
 0001:001122fb       ?clear@?$basic_ios@DU?$char_traits@D@std@@@std@@QAEXH_N@Z 005132fb f i libcpmt:cout.obj
 0001:00112317       ?clear@ios_base@std@@QAEXH@Z 00513317 f i libcpmt:cout.obj
 0001:00112328       ?data@?$basic_string@DU?$char_traits@D@std@@V?$allocator@D@2@@std@@QAEPADXZ 00513328 f i libcpmt:cout.obj
 0001:00112333       ?eback@?$basic_streambuf@DU?$char_traits@D@std@@@std@@IBEPADXZ 00513333 f i libcpmt:cout.obj
 0001:00112339       ?egptr@?$basic_streambuf@DU?$char_traits@D@std@@@std@@IBEPADXZ 00513339 f i libcpmt:cout.obj
 0001:00112344       ?eof@?$char_traits@D@std@@SAHXZ 00513344 f i libcpmt:cout.obj
 0001:00112348       ?epptr@?$basic_streambuf@DU?$char_traits@D@std@@@std@@IBEPADXZ 00513348 f i libcpmt:cout.obj
 0001:00112353       ?eq_int_type@?$char_traits@D@std@@SA_NABH0@Z 00513353 f i libcpmt:cout.obj
 0001:00112365       ?erase@?$basic_string@DU?$char_traits@D@std@@V?$allocator@D@2@@std@@QAEAAV12@II@Z 00513365 f i libcpmt:cout.obj
 0001:001123b0       ?front@?$basic_string@DU?$char_traits@D@std@@V?$allocator@D@2@@std@@QAEAADXZ 005133b0 f i libcpmt:cout.obj
 0001:001123bb       ?gbump@?$basic_streambuf@DU?$char_traits@D@std@@@std@@IAEXH@Z 005133bb f i libcpmt:cout.obj
 0001:001123cf       ?get@?$unique_ptr@V_Facet_base@std@@U?$default_delete@V_Facet_base@std@@@2@@std@@QBEPAV_Facet_base@2@XZ 005133cf f i libcpmt:cout.obj
 0001:001123d2       ?get_deleter@?$_Unique_ptr_base@V_Facet_base@std@@U?$default_delete@V_Facet_base@std@@@2@@std@@QAEAAU?$default_delete@V_Facet_base@std@@@2@XZ 005133d2 f i libcpmt:cout.obj
 0001:001123d5       ?getloc@ios_base@std@@QBE?AVlocale@2@XZ 005133d5 f i libcpmt:cout.obj
 0001:001123ea       ?gptr@?$basic_streambuf@DU?$char_traits@D@std@@@std@@IBEPADXZ 005133ea f i libcpmt:cout.obj
 0001:001123f0       ?in@?$codecvt@DDU_Mbstatet@@@std@@QBEHAAU_Mbstatet@@PBD1AAPBDPAD3AAPAD@Z 005133f0 f i libcpmt:cout.obj
 0001:00112423       ?iostream_category@std@@YAABVerror_category@1@XZ 00513423 f i libcpmt:cout.obj
 0001:00112428       ?not_eof@?$char_traits@D@std@@SAHABH@Z 00513428 f i libcpmt:cout.obj
 0001:0011243b       ?out@?$codecvt@DDU_Mbstatet@@@std@@QBEHAAU_Mbstatet@@PBD1AAPBDPAD3AAPAD@Z 0051343b f i libcpmt:cout.obj
 0001:0011246e       ?pbump@?$basic_streambuf@DU?$char_traits@D@std@@@std@@IAEXH@Z 0051346e f i libcpmt:cout.obj
 0001:00112482       ?pptr@?$basic_streambuf@DU?$char_traits@D@std@@@std@@IBEPADXZ 00513482 f i libcpmt:cout.obj
 0001:00112488       ?push_back@?$basic_string@DU?$char_traits@D@std@@V?$allocator@D@2@@std@@QAEXD@Z 00513488 f i libcpmt:cout.obj
 0001:001124c4       ?rdstate@ios_base@std@@QBEHXZ 005134c4 f i libcpmt:cout.obj
 0001:001124c8       ?release@?$unique_ptr@V_Facet_base@std@@U?$default_delete@V_Facet_base@std@@@2@@std@@QAEPAV_Facet_base@2@XZ 005134c8 f i libcpmt:cout.obj
 0001:001124ce       ?setg@?$basic_streambuf@DU?$char_traits@D@std@@@std@@IAEXPAD00@Z 005134ce f i libcpmt:cout.obj
 0001:001124f1       ?setp@?$basic_streambuf@DU?$char_traits@D@std@@@std@@IAEXPAD0@Z 005134f1 f i libcpmt:cout.obj
 0001:00112511       ?state@?$fpos@U_Mbstatet@@@std@@QBE?AU_Mbstatet@@XZ 00513511 f i libcpmt:cout.obj
 0001:00112526       ?tie@?$basic_ios@DU?$char_traits@D@std@@@std@@QAEPAV?$basic_ostream@DU?$char_traits@D@std@@@2@PAV32@@Z 00513526 f i libcpmt:cout.obj
 0001:00112536       ?to_char_type@?$char_traits@D@std@@SADABH@Z 00513536 f i libcpmt:cout.obj
 0001:00112540       ?to_int_type@?$char_traits@D@std@@SAHABD@Z 00513540 f i libcpmt:cout.obj
 0001:0011254b       ?unshift@?$codecvt@DDU_Mbstatet@@@std@@QBEHAAU_Mbstatet@@PAD1AAPAD@Z 0051354b f i libcpmt:cout.obj
 0001:00112575       ?widen@?$basic_ios@DU?$char_traits@D@std@@@std@@QBEDD@Z 00513575 f i libcpmt:cout.obj
 0001:001125c4       ?widen@?$ctype@D@std@@QBEDD@Z 005135c4 f i libcpmt:cout.obj
 0001:001125e5       ??0?$_Smanip@H@std@@QAE@P6AXAAVios_base@1@H@ZH@Z 005135e5 f i libcpmt:iomanip.obj
 0001:001125f9       ??0?$_Smanip@_J@std@@QAE@P6AXAAVios_base@1@_J@Z1@Z 005135f9 f i libcpmt:iomanip.obj
 0001:00112613       ?precision@ios_base@std@@QAE_J_J@Z 00513613 f i libcpmt:iomanip.obj
 0001:0011262e       ?resetiosflags@std@@YA?AU?$_Smanip@H@1@H@Z 0051362e f   libcpmt:iomanip.obj
 0001:00112690       ?setbase@std@@YA?AU?$_Smanip@H@1@H@Z 00513690 f   libcpmt:iomanip.obj
 0001:001126a4       ?setf@ios_base@std@@QAEHHH@Z 005136a4 f i libcpmt:iomanip.obj
 0001:001126c9       ?setiosflags@std@@YA?AU?$_Smanip@H@1@H@Z 005136c9 f   libcpmt:iomanip.obj
 0001:001126dd       ?setprecision@std@@YA?AU?$_Smanip@_J@1@_J@Z 005136dd f   libcpmt:iomanip.obj
 0001:001126f7       ?setw@std@@YA?AU?$_Smanip@_J@1@_J@Z 005136f7 f   libcpmt:iomanip.obj
 0001:00112753       ?width@ios_base@std@@QAE_J_J@Z 00513753 f i libcpmt:iomanip.obj
 0001:0011276e       __Mtxdst                   0051376e f   libcpmt:xmtx.obj
 0001:0011277c       __Mtxinit                  0051377c f   libcpmt:xmtx.obj
 0001:00112793       __Mtxlock                  00513793 f   libcpmt:xmtx.obj
 0001:001127a1       __Mtxunlock                005137a1 f   libcpmt:xmtx.obj
 0001:001127af       ??0?$__crt_scoped_stack_ptr@_W@@QAE@U?$__crt_scoped_stack_ptr_tag@_W@@@Z 005137af f i libcpmt:StlLCMapStringA.obj
 0001:001127bd       ??0?$__crt_scoped_stack_ptr_tag@_W@@QAE@QA_W@Z 005137bd f i libcpmt:StlLCMapStringA.obj
 0001:001127cb       ??1?$__crt_scoped_stack_ptr@_W@@QAE@XZ 005137cb f i libcpmt:StlLCMapStringA.obj
 0001:001127d4       ??B?$__crt_scoped_stack_ptr@_W@@QBE_NXZ 005137d4 f i libcpmt:StlLCMapStringA.obj
 0001:001127db       ?get@?$__crt_scoped_stack_ptr@_W@@QBEPA_WXZ 005137db f i libcpmt:StlLCMapStringA.obj
 0001:001127de       __MallocaComputeSize       005137de f i libcpmt:StlLCMapStringA.obj
 0001:001127ef       __MarkAllocaS              005137ef f i libcpmt:StlLCMapStringA.obj
 0001:00112803       ___crtLCMapStringA         00513803 f   libcpmt:StlLCMapStringA.obj
 0001:001129d8       __freea_crt                005139d8 f i libcpmt:StlLCMapStringA.obj
 0001:001129f6       ??$?0U?$integral_constant@_N$00@std@@@_Unused_parameter@std@@QAE@$$QAU?$integral_constant@_N$00@1@@Z 005139f6 f i libcpmt:locale.obj
 0001:001129fb       ??$?8DU?$char_traits@D@std@@@std@@YA_NABV?$istreambuf_iterator@DU?$char_traits@D@std@@@0@0@Z 005139fb f i libcpmt:locale.obj
 0001:00112a0b       ??$?9DU?$char_traits@D@std@@@std@@YA_NABV?$istreambuf_iterator@DU?$char_traits@D@std@@@0@0@Z 00513a0b f i libcpmt:locale.obj
 0001:00112a21       ??$_Adl_verify_range@V?$istreambuf_iterator@DU?$char_traits@D@std@@@std@@V12@@std@@YAXABV?$istreambuf_iterator@DU?$char_traits@D@std@@@0@0@Z 00513a21 f i libcpmt:locale.obj
 0001:00112a22       ??$_Find_elem@D$0BL@@std@@YAIAAY0BL@$$CBDD@Z 00513a22 f i libcpmt:locale.obj
 0001:00112a47       ??$_Find_elem@D$0BN@@std@@YAIAAY0BN@$$CBDD@Z 00513a47 f i libcpmt:locale.obj
 0001:00112a6c       ??$_Find_elem@D$0P@@std@@YAIAAY0P@$$CBDD@Z 00513a6c f i libcpmt:locale.obj
 0001:00112a91       ??$_Find_unchecked1@PBDD@std@@YAPBDPBDQBDABDU?$integral_constant@_N$00@0@@Z 00513a91 f i libcpmt:locale.obj
 0001:00112ab6       ??$_Find_unchecked@PBDD@std@@YAPBDQBD0ABD@Z 00513ab6 f i libcpmt:locale.obj
 0001:00112ad4       ??$_Getloctxt@DV?$istreambuf_iterator@DU?$char_traits@D@std@@@std@@@std@@YAHAAV?$istreambuf_iterator@DU?$char_traits@D@std@@@0@0IPBD@Z 00513ad4 f i libcpmt:locale.obj
 0001:00112c46       ??$_Getvals@D@?$numpunct@D@std@@IAEXDPBUlconv@@U_Cvtvec@@@Z 00513c46 f i libcpmt:locale.obj
 0001:00112c5f       ??$_Maklocchr@D@std@@YADDPADABU_Cvtvec@@@Z 00513c5f f i libcpmt:locale.obj
 0001:00112c67       ??$_Maklocstr@D@std@@YAPADPBDPADABU_Cvtvec@@@Z 00513c67 f i libcpmt:locale.obj
 0001:00112caf       ??$_Pocma@V?$allocator@D@std@@@std@@YAXAAV?$allocator@D@0@0@Z 00513caf f i libcpmt:locale.obj
 0001:00112cb0       ??$_Pocma@V?$allocator@D@std@@@std@@YAXAAV?$allocator@D@0@0U?$integral_constant@_N$00@0@@Z 00513cb0 f i libcpmt:locale.obj
 0001:00113026       ??$_Within_limits@D@std@@YA_NABDU?$integral_constant@_N$00@0@1U_Unused_parameter@0@@Z 00514026 f i libcpmt:locale.obj
 0001:00113029       ??$_Within_limits@PBDD@std@@YA_NPBDABD@Z 00514029 f i libcpmt:locale.obj
 0001:0011302c       ??$addressof@V?$basic_string@DU?$char_traits@D@std@@V?$allocator@D@2@@std@@@std@@YAPAV?$basic_string@DU?$char_traits@D@std@@V?$allocator@D@2@@0@AAV10@@Z 0051402c f i libcpmt:locale.obj
 0001:00113034       ??$use_facet@V?$num_get@DV?$istreambuf_iterator@DU?$char_traits@D@std@@@std@@@std@@@std@@YAABV?$num_get@DV?$istreambuf_iterator@DU?$char_traits@D@std@@@std@@@0@ABVlocale@0@@Z 00514034 f i libcpmt:locale.obj
 0001:001130da       ??0?$num_get@DV?$istreambuf_iterator@DU?$char_traits@D@std@@@std@@@std@@QAE@ABV_Locinfo@1@I@Z 005140da f i libcpmt:locale.obj
 0001:001130f3       ??0?$num_put@DV?$ostreambuf_iterator@DU?$char_traits@D@std@@@std@@@std@@QAE@ABV_Locinfo@1@I@Z 005140f3 f i libcpmt:locale.obj
 0001:0011310c       ??0?$numpunct@D@std@@QAE@ABV_Locinfo@1@I_N@Z 0051410c f i libcpmt:locale.obj
 0001:00113142       ??1?$num_get@DV?$istreambuf_iterator@DU?$char_traits@D@std@@@std@@@std@@MAE@XZ 00514142 f i libcpmt:locale.obj
 0001:00113149       ??4?$ostreambuf_iterator@DU?$char_traits@D@std@@@std@@QAEAAV01@D@Z 00514149 f i libcpmt:locale.obj
 0001:0011316d       ??A?$basic_string@DU?$char_traits@D@std@@V?$allocator@D@2@@std@@QBEABDI@Z 0051416d f i libcpmt:locale.obj
 0001:00113181       ??D?$istreambuf_iterator@DU?$char_traits@D@std@@@std@@QBEDXZ 00514181 f i libcpmt:locale.obj
 0001:00113194       ??D?$ostreambuf_iterator@DU?$char_traits@D@std@@@std@@QAEAAV01@XZ 00514194 f i libcpmt:locale.obj
 0001:00113197       ??E?$istreambuf_iterator@DU?$char_traits@D@std@@@std@@QAEAAV01@XZ 00514197 f i libcpmt:locale.obj
 0001:001131a3       ??E?$ostreambuf_iterator@DU?$char_traits@D@std@@@std@@QAEAAV01@XZ 005141a3 f i libcpmt:locale.obj
 0001:001132c2       ??_G?$num_get@DV?$istreambuf_iterator@DU?$char_traits@D@std@@@std@@@std@@MAEPAXI@Z 005142c2 f i libcpmt:locale.obj
 0001:001132c2       ??_E?$num_get@DV?$istreambuf_iterator@DU?$char_traits@D@std@@@std@@@std@@MAEPAXI@Z 005142c2 f i libcpmt:locale.obj
 0001:001132e5       ?_Addfac@_Locimp@locale@std@@AAEXPAVfacet@23@I@Z 005142e5 f i libcpmt:locale.obj
 0001:001132fb       ?_Assign_rv_contents@?$basic_string@DU?$char_traits@D@std@@V?$allocator@D@2@@std@@QAEX$$QAV12@U?$integral_constant@_N$00@2@@Z 005142fb f i libcpmt:locale.obj
 0001:00113320       ?_Getcat@?$num_get@DV?$istreambuf_iterator@DU?$char_traits@D@std@@@std@@@std@@SAIPAPBVfacet@locale@2@PBV42@@Z 00514320 f i libcpmt:locale.obj
 0001:00113388       ?_Getcat@?$num_put@DV?$ostreambuf_iterator@DU?$char_traits@D@std@@@std@@@std@@SAIPAPBVfacet@locale@2@PBV42@@Z 00514388 f i libcpmt:locale.obj
 0001:001133f0       ?_Getcat@?$numpunct@D@std@@SAIPAPBVfacet@locale@2@PBV42@@Z 005143f0 f i libcpmt:locale.obj
 0001:0011346b       ?_Getcvt@_Locinfo@std@@QBE?AU_Cvtvec@@XZ 0051446b f i libcpmt:locale.obj
 0001:0011348f       ?_Getfalse@_Locinfo@std@@QBEPBDXZ 0051448f f i libcpmt:locale.obj
 0001:00113495       ?_Getffld@?$num_get@DV?$istreambuf_iterator@DU?$char_traits@D@std@@@std@@@std@@ABAHPADAAV?$istreambuf_iterator@DU?$char_traits@D@std@@@2@1AAVios_base@2@PAH@Z 00514495 f i libcpmt:locale.obj
 0001:00113b77       ?_Getffldx@?$num_get@DV?$istreambuf_iterator@DU?$char_traits@D@std@@@std@@@std@@ABAHPADAAV?$istreambuf_iterator@DU?$char_traits@D@std@@@2@1AAVios_base@2@PAH@Z 00514b77 f i libcpmt:locale.obj
 0001:0011427a       ?_Getifld@?$num_get@DV?$istreambuf_iterator@DU?$char_traits@D@std@@@std@@@std@@ABAHPADAAV?$istreambuf_iterator@DU?$char_traits@D@std@@@2@1HABVlocale@2@@Z 0051527a f i libcpmt:locale.obj
 0001:0011460d       ?_Getlconv@_Locinfo@std@@QBEPBUlconv@@XZ 0051560d f i libcpmt:locale.obj
 0001:00114612       ?_Getname@_Locinfo@std@@QBEPBDXZ 00515612 f i libcpmt:locale.obj
 0001:0011461d       ?_Gettrue@_Locinfo@std@@QBEPBDXZ 0051561d f i libcpmt:locale.obj
 0001:00114623       ?_Inc@?$istreambuf_iterator@DU?$char_traits@D@std@@@std@@AAEXXZ 00515623 f i libcpmt:locale.obj
 0001:00114644       ?_Init@?$num_get@DV?$istreambuf_iterator@DU?$char_traits@D@std@@@std@@@std@@IAEXABV_Locinfo@2@@Z 00515644 f i libcpmt:locale.obj
 0001:00114647       ?_Init@?$num_put@DV?$ostreambuf_iterator@DU?$char_traits@D@std@@@std@@@std@@IAEXABV_Locinfo@2@@Z 00515647 f i libcpmt:locale.obj
 0001:0011464a       ?_Locimp_Addfac@_Locimp@locale@std@@CAXPAV123@PAVfacet@23@I@Z 0051564a f   libcpmt:locale.obj
 0001:00114710       ?_Locimp_ctor@_Locimp@locale@std@@CAXPAV123@ABV123@@Z 00515710 f   libcpmt:locale.obj
 0001:001147c7       ?_Locinfo_Addcats@_Locinfo@std@@SAAAV12@PAV12@HPBD@Z 005157c7 f   libcpmt:locale.obj
 0001:0011486c       ?_Locinfo_ctor@_Locinfo@std@@SAXPAV12@HPBD@Z 0051586c f   libcpmt:locale.obj
 0001:001148a2       ?_Makeloc@_Locimp@locale@std@@CAPAV123@ABV_Locinfo@3@HPAV123@PBV23@@Z 005158a2 f   libcpmt:locale.obj
 0001:00114abb       ?_Move_alloc@?$_String_alloc@U?$_String_base_types@DV?$allocator@D@std@@@std@@@std@@QAEXAAV?$allocator@D@2@@Z 00515abb f i libcpmt:locale.obj
 0001:00114abe       ?_Peek@?$istreambuf_iterator@DU?$char_traits@D@std@@@std@@ABEDXZ 00515abe f i libcpmt:locale.obj
 0001:00114ae2       ?_Stodx_v2@std@@YANPBDPAPADHPAH@Z 00515ae2 f i libcpmt:locale.obj
 0001:00114b33       ?_Stofx_v2@std@@YAMPBDPAPADHPAH@Z 00515b33 f i libcpmt:locale.obj
 0001:00114b8c       ?assign@?$basic_string@DU?$char_traits@D@std@@V?$allocator@D@2@@std@@QAEAAV12@$$QAV12@@Z 00515b8c f i libcpmt:locale.obj
 0001:00114ba1       ?decimal_point@?$numpunct@D@std@@QBEDXZ 00515ba1 f i libcpmt:locale.obj
 0001:00114bb9       ?do_get@?$num_get@DV?$istreambuf_iterator@DU?$char_traits@D@std@@@std@@@std@@MBE?AV?$istreambuf_iterator@DU?$char_traits@D@std@@@2@V32@0AAVios_base@2@AAHAAG@Z 00515bb9 f i libcpmt:locale.obj
 0001:00114ca7       ?do_get@?$num_get@DV?$istreambuf_iterator@DU?$char_traits@D@std@@@std@@@std@@MBE?AV?$istreambuf_iterator@DU?$char_traits@D@std@@@2@V32@0AAVios_base@2@AAHAAI@Z 00515ca7 f i libcpmt:locale.obj
 0001:00114cea       ?do_get@?$num_get@DV?$istreambuf_iterator@DU?$char_traits@D@std@@@std@@@std@@MBE?AV?$istreambuf_iterator@DU?$char_traits@D@std@@@2@V32@0AAVios_base@2@AAHAAJ@Z 00515cea f i libcpmt:locale.obj
 0001:00114dae       ?do_get@?$num_get@DV?$istreambuf_iterator@DU?$char_traits@D@std@@@std@@@std@@MBE?AV?$istreambuf_iterator@DU?$char_traits@D@std@@@2@V32@0AAVios_base@2@AAHAAK@Z 00515dae f i libcpmt:locale.obj
 0001:00114e72       ?do_get@?$num_get@DV?$istreambuf_iterator@DU?$char_traits@D@std@@@std@@@std@@MBE?AV?$istreambuf_iterator@DU?$char_traits@D@std@@@2@V32@0AAVios_base@2@AAHAAM@Z 00515e72 f i libcpmt:locale.obj
 0001:00114f6d       ?do_get@?$num_get@DV?$istreambuf_iterator@DU?$char_traits@D@std@@@std@@@std@@MBE?AV?$istreambuf_iterator@DU?$char_traits@D@std@@@2@V32@0AAVios_base@2@AAHAAN@Z 00515f6d f i libcpmt:locale.obj
 0001:0011505e       ?do_get@?$num_get@DV?$istreambuf_iterator@DU?$char_traits@D@std@@@std@@@std@@MBE?AV?$istreambuf_iterator@DU?$char_traits@D@std@@@2@V32@0AAVios_base@2@AAHAAO@Z 0051605e f i libcpmt:locale.obj
 0001:0011509f       ?do_get@?$num_get@DV?$istreambuf_iterator@DU?$char_traits@D@std@@@std@@@std@@MBE?AV?$istreambuf_iterator@DU?$char_traits@D@std@@@2@V32@0AAVios_base@2@AAHAAPAX@Z 0051609f f i libcpmt:locale.obj
 0001:00115164       ?do_get@?$num_get@DV?$istreambuf_iterator@DU?$char_traits@D@std@@@std@@@std@@MBE?AV?$istreambuf_iterator@DU?$char_traits@D@std@@@2@V32@0AAVios_base@2@AAHAA_J@Z 00516164 f i libcpmt:locale.obj
 0001:0011522f       ?do_get@?$num_get@DV?$istreambuf_iterator@DU?$char_traits@D@std@@@std@@@std@@MBE?AV?$istreambuf_iterator@DU?$char_traits@D@std@@@2@V32@0AAVios_base@2@AAHAA_K@Z 0051622f f i libcpmt:locale.obj
 0001:001152fa       ?do_get@?$num_get@DV?$istreambuf_iterator@DU?$char_traits@D@std@@@std@@@std@@MBE?AV?$istreambuf_iterator@DU?$char_traits@D@std@@@2@V32@0AAVios_base@2@AAHAA_N@Z 005162fa f i libcpmt:locale.obj
 0001:001154fa       ?equal@?$istreambuf_iterator@DU?$char_traits@D@std@@@std@@QBE_NABV12@@Z 005164fa f i libcpmt:locale.obj
 0001:00115534       ?falsename@?$numpunct@D@std@@QBE?AV?$basic_string@DU?$char_traits@D@std@@V?$allocator@D@2@@2@XZ 00516534 f i libcpmt:locale.obj
 0001:00115558       ?flags@ios_base@std@@QBEHXZ 00516558 f i libcpmt:locale.obj
 0001:0011555c       ?global@locale@std@@SA?AV12@ABV12@@Z 0051655c f   libcpmt:locale.obj
 0001:00115647       ?grouping@?$numpunct@D@std@@QBE?AV?$basic_string@DU?$char_traits@D@std@@V?$allocator@D@2@@2@XZ 00516647 f i libcpmt:locale.obj
 0001:0011566b       ?insert@?$basic_string@DU?$char_traits@D@std@@V?$allocator@D@2@@std@@QAEAAV12@IID@Z 0051666b f i libcpmt:locale.obj
 0001:001156df       ?precision@ios_base@std@@QBE_JXZ 005166df f i libcpmt:locale.obj
 0001:001156e6       ?sbumpc@?$basic_streambuf@DU?$char_traits@D@std@@@std@@QAEHXZ 005166e6 f i libcpmt:locale.obj
 0001:00115724       ?sgetc@?$basic_streambuf@DU?$char_traits@D@std@@@std@@QAEHXZ 00516724 f i libcpmt:locale.obj
 0001:00115757       ?sputc@?$basic_streambuf@DU?$char_traits@D@std@@@std@@QAEHD@Z 00516757 f i libcpmt:locale.obj
 0001:001157a8       ?thousands_sep@?$numpunct@D@std@@QBEDXZ 005167a8 f i libcpmt:locale.obj
 0001:001157c0       ?truename@?$numpunct@D@std@@QBE?AV?$basic_string@DU?$char_traits@D@std@@V?$allocator@D@2@@2@XZ 005167c0 f i libcpmt:locale.obj
 0001:001157e4       ?widen@?$ctype@D@std@@QBEPBDPBD0PAD@Z 005167e4 f i libcpmt:locale.obj
 0001:0011580b       ?width@ios_base@std@@QBE_JXZ 0051680b f i libcpmt:locale.obj
 0001:00115812       __vsprintf_s_l             00516812 f i libcpmt:locale.obj
 0001:0011583f       _fabsl                     0051683f f i libcpmt:locale.obj
 0001:00115849       _frexpl                    00516849 f i libcpmt:locale.obj
 0001:00115861       _ldexpf                    00516861 f i libcpmt:locale.obj
 0001:00115880       _powf                      00516880 f i libcpmt:locale.obj
 0001:00115897       ??1_Init_atexit@@QAE@XZ    00516897 f i libcpmt:iosptrs.obj
 0001:001158fa       ?_Atexit@@YAXP6AXXZ@Z      005168fa f   libcpmt:iosptrs.obj
 0001:00115cd2       ___crtAcquireSRWLockExclusive 00516cd2 f   libcpmt:winapisupp.obj
 0001:00115cf2       ___crtCloseThreadpoolTimer 00516cf2 f   libcpmt:winapisupp.obj
 0001:00115d14       ___crtCloseThreadpoolWait  00516d14 f   libcpmt:winapisupp.obj
 0001:00115d36       ___crtCloseThreadpoolWork  00516d36 f   libcpmt:winapisupp.obj
 0001:00115d56       ___crtCreateEventExW       00516d56 f   libcpmt:winapisupp.obj
 0001:00115d9c       ___crtCreateSemaphoreExW   00516d9c f   libcpmt:winapisupp.obj
 0001:00115df4       ___crtCreateSymbolicLinkW  00516df4 f   libcpmt:winapisupp.obj
 0001:00115e28       ___crtCreateThreadpoolTimer 00516e28 f   libcpmt:winapisupp.obj
 0001:00115e54       ___crtCreateThreadpoolWait 00516e54 f   libcpmt:winapisupp.obj
 0001:00115e80       ___crtCreateThreadpoolWork 00516e80 f   libcpmt:winapisupp.obj
 0001:00115ea6       ___crtFlsAlloc             00516ea6 f   libcpmt:winapisupp.obj
 0001:00115ed0       ___crtFlsFree              00516ed0 f   libcpmt:winapisupp.obj
 0001:00115efa       ___crtFlsGetValue          00516efa f   libcpmt:winapisupp.obj
 0001:00115f24       ___crtFlsSetValue          00516f24 f   libcpmt:winapisupp.obj
 0001:00115f51       ___crtFlushProcessWriteBuffers 00516f51 f   libcpmt:winapisupp.obj
 0001:00115f6c       ___crtFreeLibraryWhenCallbackReturns 00516f6c f   libcpmt:winapisupp.obj
 0001:00115f91       ___crtGetCurrentProcessorNumber 00516f91 f   libcpmt:winapisupp.obj
 0001:00115fb0       ___crtGetFileInformationByHandleEx 00516fb0 f   libcpmt:winapisupp.obj
 0001:00115fe7       ___crtGetSystemTimePreciseAsFileTime 00516fe7 f   libcpmt:winapisupp.obj
 0001:00116011       ___crtGetTickCount64       00517011 f   libcpmt:winapisupp.obj
 0001:00116036       ___crtInitOnceExecuteOnce  00517036 f   libcpmt:winapisupp.obj
 0001:001160c4       ___crtInitializeConditionVariable 005170c4 f   libcpmt:winapisupp.obj
 0001:001160e4       ___crtInitializeCriticalSectionEx 005170e4 f   libcpmt:winapisupp.obj
 0001:0011611d       ___crtInitializeSRWLock    0051711d f   libcpmt:winapisupp.obj
 0001:0011613d       ___crtIsPackagedApp        0051713d f   libcpmt:winapisupp.obj
 0001:0011615c       ___crtReleaseSRWLockExclusive 0051715c f   libcpmt:winapisupp.obj
 0001:0011617c       ___crtSetFileInformationByHandle 0051717c f   libcpmt:winapisupp.obj
 0001:001161b3       ___crtSetThreadpoolTimer   005171b3 f   libcpmt:winapisupp.obj
 0001:001161de       ___crtSetThreadpoolWait    005171de f   libcpmt:winapisupp.obj
 0001:00116206       ___crtSleepConditionVariableCS 00517206 f   libcpmt:winapisupp.obj
 0001:0011622c       ___crtSleepConditionVariableSRW 0051722c f   libcpmt:winapisupp.obj
 0001:00116255       ___crtSubmitThreadpoolWork 00517255 f   libcpmt:winapisupp.obj
 0001:00116275       ___crtTryAcquireSRWLockExclusive 00517275 f   libcpmt:winapisupp.obj
 0001:00116295       ___crtWaitForThreadpoolTimerCallbacks 00517295 f   libcpmt:winapisupp.obj
 0001:001162ba       ___crtWakeAllConditionVariable 005172ba f   libcpmt:winapisupp.obj
 0001:001162da       ___crtWakeConditionVariable 005172da f   libcpmt:winapisupp.obj
 0001:001162fa       ___crt_IsPackagedAppHelper 005172fa f   libcpmt:winapisupp.obj
 0001:00116330       _GetTableIndexFromLcid     00517330 f   libcpmt:winapinls.obj
 0001:00116365       _GetTableIndexFromLocaleName 00517365 f   libcpmt:winapinls.obj
 0001:001163b3       ___crtCompareStringEx      005173b3 f   libcpmt:winapinls.obj
 0001:0011640a       ___crtDownlevelLCIDToLocaleName 0051740a f   libcpmt:winapinls.obj
 0001:00116475       ___crtDownlevelLocaleNameToLCID 00517475 f   libcpmt:winapinls.obj
 0001:0011649f       ___crtGetLocaleInfoEx      0051749f f   libcpmt:winapinls.obj
 0001:001164d9       ___crtLCMapStringEx        005174d9 f   libcpmt:winapinls.obj
 0001:00116530       ___wcsnicmp_ascii          00517530 f   libcpmt:winapinls.obj
 0001:00116598       ??$?0$$V@?$_Compressed_pair@V?$allocator@G@std@@V?$_String_val@U?$_Simple_types@G@std@@@2@$00@std@@QAE@U_Zero_then_variadic_args_t@1@@Z 00517598 f i libcpmt:wlocale.obj
 0001:001165a5       ??$?0V?$allocator@G@std@@$$V@?$_Compressed_pair@V?$allocator@G@std@@V?$_String_val@U?$_Simple_types@G@std@@@2@$00@std@@QAE@U_One_then_variadic_args_t@1@$$QAV?$allocator@G@1@@Z 005175a5 f i libcpmt:wlocale.obj
 0001:001165b2       ??$?0V?$allocator@G@std@@X@?$_String_alloc@U?$_String_base_types@GV?$allocator@G@std@@@std@@@std@@QAE@$$QAV?$allocator@G@1@@Z 005175b2 f i libcpmt:wlocale.obj
 0001:001165bf       ??$?0V?$allocator@_W@std@@$$V@?$_Compressed_pair@V?$allocator@_W@std@@V?$_String_val@U?$_Simple_types@_W@std@@@2@$00@std@@QAE@U_One_then_variadic_args_t@1@$$QAV?$allocator@_W@1@@Z 005175bf f i libcpmt:wlocale.obj
 0001:001165cc       ??$?0V?$allocator@_W@std@@X@?$_String_alloc@U?$_String_base_types@_WV?$allocator@_W@std@@@std@@@std@@QAE@$$QAV?$allocator@_W@1@@Z 005175cc f i libcpmt:wlocale.obj
 0001:001165d9       ??$?8GU?$char_traits@G@std@@@std@@YA_NABV?$istreambuf_iterator@GU?$char_traits@G@std@@@0@0@Z 005175d9 f i libcpmt:wlocale.obj
 0001:001165e9       ??$?8_WU?$char_traits@_W@std@@@std@@YA_NABV?$istreambuf_iterator@_WU?$char_traits@_W@std@@@0@0@Z 005175e9 f i libcpmt:wlocale.obj
 0001:001165f9       ??$?9GU?$char_traits@G@std@@@std@@YA_NABV?$istreambuf_iterator@GU?$char_traits@G@std@@@0@0@Z 005175f9 f i libcpmt:wlocale.obj
 0001:0011660f       ??$?9_WU?$char_traits@_W@std@@@std@@YA_NABV?$istreambuf_iterator@_WU?$char_traits@_W@std@@@0@0@Z 0051760f f i libcpmt:wlocale.obj
 0001:00116625       ??$_Adl_verify_range@PADPAD@std@@YAXABQAD0@Z 00517625 f i libcpmt:wlocale.obj
 0001:00116626       ??$_Adl_verify_range@PAGPAG@std@@YAXABQAG0@Z 00517626 f i libcpmt:wlocale.obj
 0001:00116627       ??$_Adl_verify_range@PA_WPA_W@std@@YAXABQA_W0@Z 00517627 f i libcpmt:wlocale.obj
 0001:00116628       ??$_Adl_verify_range@PBGPBG@std@@YAXABQBG0@Z 00517628 f i libcpmt:wlocale.obj
 0001:00116629       ??$_Adl_verify_range@PB_WPB_W@std@@YAXABQB_W0@Z 00517629 f i libcpmt:wlocale.obj
 0001:0011662a       ??$_Adl_verify_range@V?$istreambuf_iterator@GU?$char_traits@G@std@@@std@@V12@@std@@YAXABV?$istreambuf_iterator@GU?$char_traits@G@std@@@0@0@Z 0051762a f i libcpmt:wlocale.obj
 0001:0011662b       ??$_Adl_verify_range@V?$istreambuf_iterator@_WU?$char_traits@_W@std@@@std@@V12@@std@@YAXABV?$istreambuf_iterator@_WU?$char_traits@_W@std@@@0@0@Z 0051762b f i libcpmt:wlocale.obj
 0001:0011662c       ??$_Copy_unchecked1@PA_WV?$ostreambuf_iterator@GU?$char_traits@G@std@@@std@@@std@@YA?AV?$ostreambuf_iterator@GU?$char_traits@G@std@@@0@PA_W0V10@U_General_ptr_iterator_tag@0@@Z 0051762c f i libcpmt:wlocale.obj
 0001:00116671       ??$_Copy_unchecked1@PA_WV?$ostreambuf_iterator@_WU?$char_traits@_W@std@@@std@@@std@@YA?AV?$ostreambuf_iterator@_WU?$char_traits@_W@std@@@0@PA_W0V10@U_General_ptr_iterator_tag@0@@Z 00517671 f i libcpmt:wlocale.obj
 0001:001166b6       ??$_Copy_unchecked@PA_WV?$ostreambuf_iterator@GU?$char_traits@G@std@@@std@@@std@@YA?AV?$ostreambuf_iterator@GU?$char_traits@G@std@@@0@PA_W0V10@@Z 005176b6 f i libcpmt:wlocale.obj
 0001:001166dd       ??$_Copy_unchecked@PA_WV?$ostreambuf_iterator@_WU?$char_traits@_W@std@@@std@@@std@@YA?AV?$ostreambuf_iterator@_WU?$char_traits@_W@std@@@0@PA_W0V10@@Z 005176dd f i libcpmt:wlocale.obj
 0001:00116704       ??$_Find_elem@G$0BL@@std@@YAIAAY0BL@$$CBGG@Z 00517704 f i libcpmt:wlocale.obj
 0001:0011672b       ??$_Find_elem@G$0BN@@std@@YAIAAY0BN@$$CBGG@Z 0051772b f i libcpmt:wlocale.obj
 0001:00116752       ??$_Find_elem@G$0M@@std@@YAIAAY0M@$$CBGG@Z 00517752 f i libcpmt:wlocale.obj
 0001:00116779       ??$_Find_elem@G$0P@@std@@YAIAAY0P@$$CBGG@Z 00517779 f i libcpmt:wlocale.obj
 0001:001167a0       ??$_Find_elem@_W$0BL@@std@@YAIAAY0BL@$$CB_W_W@Z 005177a0 f i libcpmt:wlocale.obj
 0001:001167c7       ??$_Find_elem@_W$0BN@@std@@YAIAAY0BN@$$CB_W_W@Z 005177c7 f i libcpmt:wlocale.obj
 0001:001167ee       ??$_Find_elem@_W$0M@@std@@YAIAAY0M@$$CB_W_W@Z 005177ee f i libcpmt:wlocale.obj
 0001:00116815       ??$_Find_elem@_W$0P@@std@@YAIAAY0P@$$CB_W_W@Z 00517815 f i libcpmt:wlocale.obj
 0001:0011683c       ??$_Find_unchecked1@PBGG@std@@YAPBGPBGQBGABGU?$integral_constant@_N$0A@@0@@Z 0051783c f i libcpmt:wlocale.obj
 0001:0011685e       ??$_Find_unchecked1@PB_W_W@std@@YAPB_WPB_WQB_WAB_WU?$integral_constant@_N$0A@@0@@Z 0051785e f i libcpmt:wlocale.obj
 0001:00116880       ??$_Find_unchecked@PBGG@std@@YAPBGQBG0ABG@Z 00517880 f i libcpmt:wlocale.obj
 0001:0011689e       ??$_Find_unchecked@PB_W_W@std@@YAPB_WQB_W0AB_W@Z 0051789e f i libcpmt:wlocale.obj
 0001:001168bc       ??$_Get_unwrapped@_W@std@@YAPA_WQA_W@Z 005178bc f i libcpmt:wlocale.obj
 0001:001168c4       ??$_Get_unwrapped_n@V?$ostreambuf_iterator@GU?$char_traits@G@std@@@std@@H$0A@@std@@YAABV?$ostreambuf_iterator@GU?$char_traits@G@std@@@0@ABV10@H@Z 005178c4 f i libcpmt:wlocale.obj
 0001:001168cc       ??$_Get_unwrapped_n@V?$ostreambuf_iterator@_WU?$char_traits@_W@std@@@std@@H$0A@@std@@YAABV?$ostreambuf_iterator@_WU?$char_traits@_W@std@@@0@ABV10@H@Z 005178cc f i libcpmt:wlocale.obj
 0001:001168d4       ??$_Getloctxt@DV?$istreambuf_iterator@GU?$char_traits@G@std@@@std@@@std@@YAHAAV?$istreambuf_iterator@GU?$char_traits@G@std@@@0@0IPBD@Z 005178d4 f i libcpmt:wlocale.obj
 0001:00116a51       ??$_Getloctxt@DV?$istreambuf_iterator@_WU?$char_traits@_W@std@@@std@@@std@@YAHAAV?$istreambuf_iterator@_WU?$char_traits@_W@std@@@0@0IPBD@Z 00517a51 f i libcpmt:wlocale.obj
 0001:00116bce       ??$_Getloctxt@GV?$istreambuf_iterator@GU?$char_traits@G@std@@@std@@@std@@YAHAAV?$istreambuf_iterator@GU?$char_traits@G@std@@@0@0IPBG@Z 00517bce f i libcpmt:wlocale.obj
 0001:00116d51       ??$_Getloctxt@_WV?$istreambuf_iterator@_WU?$char_traits@_W@std@@@std@@@std@@YAHAAV?$istreambuf_iterator@_WU?$char_traits@_W@std@@@0@0IPB_W@Z 00517d51 f i libcpmt:wlocale.obj
 0001:00116ed4       ??$_Getvals@G@?$_Mpunct@G@std@@IAEXGPBUlconv@@@Z 00517ed4 f i libcpmt:wlocale.obj
 0001:00116f66       ??$_Getvals@G@?$numpunct@G@std@@IAEXGPBUlconv@@U_Cvtvec@@@Z 00517f66 f i libcpmt:wlocale.obj
 0001:00116fc8       ??$_Getvals@G@?$time_get@GV?$istreambuf_iterator@GU?$char_traits@G@std@@@std@@@std@@IAEXGABV_Locinfo@1@@Z 00517fc8 f i libcpmt:wlocale.obj
 0001:00117033       ??$_Getvals@_W@?$time_get@_WV?$istreambuf_iterator@_WU?$char_traits@_W@std@@@std@@@std@@IAEX_WABV_Locinfo@1@@Z 00518033 f i libcpmt:wlocale.obj
 0001:0011708c       ??$_Hash_array_representation@G@std@@YAIQBGI@Z 0051808c f i libcpmt:wlocale.obj
 0001:001170a7       ??$_Hash_array_representation@_W@std@@YAIQB_WI@Z 005180a7 f i libcpmt:wlocale.obj
 0001:001170c2       ??$_Idl_distance@PA_WPA_W@std@@YAHABQA_W0@Z 005180c2 f i libcpmt:wlocale.obj
 0001:001170d3       ??$_LStrcoll@G@std@@YAHPBG000PBU_Collvec@@@Z 005180d3 f i libcpmt:wlocale.obj
 0001:0011711d       ??$_LStrcoll@_W@std@@YAHPB_W000PBU_Collvec@@@Z 0051811d f i libcpmt:wlocale.obj
 0001:00117126       ??$_LStrxfrm@G@std@@YAIPAG0PBG1PBU_Collvec@@@Z 00518126 f i libcpmt:wlocale.obj
 0001:00117155       ??$_LStrxfrm@_W@std@@YAIPA_W0PB_W1PBU_Collvec@@@Z 00518155 f i libcpmt:wlocale.obj
 0001:0011715e       ??$_Maklocchr@G@std@@YAGDPAGABU_Cvtvec@@@Z 0051815e f i libcpmt:wlocale.obj
 0001:0011718f       ??$_Maklocchr@_W@std@@YA_WDPA_WABU_Cvtvec@@@Z 0051818f f i libcpmt:wlocale.obj
 0001:001171c0       ??$_Maklocstr@G@std@@YAPAGPBDPAGABU_Cvtvec@@@Z 005181c0 f i libcpmt:wlocale.obj
 0001:00117268       ??$_Maklocstr@_W@std@@YAPA_WPBDPA_WABU_Cvtvec@@@Z 00518268 f i libcpmt:wlocale.obj
 0001:00117310       ??$_Pocma@V?$allocator@G@std@@@std@@YAXAAV?$allocator@G@0@0@Z 00518310 f i libcpmt:wlocale.obj
 0001:00117311       ??$_Pocma@V?$allocator@G@std@@@std@@YAXAAV?$allocator@G@0@0U?$integral_constant@_N$00@0@@Z 00518311 f i libcpmt:wlocale.obj
 0001:00117312       ??$_Pocma@V?$allocator@_W@std@@@std@@YAXAAV?$allocator@_W@0@0@Z 00518312 f i libcpmt:wlocale.obj
 0001:00117313       ??$_Pocma@V?$allocator@_W@std@@@std@@YAXAAV?$allocator@_W@0@0U?$integral_constant@_N$00@0@@Z 00518313 f i libcpmt:wlocale.obj
 0001:00117314       ??$_Ptr_copy_cat@PA_WV?$ostreambuf_iterator@GU?$char_traits@G@std@@@std@@@std@@YA?AU_General_ptr_iterator_tag@0@ABQA_WABV?$ostreambuf_iterator@GU?$char_traits@G@std@@@0@@Z 00518314 f i libcpmt:wlocale.obj
 0001:00117317       ??$_Ptr_copy_cat@PA_WV?$ostreambuf_iterator@_WU?$char_traits@_W@std@@@std@@@std@@YA?AU_General_ptr_iterator_tag@0@ABQA_WABV?$ostreambuf_iterator@_WU?$char_traits@_W@std@@@0@@Z 00518317 f i libcpmt:wlocale.obj
 0001:00117ca0       ??$_Refancy@PAG$0A@@std@@YAPAGPAG@Z 00518ca0 f i libcpmt:wlocale.obj
 0001:00117ca8       ??$_Refancy@PA_W$0A@@std@@YAPA_WPA_W@Z 00518ca8 f i libcpmt:wlocale.obj
 0001:00117cb0       ??$_Seek_wrapped@V?$ostreambuf_iterator@GU?$char_traits@G@std@@@std@@V12@@std@@YAXAAV?$ostreambuf_iterator@GU?$char_traits@G@std@@@0@ABV10@@Z 00518cb0 f i libcpmt:wlocale.obj
 0001:00117cc5       ??$_Seek_wrapped@V?$ostreambuf_iterator@_WU?$char_traits@_W@std@@@std@@V12@@std@@YAXAAV?$ostreambuf_iterator@_WU?$char_traits@_W@std@@@0@ABV10@@Z 00518cc5 f i libcpmt:wlocale.obj
 0001:00117cda       ??$_Unfancy@G@std@@YAPAGPAG@Z 00518cda f i libcpmt:wlocale.obj
 0001:00117ce2       ??$addressof@$$CBV?$moneypunct@G$00@std@@@std@@YAPBV?$moneypunct@G$00@0@ABV10@@Z 00518ce2 f i libcpmt:wlocale.obj
 0001:00117cea       ??$addressof@$$CBV?$moneypunct@G$0A@@std@@@std@@YAPBV?$moneypunct@G$0A@@0@ABV10@@Z 00518cea f i libcpmt:wlocale.obj
 0001:00117cf2       ??$addressof@$$CBV?$moneypunct@_W$00@std@@@std@@YAPBV?$moneypunct@_W$00@0@ABV10@@Z 00518cf2 f i libcpmt:wlocale.obj
 0001:00117cfa       ??$addressof@$$CBV?$moneypunct@_W$0A@@std@@@std@@YAPBV?$moneypunct@_W$0A@@0@ABV10@@Z 00518cfa f i libcpmt:wlocale.obj
 0001:00117d02       ??$addressof@PAG@std@@YAPAPAGAAPAG@Z 00518d02 f i libcpmt:wlocale.obj
 0001:00117d0a       ??$addressof@V?$_String_val@U?$_Simple_types@G@std@@@std@@@std@@YAPAV?$_String_val@U?$_Simple_types@G@std@@@0@AAV10@@Z 00518d0a f i libcpmt:wlocale.obj
 0001:00117d12       ??$addressof@V?$_String_val@U?$_Simple_types@_W@std@@@std@@@std@@YAPAV?$_String_val@U?$_Simple_types@_W@std@@@0@AAV10@@Z 00518d12 f i libcpmt:wlocale.obj
 0001:00117d1a       ??$addressof@V?$basic_string@GU?$char_traits@G@std@@V?$allocator@G@2@@std@@@std@@YAPAV?$basic_string@GU?$char_traits@G@std@@V?$allocator@G@2@@0@AAV10@@Z 00518d1a f i libcpmt:wlocale.obj
 0001:00117d22       ??$addressof@V?$basic_string@_WU?$char_traits@_W@std@@V?$allocator@_W@2@@std@@@std@@YAPAV?$basic_string@_WU?$char_traits@_W@std@@V?$allocator@_W@2@@0@AAV10@@Z 00518d22 f i libcpmt:wlocale.obj
 0001:00117d2a       ??$construct@PAGABQAG@?$_Default_allocator_traits@V?$allocator@G@std@@@std@@SAXAAV?$allocator@G@1@QAPAGABQAG@Z 00518d2a f i libcpmt:wlocale.obj
 0001:00117d39       ??$copy@PA_WV?$ostreambuf_iterator@GU?$char_traits@G@std@@@std@@@std@@YA?AV?$ostreambuf_iterator@GU?$char_traits@G@std@@@0@PA_W0V10@@Z 00518d39 f i libcpmt:wlocale.obj
 0001:00117d67       ??$copy@PA_WV?$ostreambuf_iterator@_WU?$char_traits@_W@std@@@std@@@std@@YA?AV?$ostreambuf_iterator@_WU?$char_traits@_W@std@@@0@PA_W0V10@@Z 00518d67 f i libcpmt:wlocale.obj
 0001:00117d95       ??$destroy@PAG@?$_Default_allocator_traits@V?$allocator@G@std@@@std@@SAXAAV?$allocator@G@1@QAPAG@Z 00518d95 f i libcpmt:wlocale.obj
 0001:00117d96       ??$forward@ABQAG@std@@YAABQAGABQAG@Z 00518d96 f i libcpmt:wlocale.obj
 0001:00117d9e       ??$forward@V?$allocator@G@std@@@std@@YA$$QAV?$allocator@G@0@AAV10@@Z 00518d9e f i libcpmt:wlocale.obj
 0001:00117da6       ??$forward@V?$allocator@_W@std@@@std@@YA$$QAV?$allocator@_W@0@AAV10@@Z 00518da6 f i libcpmt:wlocale.obj
 0001:00117dae       ??$move@AAV?$allocator@G@std@@@std@@YA$$QAV?$allocator@G@0@AAV10@@Z 00518dae f i libcpmt:wlocale.obj
 0001:00117db6       ??$move@AAV?$allocator@_W@std@@@std@@YA$$QAV?$allocator@_W@0@AAV10@@Z 00518db6 f i libcpmt:wlocale.obj
 0001:00117dbe       ??$move@AAV?$basic_string@GU?$char_traits@G@std@@V?$allocator@G@2@@std@@@std@@YA$$QAV?$basic_string@GU?$char_traits@G@std@@V?$allocator@G@2@@0@AAV10@@Z 00518dbe f i libcpmt:wlocale.obj
 0001:00117dc6       ??$move@AAV?$basic_string@_WU?$char_traits@_W@std@@V?$allocator@_W@2@@std@@@std@@YA$$QAV?$basic_string@_WU?$char_traits@_W@std@@V?$allocator@_W@2@@0@AAV10@@Z 00518dc6 f i libcpmt:wlocale.obj
 0001:00117dce       ??$use_facet@V?$codecvt@GDU_Mbstatet@@@std@@@std@@YAABV?$codecvt@GDU_Mbstatet@@@0@ABVlocale@0@@Z 00518dce f i libcpmt:wlocale.obj
 0001:00117e74       ??$use_facet@V?$codecvt@_WDU_Mbstatet@@@std@@@std@@YAABV?$codecvt@_WDU_Mbstatet@@@0@ABVlocale@0@@Z 00518e74 f i libcpmt:wlocale.obj
 0001:00117f1a       ??$use_facet@V?$collate@G@std@@@std@@YAABV?$collate@G@0@ABVlocale@0@@Z 00518f1a f i libcpmt:wlocale.obj
 0001:00117fc0       ??$use_facet@V?$collate@_W@std@@@std@@YAABV?$collate@_W@0@ABVlocale@0@@Z 00518fc0 f i libcpmt:wlocale.obj
 0001:00118066       ??$use_facet@V?$ctype@G@std@@@std@@YAABV?$ctype@G@0@ABVlocale@0@@Z 00519066 f i libcpmt:wlocale.obj
 0001:0011810c       ??$use_facet@V?$ctype@_W@std@@@std@@YAABV?$ctype@_W@0@ABVlocale@0@@Z 0051910c f i libcpmt:wlocale.obj
 0001:001181b2       ??$use_facet@V?$messages@G@std@@@std@@YAABV?$messages@G@0@ABVlocale@0@@Z 005191b2 f i libcpmt:wlocale.obj
 0001:00118258       ??$use_facet@V?$messages@_W@std@@@std@@YAABV?$messages@_W@0@ABVlocale@0@@Z 00519258 f i libcpmt:wlocale.obj
 0001:001182fe       ??$use_facet@V?$money_get@GV?$istreambuf_iterator@GU?$char_traits@G@std@@@std@@@std@@@std@@YAABV?$money_get@GV?$istreambuf_iterator@GU?$char_traits@G@std@@@std@@@0@ABVlocale@0@@Z 005192fe f i libcpmt:wlocale.obj
 0001:001183a4       ??$use_facet@V?$money_get@_WV?$istreambuf_iterator@_WU?$char_traits@_W@std@@@std@@@std@@@std@@YAABV?$money_get@_WV?$istreambuf_iterator@_WU?$char_traits@_W@std@@@std@@@0@ABVlocale@0@@Z 005193a4 f i libcpmt:wlocale.obj
 0001:0011844a       ??$use_facet@V?$money_put@GV?$ostreambuf_iterator@GU?$char_traits@G@std@@@std@@@std@@@std@@YAABV?$money_put@GV?$ostreambuf_iterator@GU?$char_traits@G@std@@@std@@@0@ABVlocale@0@@Z 0051944a f i libcpmt:wlocale.obj
 0001:001184f0       ??$use_facet@V?$money_put@_WV?$ostreambuf_iterator@_WU?$char_traits@_W@std@@@std@@@std@@@std@@YAABV?$money_put@_WV?$ostreambuf_iterator@_WU?$char_traits@_W@std@@@std@@@0@ABVlocale@0@@Z 005194f0 f i libcpmt:wlocale.obj
 0001:00118596       ??$use_facet@V?$moneypunct@G$00@std@@@std@@YAABV?$moneypunct@G$00@0@ABVlocale@0@@Z 00519596 f i libcpmt:wlocale.obj
 0001:0011863c       ??$use_facet@V?$moneypunct@G$0A@@std@@@std@@YAABV?$moneypunct@G$0A@@0@ABVlocale@0@@Z 0051963c f i libcpmt:wlocale.obj
 0001:001186e2       ??$use_facet@V?$moneypunct@_W$00@std@@@std@@YAABV?$moneypunct@_W$00@0@ABVlocale@0@@Z 005196e2 f i libcpmt:wlocale.obj
 0001:00118788       ??$use_facet@V?$moneypunct@_W$0A@@std@@@std@@YAABV?$moneypunct@_W$0A@@0@ABVlocale@0@@Z 00519788 f i libcpmt:wlocale.obj
 0001:0011882e       ??$use_facet@V?$num_get@GV?$istreambuf_iterator@GU?$char_traits@G@std@@@std@@@std@@@std@@YAABV?$num_get@GV?$istreambuf_iterator@GU?$char_traits@G@std@@@std@@@0@ABVlocale@0@@Z 0051982e f i libcpmt:wlocale.obj
 0001:001188d4       ??$use_facet@V?$num_get@_WV?$istreambuf_iterator@_WU?$char_traits@_W@std@@@std@@@std@@@std@@YAABV?$num_get@_WV?$istreambuf_iterator@_WU?$char_traits@_W@std@@@std@@@0@ABVlocale@0@@Z 005198d4 f i libcpmt:wlocale.obj
 0001:0011897a       ??$use_facet@V?$num_put@GV?$ostreambuf_iterator@GU?$char_traits@G@std@@@std@@@std@@@std@@YAABV?$num_put@GV?$ostreambuf_iterator@GU?$char_traits@G@std@@@std@@@0@ABVlocale@0@@Z 0051997a f i libcpmt:wlocale.obj
 0001:00118a20       ??$use_facet@V?$num_put@_WV?$ostreambuf_iterator@_WU?$char_traits@_W@std@@@std@@@std@@@std@@YAABV?$num_put@_WV?$ostreambuf_iterator@_WU?$char_traits@_W@std@@@std@@@0@ABVlocale@0@@Z 00519a20 f i libcpmt:wlocale.obj
 0001:00118ac6       ??$use_facet@V?$numpunct@G@std@@@std@@YAABV?$numpunct@G@0@ABVlocale@0@@Z 00519ac6 f i libcpmt:wlocale.obj
 0001:00118b6c       ??$use_facet@V?$numpunct@_W@std@@@std@@YAABV?$numpunct@_W@0@ABVlocale@0@@Z 00519b6c f i libcpmt:wlocale.obj
 0001:00118c12       ??$use_facet@V?$time_get@GV?$istreambuf_iterator@GU?$char_traits@G@std@@@std@@@std@@@std@@YAABV?$time_get@GV?$istreambuf_iterator@GU?$char_traits@G@std@@@std@@@0@ABVlocale@0@@Z 00519c12 f i libcpmt:wlocale.obj
 0001:00118cb8       ??$use_facet@V?$time_get@_WV?$istreambuf_iterator@_WU?$char_traits@_W@std@@@std@@@std@@@std@@YAABV?$time_get@_WV?$istreambuf_iterator@_WU?$char_traits@_W@std@@@std@@@0@ABVlocale@0@@Z 00519cb8 f i libcpmt:wlocale.obj
 0001:00118d5e       ??$use_facet@V?$time_put@GV?$ostreambuf_iterator@GU?$char_traits@G@std@@@std@@@std@@@std@@YAABV?$time_put@GV?$ostreambuf_iterator@GU?$char_traits@G@std@@@std@@@0@ABVlocale@0@@Z 00519d5e f i libcpmt:wlocale.obj
 0001:00118e04       ??$use_facet@V?$time_put@_WV?$ostreambuf_iterator@_WU?$char_traits@_W@std@@@std@@@std@@@std@@YAABV?$time_put@_WV?$ostreambuf_iterator@_WU?$char_traits@_W@std@@@std@@@0@ABVlocale@0@@Z 00519e04 f i libcpmt:wlocale.obj
 0001:00118eaa       ??0?$_Mpunct@G@std@@QAE@ABV_Locinfo@1@I_N1@Z 00519eaa f i libcpmt:wlocale.obj
 0001:00118ee6       ??0?$_Mpunct@_W@std@@QAE@ABV_Locinfo@1@I_N1@Z 00519ee6 f i libcpmt:wlocale.obj
 0001:00118f22       ??0?$_String_alloc@U?$_String_base_types@GV?$allocator@G@std@@@std@@@std@@QAE@XZ 00519f22 f i libcpmt:wlocale.obj
 0001:00118f2d       ??0?$_String_const_iterator@V?$_String_val@U?$_Simple_types@G@std@@@std@@@std@@QAE@PBGPBU_Container_base0@1@@Z 00519f2d f i libcpmt:wlocale.obj
 0001:00118f3b       ??0?$_String_const_iterator@V?$_String_val@U?$_Simple_types@G@std@@@std@@@std@@QAE@XZ 00519f3b f i libcpmt:wlocale.obj
 0001:00118f41       ??0?$_String_const_iterator@V?$_String_val@U?$_Simple_types@_W@std@@@std@@@std@@QAE@PB_WPBU_Container_base0@1@@Z 00519f41 f i libcpmt:wlocale.obj
 0001:00118f4f       ??0?$_String_const_iterator@V?$_String_val@U?$_Simple_types@_W@std@@@std@@@std@@QAE@XZ 00519f4f f i libcpmt:wlocale.obj
 0001:00118f55       ??0?$_String_iterator@V?$_String_val@U?$_Simple_types@G@std@@@std@@@std@@QAE@PAGPBU_Container_base0@1@@Z 00519f55 f i libcpmt:wlocale.obj
 0001:00118f63       ??0?$_String_iterator@V?$_String_val@U?$_Simple_types@_W@std@@@std@@@std@@QAE@PA_WPBU_Container_base0@1@@Z 00519f63 f i libcpmt:wlocale.obj
 0001:00118f71       ??0?$_String_val@U?$_Simple_types@G@std@@@std@@QAE@XZ 00519f71 f i libcpmt:wlocale.obj
 0001:00118f7c       ??0?$allocator@G@std@@QAE@XZ 00519f7c f i libcpmt:wlocale.obj
 0001:00118f7f       ??0?$basic_string@GU?$char_traits@G@std@@V?$allocator@G@2@@std@@QAE@$$QAV01@@Z 00519f7f f i libcpmt:wlocale.obj
 0001:00118fb2       ??0?$basic_string@GU?$char_traits@G@std@@V?$allocator@G@2@@std@@QAE@ABV01@@Z 00519fb2 f i libcpmt:wlocale.obj
 0001:00118fcf       ??0?$basic_string@GU?$char_traits@G@std@@V?$allocator@G@2@@std@@QAE@IG@Z 00519fcf f i libcpmt:wlocale.obj
 0001:00118ff7       ??0?$basic_string@GU?$char_traits@G@std@@V?$allocator@G@2@@std@@QAE@QBG@Z 00519ff7 f i libcpmt:wlocale.obj
 0001:0011901c       ??0?$basic_string@GU?$char_traits@G@std@@V?$allocator@G@2@@std@@QAE@QBGI@Z 0051a01c f i libcpmt:wlocale.obj
 0001:00119044       ??0?$basic_string@GU?$char_traits@G@std@@V?$allocator@G@2@@std@@QAE@XZ 0051a044 f i libcpmt:wlocale.obj
 0001:00119057       ??0?$basic_string@_WU?$char_traits@_W@std@@V?$allocator@_W@2@@std@@QAE@$$QAV01@@Z 0051a057 f i libcpmt:wlocale.obj
 0001:0011908a       ??0?$basic_string@_WU?$char_traits@_W@std@@V?$allocator@_W@2@@std@@QAE@ABV01@@Z 0051a08a f i libcpmt:wlocale.obj
 0001:001190a7       ??0?$basic_string@_WU?$char_traits@_W@std@@V?$allocator@_W@2@@std@@QAE@QB_W@Z 0051a0a7 f i libcpmt:wlocale.obj
 0001:001190cc       ??0?$basic_string@_WU?$char_traits@_W@std@@V?$allocator@_W@2@@std@@QAE@QB_WI@Z 0051a0cc f i libcpmt:wlocale.obj
 0001:001190f4       ??0?$basic_string@_WU?$char_traits@_W@std@@V?$allocator@_W@2@@std@@QAE@XZ 0051a0f4 f i libcpmt:wlocale.obj
 0001:00119107       ??0?$codecvt@GDU_Mbstatet@@@std@@QAE@ABV_Locinfo@1@I@Z 0051a107 f i libcpmt:wlocale.obj
 0001:0011913e       ??0?$codecvt@_WDU_Mbstatet@@@std@@QAE@ABV_Locinfo@1@I@Z 0051a13e f i libcpmt:wlocale.obj
 0001:00119175       ??0?$collate@G@std@@QAE@ABV_Locinfo@1@I@Z 0051a175 f i libcpmt:wlocale.obj
 0001:0011919d       ??0?$collate@_W@std@@QAE@ABV_Locinfo@1@I@Z 0051a19d f i libcpmt:wlocale.obj
 0001:001191c5       ??0?$ctype@G@std@@QAE@ABV_Locinfo@1@I@Z 0051a1c5 f i libcpmt:wlocale.obj
 0001:001191ea       ??0?$ctype@_W@std@@QAE@ABV_Locinfo@1@I@Z 0051a1ea f i libcpmt:wlocale.obj
 0001:0011920f       ??0?$messages@G@std@@QAE@ABV_Locinfo@1@I@Z 0051a20f f i libcpmt:wlocale.obj
 0001:00119228       ??0?$messages@_W@std@@QAE@ABV_Locinfo@1@I@Z 0051a228 f i libcpmt:wlocale.obj
 0001:00119241       ??0?$money_get@GV?$istreambuf_iterator@GU?$char_traits@G@std@@@std@@@std@@QAE@ABV_Locinfo@1@I@Z 0051a241 f i libcpmt:wlocale.obj
 0001:0011925a       ??0?$money_get@_WV?$istreambuf_iterator@_WU?$char_traits@_W@std@@@std@@@std@@QAE@ABV_Locinfo@1@I@Z 0051a25a f i libcpmt:wlocale.obj
 0001:00119273       ??0?$money_put@GV?$ostreambuf_iterator@GU?$char_traits@G@std@@@std@@@std@@QAE@ABV_Locinfo@1@I@Z 0051a273 f i libcpmt:wlocale.obj
 0001:0011928c       ??0?$money_put@_WV?$ostreambuf_iterator@_WU?$char_traits@_W@std@@@std@@@std@@QAE@ABV_Locinfo@1@I@Z 0051a28c f i libcpmt:wlocale.obj
 0001:001192a5       ??0?$moneypunct@G$00@std@@QAE@ABV_Locinfo@1@I_N@Z 0051a2a5 f i libcpmt:wlocale.obj
 0001:001192cc       ??0?$moneypunct@G$0A@@std@@QAE@ABV_Locinfo@1@I_N@Z 0051a2cc f i libcpmt:wlocale.obj
 0001:001192f3       ??0?$moneypunct@_W$00@std@@QAE@ABV_Locinfo@1@I_N@Z 0051a2f3 f i libcpmt:wlocale.obj
 0001:0011931a       ??0?$moneypunct@_W$0A@@std@@QAE@ABV_Locinfo@1@I_N@Z 0051a31a f i libcpmt:wlocale.obj
 0001:00119341       ??0?$num_get@GV?$istreambuf_iterator@GU?$char_traits@G@std@@@std@@@std@@QAE@ABV_Locinfo@1@I@Z 0051a341 f i libcpmt:wlocale.obj
 0001:0011935a       ??0?$num_get@_WV?$istreambuf_iterator@_WU?$char_traits@_W@std@@@std@@@std@@QAE@ABV_Locinfo@1@I@Z 0051a35a f i libcpmt:wlocale.obj
 0001:00119373       ??0?$num_put@GV?$ostreambuf_iterator@GU?$char_traits@G@std@@@std@@@std@@QAE@ABV_Locinfo@1@I@Z 0051a373 f i libcpmt:wlocale.obj
 0001:0011938c       ??0?$num_put@_WV?$ostreambuf_iterator@_WU?$char_traits@_W@std@@@std@@@std@@QAE@ABV_Locinfo@1@I@Z 0051a38c f i libcpmt:wlocale.obj
 0001:001193a5       ??0?$numpunct@G@std@@QAE@ABV_Locinfo@1@I_N@Z 0051a3a5 f i libcpmt:wlocale.obj
 0001:001193db       ??0?$numpunct@_W@std@@QAE@ABV_Locinfo@1@I_N@Z 0051a3db f i libcpmt:wlocale.obj
 0001:00119411       ??0?$time_get@GV?$istreambuf_iterator@GU?$char_traits@G@std@@@std@@@std@@QAE@ABV_Locinfo@1@I@Z 0051a411 f i libcpmt:wlocale.obj
 0001:00119444       ??0?$time_get@_WV?$istreambuf_iterator@_WU?$char_traits@_W@std@@@std@@@std@@QAE@ABV_Locinfo@1@I@Z 0051a444 f i libcpmt:wlocale.obj
 0001:00119477       ??0?$time_put@GV?$ostreambuf_iterator@GU?$char_traits@G@std@@@std@@@std@@QAE@ABV_Locinfo@1@I@Z 0051a477 f i libcpmt:wlocale.obj
 0001:001194a8       ??0?$time_put@_WV?$ostreambuf_iterator@_WU?$char_traits@_W@std@@@std@@@std@@QAE@ABV_Locinfo@1@I@Z 0051a4a8 f i libcpmt:wlocale.obj
 0001:001194d9       ??0_Bxty@?$_String_val@U?$_Simple_types@G@std@@@std@@QAE@XZ 0051a4d9 f i libcpmt:wlocale.obj
 0001:001194dc       ??0_Timevec@std@@QAE@PAX@Z 0051a4dc f i libcpmt:wlocale.obj
 0001:001194ea       ??0messages_base@std@@QAE@I@Z 0051a4ea f i libcpmt:wlocale.obj
 0001:00119503       ??0money_base@std@@QAE@I@Z 0051a503 f i libcpmt:wlocale.obj
 0001:0011951c       ??0time_base@std@@QAE@I@Z  0051a51c f i libcpmt:wlocale.obj
 0001:00119535       ??1?$_Compressed_pair@V?$allocator@G@std@@V?$_String_val@U?$_Simple_types@G@std@@@2@$00@std@@QAE@XZ 0051a535 f i libcpmt:wlocale.obj
 0001:00119536       ??1?$_Mpunct@G@std@@MAE@XZ 0051a536 f i libcpmt:wlocale.obj
 0001:0011954c       ??1?$_Mpunct@_W@std@@MAE@XZ 0051a54c f i libcpmt:wlocale.obj
 0001:00119562       ??1?$_String_alloc@U?$_String_base_types@GV?$allocator@G@std@@@std@@@std@@QAE@XZ 0051a562 f i libcpmt:wlocale.obj
 0001:00119563       ??1?$_String_val@U?$_Simple_types@G@std@@@std@@QAE@XZ 0051a563 f i libcpmt:wlocale.obj
 0001:00119564       ??1?$basic_string@GU?$char_traits@G@std@@V?$allocator@G@2@@std@@QAE@XZ 0051a564 f i libcpmt:wlocale.obj
 0001:00119569       ??1?$codecvt@GDU_Mbstatet@@@std@@MAE@XZ 0051a569 f i libcpmt:wlocale.obj
 0001:00119570       ??1?$codecvt@_WDU_Mbstatet@@@std@@MAE@XZ 0051a570 f i libcpmt:wlocale.obj
 0001:00119577       ??1?$collate@G@std@@MAE@XZ 0051a577 f i libcpmt:wlocale.obj
 0001:00119591       ??1?$collate@_W@std@@MAE@XZ 0051a591 f i libcpmt:wlocale.obj
 0001:001195ab       ??1?$ctype@G@std@@MAE@XZ   0051a5ab f i libcpmt:wlocale.obj
 0001:001195d4       ??1?$ctype@_W@std@@MAE@XZ  0051a5d4 f i libcpmt:wlocale.obj
 0001:001195fd       ??1?$messages@G@std@@MAE@XZ 0051a5fd f i libcpmt:wlocale.obj
 0001:00119604       ??1?$messages@_W@std@@MAE@XZ 0051a604 f i libcpmt:wlocale.obj
 0001:0011960b       ??1?$money_get@GV?$istreambuf_iterator@GU?$char_traits@G@std@@@std@@@std@@MAE@XZ 0051a60b f i libcpmt:wlocale.obj
 0001:00119612       ??1?$money_get@_WV?$istreambuf_iterator@_WU?$char_traits@_W@std@@@std@@@std@@MAE@XZ 0051a612 f i libcpmt:wlocale.obj
 0001:00119619       ??1?$money_put@GV?$ostreambuf_iterator@GU?$char_traits@G@std@@@std@@@std@@MAE@XZ 0051a619 f i libcpmt:wlocale.obj
 0001:00119620       ??1?$money_put@_WV?$ostreambuf_iterator@_WU?$char_traits@_W@std@@@std@@@std@@MAE@XZ 0051a620 f i libcpmt:wlocale.obj
 0001:00119627       ??1?$moneypunct@G$00@std@@MAE@XZ 0051a627 f i libcpmt:wlocale.obj
 0001:0011963d       ??1?$moneypunct@G$0A@@std@@MAE@XZ 0051a63d f i libcpmt:wlocale.obj
 0001:00119653       ??1?$moneypunct@_W$00@std@@MAE@XZ 0051a653 f i libcpmt:wlocale.obj
 0001:00119669       ??1?$moneypunct@_W$0A@@std@@MAE@XZ 0051a669 f i libcpmt:wlocale.obj
 0001:0011967f       ??1?$num_get@GV?$istreambuf_iterator@GU?$char_traits@G@std@@@std@@@std@@MAE@XZ 0051a67f f i libcpmt:wlocale.obj
 0001:00119686       ??1?$num_get@_WV?$istreambuf_iterator@_WU?$char_traits@_W@std@@@std@@@std@@MAE@XZ 0051a686 f i libcpmt:wlocale.obj
 0001:0011968d       ??1?$num_put@GV?$ostreambuf_iterator@GU?$char_traits@G@std@@@std@@@std@@MAE@XZ 0051a68d f i libcpmt:wlocale.obj
 0001:00119694       ??1?$num_put@_WV?$ostreambuf_iterator@_WU?$char_traits@_W@std@@@std@@@std@@MAE@XZ 0051a694 f i libcpmt:wlocale.obj
 0001:0011969b       ??1?$numpunct@G@std@@MAE@XZ 0051a69b f i libcpmt:wlocale.obj
 0001:001196b1       ??1?$numpunct@_W@std@@MAE@XZ 0051a6b1 f i libcpmt:wlocale.obj
 0001:001196c7       ??1?$time_get@GV?$istreambuf_iterator@GU?$char_traits@G@std@@@std@@@std@@MAE@XZ 0051a6c7 f i libcpmt:wlocale.obj
 0001:001196dd       ??1?$time_get@_WV?$istreambuf_iterator@_WU?$char_traits@_W@std@@@std@@@std@@MAE@XZ 0051a6dd f i libcpmt:wlocale.obj
 0001:001196f3       ??1?$time_put@GV?$ostreambuf_iterator@GU?$char_traits@G@std@@@std@@@std@@MAE@XZ 0051a6f3 f i libcpmt:wlocale.obj
 0001:0011970d       ??1?$time_put@_WV?$ostreambuf_iterator@_WU?$char_traits@_W@std@@@std@@@std@@MAE@XZ 0051a70d f i libcpmt:wlocale.obj
 0001:00119727       ??1_Bxty@?$_String_val@U?$_Simple_types@G@std@@@std@@QAE@XZ 0051a727 f i libcpmt:wlocale.obj
 0001:00119728       ??1_Timevec@std@@QAE@XZ    0051a728 f i libcpmt:wlocale.obj
 0001:00119731       ??1messages_base@std@@UAE@XZ 0051a731 f i libcpmt:wlocale.obj
 0001:00119738       ??1money_base@std@@UAE@XZ  0051a738 f i libcpmt:wlocale.obj
 0001:0011973f       ??1time_base@std@@UAE@XZ   0051a73f f i libcpmt:wlocale.obj
 0001:00119746       ??4?$_Yarn@_W@std@@QAEAAV01@PB_W@Z 0051a746 f i libcpmt:wlocale.obj
 0001:001197a2       ??4?$basic_string@GU?$char_traits@G@std@@V?$allocator@G@2@@std@@QAEAAV01@$$QAV01@@Z 0051a7a2 f i libcpmt:wlocale.obj
 0001:001197d9       ??4?$basic_string@_WU?$char_traits@_W@std@@V?$allocator@_W@2@@std@@QAEAAV01@$$QAV01@@Z 0051a7d9 f i libcpmt:wlocale.obj
 0001:00119810       ??4?$ostreambuf_iterator@GU?$char_traits@G@std@@@std@@QAEAAV01@G@Z 0051a810 f i libcpmt:wlocale.obj
 0001:00119839       ??4?$ostreambuf_iterator@_WU?$char_traits@_W@std@@@std@@QAEAAV01@_W@Z 0051a839 f i libcpmt:wlocale.obj
 0001:00119862       ??4_Timevec@std@@QAEAAV01@ABV01@@Z 0051a862 f i libcpmt:wlocale.obj
 0001:00119875       ??8?$_String_const_iterator@V?$_String_val@U?$_Simple_types@G@std@@@std@@@std@@QBE_NABV01@@Z 0051a875 f i libcpmt:wlocale.obj
 0001:00119886       ??8?$_String_const_iterator@V?$_String_val@U?$_Simple_types@_W@std@@@std@@@std@@QBE_NABV01@@Z 0051a886 f i libcpmt:wlocale.obj
 0001:00119897       ??9?$_String_const_iterator@V?$_String_val@U?$_Simple_types@G@std@@@std@@@std@@QBE_NABV01@@Z 0051a897 f i libcpmt:wlocale.obj
 0001:001198a8       ??9?$_String_const_iterator@V?$_String_val@U?$_Simple_types@_W@std@@@std@@@std@@QBE_NABV01@@Z 0051a8a8 f i libcpmt:wlocale.obj
 0001:001198b9       ??A?$basic_string@GU?$char_traits@G@std@@V?$allocator@G@2@@std@@QAEAAGI@Z 0051a8b9 f i libcpmt:wlocale.obj
 0001:001198ce       ??A?$basic_string@GU?$char_traits@G@std@@V?$allocator@G@2@@std@@QBEABGI@Z 0051a8ce f i libcpmt:wlocale.obj
 0001:001198e3       ??A?$basic_string@_WU?$char_traits@_W@std@@V?$allocator@_W@2@@std@@QBEAB_WI@Z 0051a8e3 f i libcpmt:wlocale.obj
 0001:001198f8       ??D?$_String_const_iterator@V?$_String_val@U?$_Simple_types@G@std@@@std@@@std@@QBEABGXZ 0051a8f8 f i libcpmt:wlocale.obj
 0001:001198fb       ??D?$_String_const_iterator@V?$_String_val@U?$_Simple_types@_W@std@@@std@@@std@@QBEAB_WXZ 0051a8fb f i libcpmt:wlocale.obj
 0001:001198fe       ??D?$_String_iterator@V?$_String_val@U?$_Simple_types@G@std@@@std@@@std@@QBEAAGXZ 0051a8fe f i libcpmt:wlocale.obj
 0001:00119901       ??D?$_String_iterator@V?$_String_val@U?$_Simple_types@_W@std@@@std@@@std@@QBEAA_WXZ 0051a901 f i libcpmt:wlocale.obj
 0001:00119904       ??D?$istreambuf_iterator@GU?$char_traits@G@std@@@std@@QBEGXZ 0051a904 f i libcpmt:wlocale.obj
 0001:00119918       ??D?$istreambuf_iterator@_WU?$char_traits@_W@std@@@std@@QBE_WXZ 0051a918 f i libcpmt:wlocale.obj
 0001:0011992c       ??D?$ostreambuf_iterator@GU?$char_traits@G@std@@@std@@QAEAAV01@XZ 0051a92c f i libcpmt:wlocale.obj
 0001:0011992f       ??D?$ostreambuf_iterator@_WU?$char_traits@_W@std@@@std@@QAEAAV01@XZ 0051a92f f i libcpmt:wlocale.obj
 0001:00119932       ??E?$_String_const_iterator@V?$_String_val@U?$_Simple_types@G@std@@@std@@@std@@QAEAAV01@XZ 0051a932 f i libcpmt:wlocale.obj
 0001:00119938       ??E?$_String_const_iterator@V?$_String_val@U?$_Simple_types@_W@std@@@std@@@std@@QAEAAV01@XZ 0051a938 f i libcpmt:wlocale.obj
 0001:0011993e       ??E?$_String_iterator@V?$_String_val@U?$_Simple_types@G@std@@@std@@@std@@QAEAAV01@XZ 0051a93e f i libcpmt:wlocale.obj
 0001:00119944       ??E?$_String_iterator@V?$_String_val@U?$_Simple_types@_W@std@@@std@@@std@@QAEAAV01@XZ 0051a944 f i libcpmt:wlocale.obj
 0001:0011994a       ??E?$istreambuf_iterator@GU?$char_traits@G@std@@@std@@QAEAAV01@XZ 0051a94a f i libcpmt:wlocale.obj
 0001:00119956       ??E?$istreambuf_iterator@_WU?$char_traits@_W@std@@@std@@QAEAAV01@XZ 0051a956 f i libcpmt:wlocale.obj
 0001:00119962       ??E?$ostreambuf_iterator@GU?$char_traits@G@std@@@std@@QAEAAV01@H@Z 0051a962 f i libcpmt:wlocale.obj
 0001:00119967       ??E?$ostreambuf_iterator@GU?$char_traits@G@std@@@std@@QAEAAV01@XZ 0051a967 f i libcpmt:wlocale.obj
 0001:0011996a       ??E?$ostreambuf_iterator@_WU?$char_traits@_W@std@@@std@@QAEAAV01@H@Z 0051a96a f i libcpmt:wlocale.obj
 0001:0011996f       ??E?$ostreambuf_iterator@_WU?$char_traits@_W@std@@@std@@QAEAAV01@XZ 0051a96f f i libcpmt:wlocale.obj
 0001:00119972       ??G?$_String_iterator@V?$_String_val@U?$_Simple_types@G@std@@@std@@@std@@QBE?AV01@H@Z 0051a972 f i libcpmt:wlocale.obj
 0001:00119987       ??G?$_String_iterator@V?$_String_val@U?$_Simple_types@_W@std@@@std@@@std@@QBE?AV01@H@Z 0051a987 f i libcpmt:wlocale.obj
 0001:0011999c       ??H?$_String_iterator@V?$_String_val@U?$_Simple_types@G@std@@@std@@@std@@QBE?AV01@H@Z 0051a99c f i libcpmt:wlocale.obj
 0001:001199b0       ??H?$_String_iterator@V?$_String_val@U?$_Simple_types@_W@std@@@std@@@std@@QBE?AV01@H@Z 0051a9b0 f i libcpmt:wlocale.obj
 0001:00119d4b       ??Y?$_String_const_iterator@V?$_String_val@U?$_Simple_types@G@std@@@std@@@std@@QAEAAV01@H@Z 0051ad4b f i libcpmt:wlocale.obj
 0001:00119d5b       ??Y?$_String_const_iterator@V?$_String_val@U?$_Simple_types@_W@std@@@std@@@std@@QAEAAV01@H@Z 0051ad5b f i libcpmt:wlocale.obj
 0001:00119d6b       ??Y?$_String_iterator@V?$_String_val@U?$_Simple_types@G@std@@@std@@@std@@QAEAAV01@H@Z 0051ad6b f i libcpmt:wlocale.obj
 0001:00119d7b       ??Y?$_String_iterator@V?$_String_val@U?$_Simple_types@_W@std@@@std@@@std@@QAEAAV01@H@Z 0051ad7b f i libcpmt:wlocale.obj
 0001:00119d8b       ??Y?$basic_string@GU?$char_traits@G@std@@V?$allocator@G@2@@std@@QAEAAV01@ABV01@@Z 0051ad8b f i libcpmt:wlocale.obj
 0001:00119d94       ??Y?$basic_string@_WU?$char_traits@_W@std@@V?$allocator@_W@2@@std@@QAEAAV01@ABV01@@Z 0051ad94 f i libcpmt:wlocale.obj
 0001:00119d9d       ??Z?$_String_iterator@V?$_String_val@U?$_Simple_types@G@std@@@std@@@std@@QAEAAV01@H@Z 0051ad9d f i libcpmt:wlocale.obj
 0001:00119daf       ??Z?$_String_iterator@V?$_String_val@U?$_Simple_types@_W@std@@@std@@@std@@QAEAAV01@H@Z 0051adaf f i libcpmt:wlocale.obj
 0001:00119dc1       ??_E?$_Mpunct@G@std@@MAEPAXI@Z 0051adc1 f i libcpmt:wlocale.obj
 0001:00119dc1       ??_G?$_Mpunct@G@std@@MAEPAXI@Z 0051adc1 f i libcpmt:wlocale.obj
 0001:00119def       ??_G?$_Mpunct@_W@std@@MAEPAXI@Z 0051adef f i libcpmt:wlocale.obj
 0001:00119def       ??_E?$_Mpunct@_W@std@@MAEPAXI@Z 0051adef f i libcpmt:wlocale.obj
 0001:00119e1d       ??_E?$codecvt@GDU_Mbstatet@@@std@@MAEPAXI@Z 0051ae1d f i libcpmt:wlocale.obj
 0001:00119e1d       ??_G?$codecvt@GDU_Mbstatet@@@std@@MAEPAXI@Z 0051ae1d f i libcpmt:wlocale.obj
 0001:00119e40       ??_E?$codecvt@_WDU_Mbstatet@@@std@@MAEPAXI@Z 0051ae40 f i libcpmt:wlocale.obj
 0001:00119e40       ??_G?$codecvt@_WDU_Mbstatet@@@std@@MAEPAXI@Z 0051ae40 f i libcpmt:wlocale.obj
 0001:00119e63       ??_G?$collate@G@std@@MAEPAXI@Z 0051ae63 f i libcpmt:wlocale.obj
 0001:00119e63       ??_E?$collate@G@std@@MAEPAXI@Z 0051ae63 f i libcpmt:wlocale.obj
 0001:00119e85       ??_E?$collate@_W@std@@MAEPAXI@Z 0051ae85 f i libcpmt:wlocale.obj
 0001:00119e85       ??_G?$collate@_W@std@@MAEPAXI@Z 0051ae85 f i libcpmt:wlocale.obj
 0001:00119ea7       ??_E?$ctype@G@std@@MAEPAXI@Z 0051aea7 f i libcpmt:wlocale.obj
 0001:00119ea7       ??_G?$ctype@G@std@@MAEPAXI@Z 0051aea7 f i libcpmt:wlocale.obj
 0001:00119ec9       ??_E?$ctype@_W@std@@MAEPAXI@Z 0051aec9 f i libcpmt:wlocale.obj
 0001:00119ec9       ??_G?$ctype@_W@std@@MAEPAXI@Z 0051aec9 f i libcpmt:wlocale.obj
 0001:00119eeb       ??_G?$messages@G@std@@MAEPAXI@Z 0051aeeb f i libcpmt:wlocale.obj
 0001:00119eeb       ??_E?$messages@G@std@@MAEPAXI@Z 0051aeeb f i libcpmt:wlocale.obj
 0001:00119f0e       ??_E?$messages@_W@std@@MAEPAXI@Z 0051af0e f i libcpmt:wlocale.obj
 0001:00119f0e       ??_G?$messages@_W@std@@MAEPAXI@Z 0051af0e f i libcpmt:wlocale.obj
 0001:00119f31       ??_E?$money_get@GV?$istreambuf_iterator@GU?$char_traits@G@std@@@std@@@std@@MAEPAXI@Z 0051af31 f i libcpmt:wlocale.obj
 0001:00119f31       ??_G?$money_get@GV?$istreambuf_iterator@GU?$char_traits@G@std@@@std@@@std@@MAEPAXI@Z 0051af31 f i libcpmt:wlocale.obj
 0001:00119f54       ??_G?$money_get@_WV?$istreambuf_iterator@_WU?$char_traits@_W@std@@@std@@@std@@MAEPAXI@Z 0051af54 f i libcpmt:wlocale.obj
 0001:00119f54       ??_E?$money_get@_WV?$istreambuf_iterator@_WU?$char_traits@_W@std@@@std@@@std@@MAEPAXI@Z 0051af54 f i libcpmt:wlocale.obj
 0001:00119f77       ??_E?$money_put@GV?$ostreambuf_iterator@GU?$char_traits@G@std@@@std@@@std@@MAEPAXI@Z 0051af77 f i libcpmt:wlocale.obj
 0001:00119f77       ??_G?$money_put@GV?$ostreambuf_iterator@GU?$char_traits@G@std@@@std@@@std@@MAEPAXI@Z 0051af77 f i libcpmt:wlocale.obj
 0001:00119f9a       ??_G?$money_put@_WV?$ostreambuf_iterator@_WU?$char_traits@_W@std@@@std@@@std@@MAEPAXI@Z 0051af9a f i libcpmt:wlocale.obj
 0001:00119f9a       ??_E?$money_put@_WV?$ostreambuf_iterator@_WU?$char_traits@_W@std@@@std@@@std@@MAEPAXI@Z 0051af9a f i libcpmt:wlocale.obj
 0001:00119fbd       ??_G?$moneypunct@G$00@std@@MAEPAXI@Z 0051afbd f i libcpmt:wlocale.obj
 0001:00119fbd       ??_E?$moneypunct@G$00@std@@MAEPAXI@Z 0051afbd f i libcpmt:wlocale.obj
 0001:00119feb       ??_E?$moneypunct@G$0A@@std@@MAEPAXI@Z 0051afeb f i libcpmt:wlocale.obj
 0001:00119feb       ??_G?$moneypunct@G$0A@@std@@MAEPAXI@Z 0051afeb f i libcpmt:wlocale.obj
 0001:0011a019       ??_G?$moneypunct@_W$00@std@@MAEPAXI@Z 0051b019 f i libcpmt:wlocale.obj
 0001:0011a019       ??_E?$moneypunct@_W$00@std@@MAEPAXI@Z 0051b019 f i libcpmt:wlocale.obj
 0001:0011a047       ??_E?$moneypunct@_W$0A@@std@@MAEPAXI@Z 0051b047 f i libcpmt:wlocale.obj
 0001:0011a047       ??_G?$moneypunct@_W$0A@@std@@MAEPAXI@Z 0051b047 f i libcpmt:wlocale.obj
 0001:0011a075       ??_E?$num_get@GV?$istreambuf_iterator@GU?$char_traits@G@std@@@std@@@std@@MAEPAXI@Z 0051b075 f i libcpmt:wlocale.obj
 0001:0011a075       ??_G?$num_get@GV?$istreambuf_iterator@GU?$char_traits@G@std@@@std@@@std@@MAEPAXI@Z 0051b075 f i libcpmt:wlocale.obj
 0001:0011a098       ??_E?$num_get@_WV?$istreambuf_iterator@_WU?$char_traits@_W@std@@@std@@@std@@MAEPAXI@Z 0051b098 f i libcpmt:wlocale.obj
 0001:0011a098       ??_G?$num_get@_WV?$istreambuf_iterator@_WU?$char_traits@_W@std@@@std@@@std@@MAEPAXI@Z 0051b098 f i libcpmt:wlocale.obj
 0001:0011a0bb       ??_E?$num_put@GV?$ostreambuf_iterator@GU?$char_traits@G@std@@@std@@@std@@MAEPAXI@Z 0051b0bb f i libcpmt:wlocale.obj
 0001:0011a0bb       ??_G?$num_put@GV?$ostreambuf_iterator@GU?$char_traits@G@std@@@std@@@std@@MAEPAXI@Z 0051b0bb f i libcpmt:wlocale.obj
 0001:0011a0de       ??_G?$num_put@_WV?$ostreambuf_iterator@_WU?$char_traits@_W@std@@@std@@@std@@MAEPAXI@Z 0051b0de f i libcpmt:wlocale.obj
 0001:0011a0de       ??_E?$num_put@_WV?$ostreambuf_iterator@_WU?$char_traits@_W@std@@@std@@@std@@MAEPAXI@Z 0051b0de f i libcpmt:wlocale.obj
 0001:0011a101       ??_G?$numpunct@G@std@@MAEPAXI@Z 0051b101 f i libcpmt:wlocale.obj
 0001:0011a101       ??_E?$numpunct@G@std@@MAEPAXI@Z 0051b101 f i libcpmt:wlocale.obj
 0001:0011a12f       ??_G?$numpunct@_W@std@@MAEPAXI@Z 0051b12f f i libcpmt:wlocale.obj
 0001:0011a12f       ??_E?$numpunct@_W@std@@MAEPAXI@Z 0051b12f f i libcpmt:wlocale.obj
 0001:0011a15d       ??_E?$time_get@GV?$istreambuf_iterator@GU?$char_traits@G@std@@@std@@@std@@MAEPAXI@Z 0051b15d f i libcpmt:wlocale.obj
 0001:0011a15d       ??_G?$time_get@GV?$istreambuf_iterator@GU?$char_traits@G@std@@@std@@@std@@MAEPAXI@Z 0051b15d f i libcpmt:wlocale.obj
 0001:0011a18b       ??_G?$time_get@_WV?$istreambuf_iterator@_WU?$char_traits@_W@std@@@std@@@std@@MAEPAXI@Z 0051b18b f i libcpmt:wlocale.obj
 0001:0011a18b       ??_E?$time_get@_WV?$istreambuf_iterator@_WU?$char_traits@_W@std@@@std@@@std@@MAEPAXI@Z 0051b18b f i libcpmt:wlocale.obj
 0001:0011a1b9       ??_E?$time_put@GV?$ostreambuf_iterator@GU?$char_traits@G@std@@@std@@@std@@MAEPAXI@Z 0051b1b9 f i libcpmt:wlocale.obj
 0001:0011a1b9       ??_G?$time_put@GV?$ostreambuf_iterator@GU?$char_traits@G@std@@@std@@@std@@MAEPAXI@Z 0051b1b9 f i libcpmt:wlocale.obj
 0001:0011a1db       ??_G?$time_put@_WV?$ostreambuf_iterator@_WU?$char_traits@_W@std@@@std@@@std@@MAEPAXI@Z 0051b1db f i libcpmt:wlocale.obj
 0001:0011a1db       ??_E?$time_put@_WV?$ostreambuf_iterator@_WU?$char_traits@_W@std@@@std@@@std@@MAEPAXI@Z 0051b1db f i libcpmt:wlocale.obj
 0001:0011a1fd       ??_Gmessages_base@std@@UAEPAXI@Z 0051b1fd f i libcpmt:wlocale.obj
 0001:0011a1fd       ??_Emessages_base@std@@UAEPAXI@Z 0051b1fd f i libcpmt:wlocale.obj
 0001:0011a220       ??_Gmoney_base@std@@UAEPAXI@Z 0051b220 f i libcpmt:wlocale.obj
 0001:0011a220       ??_Emoney_base@std@@UAEPAXI@Z 0051b220 f i libcpmt:wlocale.obj
 0001:0011a243       ??_Gtime_base@std@@UAEPAXI@Z 0051b243 f i libcpmt:wlocale.obj
 0001:0011a243       ??_Etime_base@std@@UAEPAXI@Z 0051b243 f i libcpmt:wlocale.obj
 0001:0011a266       ?_Assign_rv_contents@?$basic_string@GU?$char_traits@G@std@@V?$allocator@G@2@@std@@QAEX$$QAV12@U?$integral_constant@_N$00@2@@Z 0051b266 f i libcpmt:wlocale.obj
 0001:0011a28d       ?_Assign_rv_contents@?$basic_string@_WU?$char_traits@_W@std@@V?$allocator@_W@2@@std@@QAEX$$QAV12@U?$integral_constant@_N$00@2@@Z 0051b28d f i libcpmt:wlocale.obj
 0001:0011a2b4       ?_Assign_rv_contents_with_alloc_always_equal@?$basic_string@GU?$char_traits@G@std@@V?$allocator@G@2@@std@@QAEX$$QAV12@U?$integral_constant@_N$00@2@@Z 0051b2b4 f i libcpmt:wlocale.obj
 0001:0011a2db       ?_Assign_rv_contents_with_alloc_always_equal@?$basic_string@_WU?$char_traits@_W@std@@V?$allocator@_W@2@@std@@QAEX$$QAV12@U?$integral_constant@_N$00@2@@Z 0051b2db f i libcpmt:wlocale.obj
 0001:0011a302       ?_C_str@?$_Yarn@_W@std@@QBEPB_WXZ 0051b302 f i libcpmt:wlocale.obj
 0001:0011a30c       ?_Calculate_growth@?$basic_string@GU?$char_traits@G@std@@V?$allocator@G@2@@std@@QBEII@Z 0051b30c f i libcpmt:wlocale.obj
 0001:0011a342       ?_Check_offset@?$_String_val@U?$_Simple_types@G@std@@@std@@QBEXI@Z 0051b342 f i libcpmt:wlocale.obj
 0001:0011a357       ?_Check_offset@?$_String_val@U?$_Simple_types@_W@std@@@std@@QBEXI@Z 0051b357 f i libcpmt:wlocale.obj
 0001:0011a36c       ?_Compat@?$_String_const_iterator@V?$_String_val@U?$_Simple_types@G@std@@@std@@@std@@QBEXABV12@@Z 0051b36c f i libcpmt:wlocale.obj
 0001:0011a36f       ?_Compat@?$_String_const_iterator@V?$_String_val@U?$_Simple_types@_W@std@@@std@@@std@@QBEXABV12@@Z 0051b36f f i libcpmt:wlocale.obj
 0001:0011a372       ?_Construct_lv_contents@?$basic_string@GU?$char_traits@G@std@@V?$allocator@G@2@@std@@QAEXABV12@@Z 0051b372 f i libcpmt:wlocale.obj
 0001:0011a3dc       ?_Construct_lv_contents@?$basic_string@_WU?$char_traits@_W@std@@V?$allocator@_W@2@@std@@QAEXABV12@@Z 0051b3dc f i libcpmt:wlocale.obj
 0001:0011a446       ?_Donarrow@?$ctype@G@std@@IBEDGD@Z 0051b446 f i libcpmt:wlocale.obj
 0001:0011a48e       ?_Donarrow@?$ctype@_W@std@@IBED_WD@Z 0051b48e f i libcpmt:wlocale.obj
 0001:0011a4d6       ?_Dowiden@?$ctype@G@std@@IBEGD@Z 0051b4d6 f i libcpmt:wlocale.obj
 0001:0011a50f       ?_Dowiden@?$ctype@_W@std@@IBE_WD@Z 0051b50f f i libcpmt:wlocale.obj
 0001:0011a548       ?_Empty@?$_Yarn@_W@std@@QBE_NXZ 0051b548 f i libcpmt:wlocale.obj
 0001:0011a54f       ?_Eos@?$basic_string@GU?$char_traits@G@std@@V?$allocator@G@2@@std@@QAEXI@Z 0051b54f f i libcpmt:wlocale.obj
 0001:0011a56c       ?_Eos@?$basic_string@_WU?$char_traits@_W@std@@V?$allocator@_W@2@@std@@QAEXI@Z 0051b56c f i libcpmt:wlocale.obj
 0001:0011a589       ?_Ffmt@?$num_put@GV?$ostreambuf_iterator@GU?$char_traits@G@std@@@std@@@std@@ABAPADPADDH@Z 0051b589 f i libcpmt:wlocale.obj
 0001:0011a61e       ?_Ffmt@?$num_put@_WV?$ostreambuf_iterator@_WU?$char_traits@_W@std@@@std@@@std@@ABAPADPADDH@Z 0051b61e f i libcpmt:wlocale.obj
 0001:0011a6b3       ?_Fnv1a_append_bytes@std@@YAIIQBEI@Z 0051b6b3 f i libcpmt:wlocale.obj
 0001:0011a6db       ?_Fput@?$num_put@GV?$ostreambuf_iterator@GU?$char_traits@G@std@@@std@@@std@@ABA?AV?$ostreambuf_iterator@GU?$char_traits@G@std@@@2@V32@AAVios_base@2@GPBDI@Z 0051b6db f i libcpmt:wlocale.obj
 0001:0011a9e9       ?_Fput@?$num_put@_WV?$ostreambuf_iterator@_WU?$char_traits@_W@std@@@std@@@std@@ABA?AV?$ostreambuf_iterator@_WU?$char_traits@_W@std@@@2@V32@AAVios_base@2@_WPBDI@Z 0051b9e9 f i libcpmt:wlocale.obj
 0001:0011acf7       ?_Get_data@?$_String_alloc@U?$_String_base_types@GV?$allocator@G@std@@@std@@@std@@QAEAAV?$_String_val@U?$_Simple_types@G@std@@@2@XZ 0051bcf7 f i libcpmt:wlocale.obj
 0001:0011acfa       ?_Get_data@?$_String_alloc@U?$_String_base_types@GV?$allocator@G@std@@@std@@@std@@QBEABV?$_String_val@U?$_Simple_types@G@std@@@2@XZ 0051bcfa f i libcpmt:wlocale.obj
 0001:0011acfd       ?_Get_first@?$_Compressed_pair@V?$allocator@G@std@@V?$_String_val@U?$_Simple_types@G@std@@@2@$00@std@@QAEAAV?$allocator@G@2@XZ 0051bcfd f i libcpmt:wlocale.obj
 0001:0011ad00       ?_Get_first@?$_Compressed_pair@V?$allocator@G@std@@V?$_String_val@U?$_Simple_types@G@std@@@2@$00@std@@QBEABV?$allocator@G@2@XZ 0051bd00 f i libcpmt:wlocale.obj
 0001:0011ad03       ?_Get_second@?$_Compressed_pair@V?$allocator@G@std@@V?$_String_val@U?$_Simple_types@G@std@@@2@$00@std@@QAEAAV?$_String_val@U?$_Simple_types@G@std@@@2@XZ 0051bd03 f i libcpmt:wlocale.obj
 0001:0011ad06       ?_Get_second@?$_Compressed_pair@V?$allocator@G@std@@V?$_String_val@U?$_Simple_types@G@std@@@2@$00@std@@QBEABV?$_String_val@U?$_Simple_types@G@std@@@2@XZ 0051bd06 f i libcpmt:wlocale.obj
 0001:0011ad09       ?_Getal@?$_String_alloc@U?$_String_base_types@GV?$allocator@G@std@@@std@@@std@@QAEAAV?$allocator@G@2@XZ 0051bd09 f i libcpmt:wlocale.obj
 0001:0011ad0c       ?_Getal@?$_String_alloc@U?$_String_base_types@GV?$allocator@G@std@@@std@@@std@@QBEABV?$allocator@G@2@XZ 0051bd0c f i libcpmt:wlocale.obj
 0001:0011ad0f       ?_Getcat@?$codecvt@GDU_Mbstatet@@@std@@SAIPAPBVfacet@locale@2@PBV42@@Z 0051bd0f f i libcpmt:wlocale.obj
 0001:0011ad75       ?_Getcat@?$codecvt@_WDU_Mbstatet@@@std@@SAIPAPBVfacet@locale@2@PBV42@@Z 0051bd75 f i libcpmt:wlocale.obj
 0001:0011addb       ?_Getcat@?$collate@G@std@@SAIPAPBVfacet@locale@2@PBV42@@Z 0051bddb f i libcpmt:wlocale.obj
 0001:0011ae7d       ?_Getcat@?$collate@_W@std@@SAIPAPBVfacet@locale@2@PBV42@@Z 0051be7d f i libcpmt:wlocale.obj
 0001:0011af1f       ?_Getcat@?$ctype@G@std@@SAIPAPBVfacet@locale@2@PBV42@@Z 0051bf1f f i libcpmt:wlocale.obj
 0001:0011af8f       ?_Getcat@?$ctype@_W@std@@SAIPAPBVfacet@locale@2@PBV42@@Z 0051bf8f f i libcpmt:wlocale.obj
 0001:0011afff       ?_Getcat@?$messages@G@std@@SAIPAPBVfacet@locale@2@PBV42@@Z 0051bfff f i libcpmt:wlocale.obj
 0001:0011b067       ?_Getcat@?$messages@_W@std@@SAIPAPBVfacet@locale@2@PBV42@@Z 0051c067 f i libcpmt:wlocale.obj
 0001:0011b0cf       ?_Getcat@?$money_get@GV?$istreambuf_iterator@GU?$char_traits@G@std@@@std@@@std@@SAIPAPBVfacet@locale@2@PBV42@@Z 0051c0cf f i libcpmt:wlocale.obj
 0001:0011b137       ?_Getcat@?$money_get@_WV?$istreambuf_iterator@_WU?$char_traits@_W@std@@@std@@@std@@SAIPAPBVfacet@locale@2@PBV42@@Z 0051c137 f i libcpmt:wlocale.obj
 0001:0011b19f       ?_Getcat@?$money_put@GV?$ostreambuf_iterator@GU?$char_traits@G@std@@@std@@@std@@SAIPAPBVfacet@locale@2@PBV42@@Z 0051c19f f i libcpmt:wlocale.obj
 0001:0011b207       ?_Getcat@?$money_put@_WV?$ostreambuf_iterator@_WU?$char_traits@_W@std@@@std@@@std@@SAIPAPBVfacet@locale@2@PBV42@@Z 0051c207 f i libcpmt:wlocale.obj
 0001:0011b26f       ?_Getcat@?$moneypunct@G$00@std@@SAIPAPBVfacet@locale@2@PBV42@@Z 0051c26f f i libcpmt:wlocale.obj
 0001:0011b2f3       ?_Getcat@?$moneypunct@G$0A@@std@@SAIPAPBVfacet@locale@2@PBV42@@Z 0051c2f3 f i libcpmt:wlocale.obj
 0001:0011b378       ?_Getcat@?$moneypunct@_W$00@std@@SAIPAPBVfacet@locale@2@PBV42@@Z 0051c378 f i libcpmt:wlocale.obj
 0001:0011b3fc       ?_Getcat@?$moneypunct@_W$0A@@std@@SAIPAPBVfacet@locale@2@PBV42@@Z 0051c3fc f i libcpmt:wlocale.obj
 0001:0011b481       ?_Getcat@?$num_get@GV?$istreambuf_iterator@GU?$char_traits@G@std@@@std@@@std@@SAIPAPBVfacet@locale@2@PBV42@@Z 0051c481 f i libcpmt:wlocale.obj
 0001:0011b4e9       ?_Getcat@?$num_get@_WV?$istreambuf_iterator@_WU?$char_traits@_W@std@@@std@@@std@@SAIPAPBVfacet@locale@2@PBV42@@Z 0051c4e9 f i libcpmt:wlocale.obj
 0001:0011b551       ?_Getcat@?$num_put@GV?$ostreambuf_iterator@GU?$char_traits@G@std@@@std@@@std@@SAIPAPBVfacet@locale@2@PBV42@@Z 0051c551 f i libcpmt:wlocale.obj
 0001:0011b5b9       ?_Getcat@?$num_put@_WV?$ostreambuf_iterator@_WU?$char_traits@_W@std@@@std@@@std@@SAIPAPBVfacet@locale@2@PBV42@@Z 0051c5b9 f i libcpmt:wlocale.obj
 0001:0011b621       ?_Getcat@?$numpunct@G@std@@SAIPAPBVfacet@locale@2@PBV42@@Z 0051c621 f i libcpmt:wlocale.obj
 0001:0011b69c       ?_Getcat@?$numpunct@_W@std@@SAIPAPBVfacet@locale@2@PBV42@@Z 0051c69c f i libcpmt:wlocale.obj
 0001:0011b717       ?_Getcat@?$time_get@GV?$istreambuf_iterator@GU?$char_traits@G@std@@@std@@@std@@SAIPAPBVfacet@locale@2@PBV42@@Z 0051c717 f i libcpmt:wlocale.obj
 0001:0011b783       ?_Getcat@?$time_get@_WV?$istreambuf_iterator@_WU?$char_traits@_W@std@@@std@@@std@@SAIPAPBVfacet@locale@2@PBV42@@Z 0051c783 f i libcpmt:wlocale.obj
 0001:0011b7ef       ?_Getcat@?$time_put@GV?$ostreambuf_iterator@GU?$char_traits@G@std@@@std@@@std@@SAIPAPBVfacet@locale@2@PBV42@@Z 0051c7ef f i libcpmt:wlocale.obj
 0001:0011b855       ?_Getcat@?$time_put@_WV?$ostreambuf_iterator@_WU?$char_traits@_W@std@@@std@@@std@@SAIPAPBVfacet@locale@2@PBV42@@Z 0051c855 f i libcpmt:wlocale.obj
 0001:0011b8bb       ?_Getcoll@_Locinfo@std@@QBE?AU_Collvec@@XZ 0051c8bb f i libcpmt:wlocale.obj
 0001:0011b8d1       ?_Getdateorder@_Locinfo@std@@QBEHXZ 0051c8d1 f i libcpmt:wlocale.obj
 0001:0011b8d6       ?_Getdays@_Locinfo@std@@QBEPBDXZ 0051c8d6 f i libcpmt:wlocale.obj
 0001:0011b904       ?_Getffld@?$num_get@GV?$istreambuf_iterator@GU?$char_traits@G@std@@@std@@@std@@ABAHPADAAV?$istreambuf_iterator@GU?$char_traits@G@std@@@2@1AAVios_base@2@PAH@Z 0051c904 f i libcpmt:wlocale.obj
 0001:0011bfde       ?_Getffld@?$num_get@_WV?$istreambuf_iterator@_WU?$char_traits@_W@std@@@std@@@std@@ABAHPADAAV?$istreambuf_iterator@_WU?$char_traits@_W@std@@@2@1AAVios_base@2@PAH@Z 0051cfde f i libcpmt:wlocale.obj
 0001:0011c6b8       ?_Getffldx@?$num_get@GV?$istreambuf_iterator@GU?$char_traits@G@std@@@std@@@std@@ABAHPADAAV?$istreambuf_iterator@GU?$char_traits@G@std@@@2@1AAVios_base@2@PAH@Z 0051d6b8 f i libcpmt:wlocale.obj
 0001:0011ce1b       ?_Getffldx@?$num_get@_WV?$istreambuf_iterator@_WU?$char_traits@_W@std@@@std@@@std@@ABAHPADAAV?$istreambuf_iterator@_WU?$char_traits@_W@std@@@2@1AAVios_base@2@PAH@Z 0051de1b f i libcpmt:wlocale.obj
 0001:0011d57e       ?_Getfmt@?$time_get@GV?$istreambuf_iterator@GU?$char_traits@G@std@@@std@@@std@@IBE?AV?$istreambuf_iterator@GU?$char_traits@G@std@@@2@V32@0AAVios_base@2@AAHPAUtm@@PBD@Z 0051e57e f i libcpmt:wlocale.obj
 0001:0011d6d3       ?_Getfmt@?$time_get@_WV?$istreambuf_iterator@_WU?$char_traits@_W@std@@@std@@@std@@IBE?AV?$istreambuf_iterator@_WU?$char_traits@_W@std@@@2@V32@0AAVios_base@2@AAHPAUtm@@PBD@Z 0051e6d3 f i libcpmt:wlocale.obj
 0001:0011d828       ?_Getifld@?$num_get@GV?$istreambuf_iterator@GU?$char_traits@G@std@@@std@@@std@@ABAHPADAAV?$istreambuf_iterator@GU?$char_traits@G@std@@@2@1HABVlocale@2@@Z 0051e828 f i libcpmt:wlocale.obj
 0001:0011dc06       ?_Getifld@?$num_get@_WV?$istreambuf_iterator@_WU?$char_traits@_W@std@@@std@@@std@@ABAHPADAAV?$istreambuf_iterator@_WU?$char_traits@_W@std@@@2@1HABVlocale@2@@Z 0051ec06 f i libcpmt:wlocale.obj
 0001:0011dfe4       ?_Getint@?$time_get@GV?$istreambuf_iterator@GU?$char_traits@G@std@@@std@@@std@@ABAHAAV?$istreambuf_iterator@GU?$char_traits@G@std@@@2@0HHAAHABV?$ctype@G@2@@Z 0051efe4 f i libcpmt:wlocale.obj
 0001:0011e194       ?_Getint@?$time_get@_WV?$istreambuf_iterator@_WU?$char_traits@_W@std@@@std@@@std@@ABAHAAV?$istreambuf_iterator@_WU?$char_traits@_W@std@@@2@0HHAAHABV?$ctype@_W@2@@Z 0051f194 f i libcpmt:wlocale.obj
 0001:0011e344       ?_Getmfld@?$money_get@GV?$istreambuf_iterator@GU?$char_traits@G@std@@@std@@@std@@ABE?AV?$basic_string@DU?$char_traits@D@std@@V?$allocator@D@2@@2@AAV?$istreambuf_iterator@GU?$char_traits@G@std@@@2@0_NAAVios_base@2@AAY0M@G@Z 0051f344 f i libcpmt:wlocale.obj
 0001:0011ed47       ?_Getmfld@?$money_get@_WV?$istreambuf_iterator@_WU?$char_traits@_W@std@@@std@@@std@@ABE?AV?$basic_string@DU?$char_traits@D@std@@V?$allocator@D@2@@2@AAV?$istreambuf_iterator@_WU?$char_traits@_W@std@@@2@0_NAAVios_base@2@AAY0M@_W@Z 0051fd47 f i libcpmt:wlocale.obj
 0001:0011f74a       ?_Getmonths@_Locinfo@std@@QBEPBDXZ 0052074a f i libcpmt:wlocale.obj
 0001:0011f778       ?_Getptr@_Timevec@std@@QBEPAXXZ 00520778 f i libcpmt:wlocale.obj
 0001:0011f77b       ?_Getvals@?$_Mpunct@_W@std@@IAEX_WPBUlconv@@@Z 0052077b f i libcpmt:wlocale.obj
 0001:0011f7e7       ?_Getvals@?$numpunct@_W@std@@IAEX_WPBUlconv@@U_Cvtvec@@@Z 005207e7 f i libcpmt:wlocale.obj
 0001:0011f805       ?_Gnavail@?$basic_streambuf@GU?$char_traits@G@std@@@std@@IBE_JXZ 00520805 f i libcpmt:wlocale.obj
 0001:0011f817       ?_Gnavail@?$basic_streambuf@_WU?$char_traits@_W@std@@@std@@IBE_JXZ 00520817 f i libcpmt:wlocale.obj
 0001:0011f829       ?_Gninc@?$basic_streambuf@GU?$char_traits@G@std@@@std@@IAEPAGXZ 00520829 f i libcpmt:wlocale.obj
 0001:0011f839       ?_Gninc@?$basic_streambuf@_WU?$char_traits@_W@std@@@std@@IAEPA_WXZ 00520839 f i libcpmt:wlocale.obj
 0001:0011f849       ?_Ifmt@?$num_put@GV?$ostreambuf_iterator@GU?$char_traits@G@std@@@std@@@std@@ABAPADPADPBDH@Z 00520849 f i libcpmt:wlocale.obj
 0001:0011f8be       ?_Ifmt@?$num_put@_WV?$ostreambuf_iterator@_WU?$char_traits@_W@std@@@std@@@std@@ABAPADPADPBDH@Z 005208be f i libcpmt:wlocale.obj
 0001:0011f933       ?_Inc@?$istreambuf_iterator@GU?$char_traits@G@std@@@std@@AAEXXZ 00520933 f i libcpmt:wlocale.obj
 0001:0011f959       ?_Inc@?$istreambuf_iterator@_WU?$char_traits@_W@std@@@std@@AAEXXZ 00520959 f i libcpmt:wlocale.obj
 0001:0011f97f       ?_Init@?$_Mpunct@G@std@@IAEXABV_Locinfo@2@_N@Z 0052097f f i libcpmt:wlocale.obj
 0001:0011fa55       ?_Init@?$_Mpunct@_W@std@@IAEXABV_Locinfo@2@_N@Z 00520a55 f i libcpmt:wlocale.obj
 0001:0011fb2b       ?_Init@?$codecvt@GDU_Mbstatet@@@std@@IAEXABV_Locinfo@2@@Z 00520b2b f i libcpmt:wlocale.obj
 0001:0011fb4f       ?_Init@?$codecvt@_WDU_Mbstatet@@@std@@IAEXABV_Locinfo@2@@Z 00520b4f f i libcpmt:wlocale.obj
 0001:0011fb73       ?_Init@?$collate@G@std@@IAEXABV_Locinfo@2@@Z 00520b73 f i libcpmt:wlocale.obj
 0001:0011fb85       ?_Init@?$collate@_W@std@@IAEXABV_Locinfo@2@@Z 00520b85 f i libcpmt:wlocale.obj
 0001:0011fb97       ?_Init@?$ctype@G@std@@IAEXABV_Locinfo@2@@Z 00520b97 f i libcpmt:wlocale.obj
 0001:0011fbd0       ?_Init@?$ctype@_W@std@@IAEXABV_Locinfo@2@@Z 00520bd0 f i libcpmt:wlocale.obj
 0001:0011fc09       ?_Init@?$messages@G@std@@IAEXABV_Locinfo@2@@Z 00520c09 f i libcpmt:wlocale.obj
 0001:0011fc0c       ?_Init@?$messages@_W@std@@IAEXABV_Locinfo@2@@Z 00520c0c f i libcpmt:wlocale.obj
 0001:0011fc0f       ?_Init@?$money_get@GV?$istreambuf_iterator@GU?$char_traits@G@std@@@std@@@std@@IAEXABV_Locinfo@2@@Z 00520c0f f i libcpmt:wlocale.obj
 0001:0011fc12       ?_Init@?$money_get@_WV?$istreambuf_iterator@_WU?$char_traits@_W@std@@@std@@@std@@IAEXABV_Locinfo@2@@Z 00520c12 f i libcpmt:wlocale.obj
 0001:0011fc15       ?_Init@?$money_put@GV?$ostreambuf_iterator@GU?$char_traits@G@std@@@std@@@std@@IAEXABV_Locinfo@2@@Z 00520c15 f i libcpmt:wlocale.obj
 0001:0011fc18       ?_Init@?$money_put@_WV?$ostreambuf_iterator@_WU?$char_traits@_W@std@@@std@@@std@@IAEXABV_Locinfo@2@@Z 00520c18 f i libcpmt:wlocale.obj
 0001:0011fc1b       ?_Init@?$num_get@GV?$istreambuf_iterator@GU?$char_traits@G@std@@@std@@@std@@IAEXABV_Locinfo@2@@Z 00520c1b f i libcpmt:wlocale.obj
 0001:0011fc1e       ?_Init@?$num_get@_WV?$istreambuf_iterator@_WU?$char_traits@_W@std@@@std@@@std@@IAEXABV_Locinfo@2@@Z 00520c1e f i libcpmt:wlocale.obj
 0001:0011fc21       ?_Init@?$num_put@GV?$ostreambuf_iterator@GU?$char_traits@G@std@@@std@@@std@@IAEXABV_Locinfo@2@@Z 00520c21 f i libcpmt:wlocale.obj
 0001:0011fc24       ?_Init@?$num_put@_WV?$ostreambuf_iterator@_WU?$char_traits@_W@std@@@std@@@std@@IAEXABV_Locinfo@2@@Z 00520c24 f i libcpmt:wlocale.obj
 0001:0011fc27       ?_Init@?$numpunct@G@std@@IAEXABV_Locinfo@2@_N@Z 00520c27 f i libcpmt:wlocale.obj
 0001:0011fd20       ?_Init@?$numpunct@_W@std@@IAEXABV_Locinfo@2@_N@Z 00520d20 f i libcpmt:wlocale.obj
 0001:0011fe14       ?_Init@?$time_get@GV?$istreambuf_iterator@GU?$char_traits@G@std@@@std@@@std@@IAEXABV_Locinfo@2@@Z 00520e14 f i libcpmt:wlocale.obj
 0001:0011fe5e       ?_Init@?$time_get@_WV?$istreambuf_iterator@_WU?$char_traits@_W@std@@@std@@@std@@IAEXABV_Locinfo@2@@Z 00520e5e f i libcpmt:wlocale.obj
 0001:0011fea8       ?_Init@?$time_put@GV?$ostreambuf_iterator@GU?$char_traits@G@std@@@std@@@std@@IAEXABV_Locinfo@2@@Z 00520ea8 f i libcpmt:wlocale.obj
 0001:0011febf       ?_Init@?$time_put@_WV?$ostreambuf_iterator@_WU?$char_traits@_W@std@@@std@@@std@@IAEXABV_Locinfo@2@@Z 00520ebf f i libcpmt:wlocale.obj
 0001:0011fed6       ?_Iput@?$num_put@GV?$ostreambuf_iterator@GU?$char_traits@G@std@@@std@@@std@@ABA?AV?$ostreambuf_iterator@GU?$char_traits@G@std@@@2@V32@AAVios_base@2@GPADI@Z 00520ed6 f i libcpmt:wlocale.obj
 0001:0012017a       ?_Iput@?$num_put@_WV?$ostreambuf_iterator@_WU?$char_traits@_W@std@@@std@@@std@@ABA?AV?$ostreambuf_iterator@_WU?$char_traits@_W@std@@@2@V32@AAVios_base@2@_WPADI@Z 0052117a f i libcpmt:wlocale.obj
 0001:0012041e       ?_Large_string_engaged@?$_String_val@U?$_Simple_types@G@std@@@std@@QBE_NXZ 0052141e f i libcpmt:wlocale.obj
 0001:00120427       ?_Makeushloc@_Locimp@locale@std@@CAXABV_Locinfo@3@HPAV123@PBV23@@Z 00521427 f   libcpmt:wlocale.obj
 0001:00120948       ?_Makewloc@_Locimp@locale@std@@CAXABV_Locinfo@3@HPAV123@PBV23@@Z 00521948 f   libcpmt:wlocale.obj
 0001:00120e69       ?_Maklocwcs@std@@YAPA_WPB_W@Z 00521e69 f i libcpmt:wlocale.obj
 0001:00120eb2       ?_Makpat@?$_Mpunct@G@std@@AAEXAAUpattern@money_base@2@III@Z 00521eb2 f i libcpmt:wlocale.obj
 0001:00120ef3       ?_Makpat@?$_Mpunct@_W@std@@AAEXAAUpattern@money_base@2@III@Z 00521ef3 f i libcpmt:wlocale.obj
 0001:00120f34       ?_Move_alloc@?$_String_alloc@U?$_String_base_types@GV?$allocator@G@std@@@std@@@std@@QAEXAAV?$allocator@G@2@@Z 00521f34 f i libcpmt:wlocale.obj
 0001:00120f37       ?_Move_alloc@?$_String_alloc@U?$_String_base_types@_WV?$allocator@_W@std@@@std@@@std@@QAEXAAV?$allocator@_W@2@@Z 00521f37 f i libcpmt:wlocale.obj
 0001:00120f3a       ?_Myptr@?$_String_val@U?$_Simple_types@G@std@@@std@@QAEPAGXZ 00521f3a f i libcpmt:wlocale.obj
 0001:00120f45       ?_Myptr@?$_String_val@U?$_Simple_types@G@std@@@std@@QBEPBGXZ 00521f45 f i libcpmt:wlocale.obj
 0001:00120f50       ?_Myptr@?$_String_val@U?$_Simple_types@_W@std@@@std@@QBEPB_WXZ 00521f50 f i libcpmt:wlocale.obj
 0001:00120f5b       ?_Orphan_all@?$_String_alloc@U?$_String_base_types@GV?$allocator@G@std@@@std@@@std@@QAEXXZ 00521f5b f i libcpmt:wlocale.obj
 0001:00120f5c       ?_Peek@?$istreambuf_iterator@GU?$char_traits@G@std@@@std@@ABEGXZ 00521f5c f i libcpmt:wlocale.obj
 0001:00120f8a       ?_Peek@?$istreambuf_iterator@_WU?$char_traits@_W@std@@@std@@ABE_WXZ 00521f8a f i libcpmt:wlocale.obj
 0001:00120fb8       ?_Pnavail@?$basic_streambuf@GU?$char_traits@G@std@@@std@@IBE_JXZ 00521fb8 f i libcpmt:wlocale.obj
 0001:00120fca       ?_Pnavail@?$basic_streambuf@_WU?$char_traits@_W@std@@@std@@IBE_JXZ 00521fca f i libcpmt:wlocale.obj
 0001:00120fdc       ?_Pninc@?$basic_streambuf@GU?$char_traits@G@std@@@std@@IAEPAGXZ 00521fdc f i libcpmt:wlocale.obj
 0001:00120fec       ?_Pninc@?$basic_streambuf@_WU?$char_traits@_W@std@@@std@@IAEPA_WXZ 00521fec f i libcpmt:wlocale.obj
 0001:00120ffc       ?_Put@?$money_put@GV?$ostreambuf_iterator@GU?$char_traits@G@std@@@std@@@std@@CA?AV?$ostreambuf_iterator@GU?$char_traits@G@std@@@2@V32@V?$_String_const_iterator@V?$_String_val@U?$_Simple_types@G@std@@@std@@@2@I@Z 00521ffc f i libcpmt:wlocale.obj
 0001:00121035       ?_Put@?$money_put@_WV?$ostreambuf_iterator@_WU?$char_traits@_W@std@@@std@@@std@@CA?AV?$ostreambuf_iterator@_WU?$char_traits@_W@std@@@2@V32@V?$_String_const_iterator@V?$_String_val@U?$_Simple_types@_W@std@@@std@@@2@I@Z 00522035 f i libcpmt:wlocale.obj
 0001:0012106e       ?_Put@?$num_put@GV?$ostreambuf_iterator@GU?$char_traits@G@std@@@std@@@std@@ABA?AV?$ostreambuf_iterator@GU?$char_traits@G@std@@@2@V32@PBGI@Z 0052206e f i libcpmt:wlocale.obj
 0001:001210a3       ?_Put@?$num_put@_WV?$ostreambuf_iterator@_WU?$char_traits@_W@std@@@std@@@std@@ABA?AV?$ostreambuf_iterator@_WU?$char_traits@_W@std@@@2@V32@PB_WI@Z 005220a3 f i libcpmt:wlocale.obj
 0001:001210d8       ?_Putmfld@?$money_put@GV?$ostreambuf_iterator@GU?$char_traits@G@std@@@std@@@std@@ABE?AV?$ostreambuf_iterator@GU?$char_traits@G@std@@@2@V32@_NAAVios_base@2@G1V?$basic_string@GU?$char_traits@G@std@@V?$allocator@G@2@@2@G@Z 005220d8 f i libcpmt:wlocale.obj
 0001:0012163b       ?_Putmfld@?$money_put@_WV?$ostreambuf_iterator@_WU?$char_traits@_W@std@@@std@@@std@@ABE?AV?$ostreambuf_iterator@_WU?$char_traits@_W@std@@@2@V32@_NAAVios_base@2@_W1V?$basic_string@_WU?$char_traits@_W@std@@V?$allocator@_W@2@@2@3@Z 0052263b f i libcpmt:wlocale.obj
 0001:00121b9e       ?_Rep@?$money_put@GV?$ostreambuf_iterator@GU?$char_traits@G@std@@@std@@@std@@CA?AV?$ostreambuf_iterator@GU?$char_traits@G@std@@@2@V32@GI@Z 00522b9e f i libcpmt:wlocale.obj
 0001:00121bca       ?_Rep@?$money_put@_WV?$ostreambuf_iterator@_WU?$char_traits@_W@std@@@std@@@std@@CA?AV?$ostreambuf_iterator@_WU?$char_traits@_W@std@@@2@V32@_WI@Z 00522bca f i libcpmt:wlocale.obj
 0001:00121bf6       ?_Rep@?$num_put@GV?$ostreambuf_iterator@GU?$char_traits@G@std@@@std@@@std@@ABA?AV?$ostreambuf_iterator@GU?$char_traits@G@std@@@2@V32@GI@Z 00522bf6 f i libcpmt:wlocale.obj
 0001:00121c22       ?_Rep@?$num_put@_WV?$ostreambuf_iterator@_WU?$char_traits@_W@std@@@std@@@std@@ABA?AV?$ostreambuf_iterator@_WU?$char_traits@_W@std@@@2@V32@_WI@Z 00522c22 f i libcpmt:wlocale.obj
 0001:00121c4e       ?_Tidy@?$_Mpunct@G@std@@AAEXXZ 00522c4e f i libcpmt:wlocale.obj
 0001:00121c76       ?_Tidy@?$_Mpunct@_W@std@@AAEXXZ 00522c76 f i libcpmt:wlocale.obj
 0001:00121c9e       ?_Tidy@?$numpunct@G@std@@AAEXXZ 00522c9e f i libcpmt:wlocale.obj
 0001:00121cbe       ?_Tidy@?$numpunct@_W@std@@AAEXXZ 00522cbe f i libcpmt:wlocale.obj
 0001:00121cde       ?_Tidy@?$time_get@GV?$istreambuf_iterator@GU?$char_traits@G@std@@@std@@@std@@AAEXXZ 00522cde f i libcpmt:wlocale.obj
 0001:00121cfe       ?_Tidy@?$time_get@_WV?$istreambuf_iterator@_WU?$char_traits@_W@std@@@std@@@std@@AAEXXZ 00522cfe f i libcpmt:wlocale.obj
 0001:00121d1e       ?_Tidy_deallocate@?$basic_string@GU?$char_traits@G@std@@V?$allocator@G@2@@std@@QAEXXZ 00522d1e f i libcpmt:wlocale.obj
 0001:00121d4c       ?_Tidy_init@?$basic_string@GU?$char_traits@G@std@@V?$allocator@G@2@@std@@QAEXXZ 00522d4c f i libcpmt:wlocale.obj
 0001:00121d5d       ?_W_Getdays@_Locinfo@std@@QBEPBGXZ 00522d5d f i libcpmt:wlocale.obj
 0001:00121d8b       ?_W_Getmonths@_Locinfo@std@@QBEPBGXZ 00522d8b f i libcpmt:wlocale.obj
 0001:00121db9       ?_W_Gettnames@_Locinfo@std@@QBE?AV_Timevec@2@XZ 00522db9 f i libcpmt:wlocale.obj
 0001:00121dcc       ?_Xlen@?$basic_string@GU?$char_traits@G@std@@V?$allocator@G@2@@std@@SAXXZ 00522dcc f i libcpmt:wlocale.obj
 0001:00121dd7       ?_Xran@?$_String_val@U?$_Simple_types@G@std@@@std@@SAXXZ 00522dd7 f i libcpmt:wlocale.obj
 0001:00121de2       ?_Xran@?$_String_val@U?$_Simple_types@_W@std@@@std@@SAXXZ 00522de2 f i libcpmt:wlocale.obj
 0001:00121ded       ?allocate@?$allocator@G@std@@QAEPAGI@Z 00522ded f i libcpmt:wlocale.obj
 0001:00121e0b       ?append@?$basic_string@GU?$char_traits@G@std@@V?$allocator@G@2@@std@@QAEAAV12@ABV12@@Z 00522e0b f i libcpmt:wlocale.obj
 0001:00121e28       ?append@?$basic_string@GU?$char_traits@G@std@@V?$allocator@G@2@@std@@QAEAAV12@IG@Z 00522e28 f i libcpmt:wlocale.obj
 0001:00121e84       ?append@?$basic_string@GU?$char_traits@G@std@@V?$allocator@G@2@@std@@QAEAAV12@QBGI@Z 00522e84 f i libcpmt:wlocale.obj
 0001:00121ee3       ?append@?$basic_string@_WU?$char_traits@_W@std@@V?$allocator@_W@2@@std@@QAEAAV12@ABV12@@Z 00522ee3 f i libcpmt:wlocale.obj
 0001:00121f00       ?append@?$basic_string@_WU?$char_traits@_W@std@@V?$allocator@_W@2@@std@@QAEAAV12@I_W@Z 00522f00 f i libcpmt:wlocale.obj
 0001:00121f5c       ?append@?$basic_string@_WU?$char_traits@_W@std@@V?$allocator@_W@2@@std@@QAEAAV12@QB_WI@Z 00522f5c f i libcpmt:wlocale.obj
 0001:00121fbb       ?assign@?$_WChar_traits@G@std@@SAPAGQAGIG@Z 00522fbb f i libcpmt:wlocale.obj
 0001:00121fd1       ?assign@?$_WChar_traits@G@std@@SAXAAGABG@Z 00522fd1 f i libcpmt:wlocale.obj
 0001:00121fe2       ?assign@?$basic_string@GU?$char_traits@G@std@@V?$allocator@G@2@@std@@QAEAAV12@$$QAV12@@Z 00522fe2 f i libcpmt:wlocale.obj
 0001:00121ff7       ?assign@?$basic_string@GU?$char_traits@G@std@@V?$allocator@G@2@@std@@QAEAAV12@IG@Z 00522ff7 f i libcpmt:wlocale.obj
 0001:00122043       ?assign@?$basic_string@GU?$char_traits@G@std@@V?$allocator@G@2@@std@@QAEAAV12@QBG@Z 00523043 f i libcpmt:wlocale.obj
 0001:0012206c       ?assign@?$basic_string@GU?$char_traits@G@std@@V?$allocator@G@2@@std@@QAEAAV12@QBGI@Z 0052306c f i libcpmt:wlocale.obj
 0001:001220bb       ?assign@?$basic_string@_WU?$char_traits@_W@std@@V?$allocator@_W@2@@std@@QAEAAV12@$$QAV12@@Z 005230bb f i libcpmt:wlocale.obj
 0001:001220d0       ?assign@?$basic_string@_WU?$char_traits@_W@std@@V?$allocator@_W@2@@std@@QAEAAV12@QB_W@Z 005230d0 f i libcpmt:wlocale.obj
 0001:001220f7       ?assign@?$basic_string@_WU?$char_traits@_W@std@@V?$allocator@_W@2@@std@@QAEAAV12@QB_WI@Z 005230f7 f i libcpmt:wlocale.obj
 0001:00122146       ?begin@?$basic_string@GU?$char_traits@G@std@@V?$allocator@G@2@@std@@QAE?AV?$_String_iterator@V?$_String_val@U?$_Simple_types@G@std@@@std@@@2@XZ 00523146 f i libcpmt:wlocale.obj
 0001:0012215a       ?begin@?$basic_string@_WU?$char_traits@_W@std@@V?$allocator@_W@2@@std@@QAE?AV?$_String_iterator@V?$_String_val@U?$_Simple_types@_W@std@@@std@@@2@XZ 0052315a f i libcpmt:wlocale.obj
 0001:0012216e       ?c_str@?$basic_string@GU?$char_traits@G@std@@V?$allocator@G@2@@std@@QBEPBGXZ 0052316e f i libcpmt:wlocale.obj
 0001:00122179       ?c_str@?$basic_string@_WU?$char_traits@_W@std@@V?$allocator@_W@2@@std@@QBEPB_WXZ 00523179 f i libcpmt:wlocale.obj
 0001:00122184       ?copy@?$_WChar_traits@G@std@@SAPAGQAGQBGI@Z 00523184 f i libcpmt:wlocale.obj
 0001:0012219d       ?copy@?$_WChar_traits@_W@std@@SAPA_WQA_WQB_WI@Z 0052319d f i libcpmt:wlocale.obj
 0001:001221b6       ?curr_symbol@?$_Mpunct@G@std@@QBE?AV?$basic_string@GU?$char_traits@G@std@@V?$allocator@G@2@@2@XZ 005231b6 f i libcpmt:wlocale.obj
 0001:001221da       ?curr_symbol@?$_Mpunct@_W@std@@QBE?AV?$basic_string@_WU?$char_traits@_W@std@@V?$allocator@_W@2@@2@XZ 005231da f i libcpmt:wlocale.obj
 0001:001221fe       ?date_order@?$time_get@GV?$istreambuf_iterator@GU?$char_traits@G@std@@@std@@@std@@QBE?AW4dateorder@time_base@2@XZ 005231fe f i libcpmt:wlocale.obj
 0001:00122216       ?date_order@?$time_get@_WV?$istreambuf_iterator@_WU?$char_traits@_W@std@@@std@@@std@@QBE?AW4dateorder@time_base@2@XZ 00523216 f i libcpmt:wlocale.obj
 0001:0012222e       ?deallocate@?$allocator@G@std@@QAEXQAGI@Z 0052322e f i libcpmt:wlocale.obj
 0001:00122245       ?decimal_point@?$_Mpunct@G@std@@QBEGXZ 00523245 f i libcpmt:wlocale.obj
 0001:0012225d       ?decimal_point@?$_Mpunct@_W@std@@QBE_WXZ 0052325d f i libcpmt:wlocale.obj
 0001:00122275       ?decimal_point@?$numpunct@G@std@@QBEGXZ 00523275 f i libcpmt:wlocale.obj
 0001:0012228d       ?decimal_point@?$numpunct@_W@std@@QBE_WXZ 0052328d f i libcpmt:wlocale.obj
 0001:001222a5       ?do_always_noconv@?$codecvt@GDU_Mbstatet@@@std@@MBE_NXZ 005232a5 f i libcpmt:wlocale.obj
 0001:001222a8       ?do_always_noconv@?$codecvt@_WDU_Mbstatet@@@std@@MBE_NXZ 005232a8 f i libcpmt:wlocale.obj
 0001:001222ab       ?do_close@?$messages@G@std@@MBEXH@Z 005232ab f i libcpmt:wlocale.obj
 0001:001222ae       ?do_close@?$messages@_W@std@@MBEXH@Z 005232ae f i libcpmt:wlocale.obj
 0001:001222b1       ?do_compare@?$collate@G@std@@MBEHPBG000@Z 005232b1 f i libcpmt:wlocale.obj
 0001:001222e2       ?do_compare@?$collate@_W@std@@MBEHPB_W000@Z 005232e2 f i libcpmt:wlocale.obj
 0001:00122313       ?do_curr_symbol@?$_Mpunct@G@std@@MBE?AV?$basic_string@GU?$char_traits@G@std@@V?$allocator@G@2@@2@XZ 00523313 f i libcpmt:wlocale.obj
 0001:00122328       ?do_curr_symbol@?$_Mpunct@_W@std@@MBE?AV?$basic_string@_WU?$char_traits@_W@std@@V?$allocator@_W@2@@2@XZ 00523328 f i libcpmt:wlocale.obj
 0001:0012233d       ?do_date_order@?$time_get@GV?$istreambuf_iterator@GU?$char_traits@G@std@@@std@@@std@@MBE?AW4dateorder@time_base@2@XZ 0052333d f i libcpmt:wlocale.obj
 0001:00122341       ?do_date_order@?$time_get@_WV?$istreambuf_iterator@_WU?$char_traits@_W@std@@@std@@@std@@MBE?AW4dateorder@time_base@2@XZ 00523341 f i libcpmt:wlocale.obj
 0001:00122345       ?do_decimal_point@?$_Mpunct@G@std@@MBEGXZ 00523345 f i libcpmt:wlocale.obj
 0001:0012234a       ?do_decimal_point@?$_Mpunct@_W@std@@MBE_WXZ 0052334a f i libcpmt:wlocale.obj
 0001:0012234f       ?do_decimal_point@?$numpunct@G@std@@MBEGXZ 0052334f f i libcpmt:wlocale.obj
 0001:00122354       ?do_decimal_point@?$numpunct@_W@std@@MBE_WXZ 00523354 f i libcpmt:wlocale.obj
 0001:00122359       ?do_encoding@?$codecvt@GDU_Mbstatet@@@std@@MBEHXZ 00523359 f i libcpmt:wlocale.obj
 0001:0012235c       ?do_encoding@?$codecvt@_WDU_Mbstatet@@@std@@MBEHXZ 0052335c f i libcpmt:wlocale.obj
 0001:0012235f       ?do_falsename@?$numpunct@G@std@@MBE?AV?$basic_string@GU?$char_traits@G@std@@V?$allocator@G@2@@2@XZ 0052335f f i libcpmt:wlocale.obj
 0001:00122374       ?do_falsename@?$numpunct@_W@std@@MBE?AV?$basic_string@_WU?$char_traits@_W@std@@V?$allocator@_W@2@@2@XZ 00523374 f i libcpmt:wlocale.obj
 0001:00122389       ?do_frac_digits@?$_Mpunct@G@std@@MBEHXZ 00523389 f i libcpmt:wlocale.obj
 0001:0012238d       ?do_frac_digits@?$_Mpunct@_W@std@@MBEHXZ 0052338d f i libcpmt:wlocale.obj
 0001:00122391       ?do_get@?$messages@G@std@@MBE?AV?$basic_string@GU?$char_traits@G@std@@V?$allocator@G@2@@2@HHHABV32@@Z 00523391 f i libcpmt:wlocale.obj
 0001:001223b1       ?do_get@?$messages@_W@std@@MBE?AV?$basic_string@_WU?$char_traits@_W@std@@V?$allocator@_W@2@@2@HHHABV32@@Z 005233b1 f i libcpmt:wlocale.obj
 0001:001223d1       ?do_get@?$money_get@GV?$istreambuf_iterator@GU?$char_traits@G@std@@@std@@@std@@MBE?AV?$istreambuf_iterator@GU?$char_traits@G@std@@@2@V32@0_NAAVios_base@2@AAHAAO@Z 005233d1 f i libcpmt:wlocale.obj
 0001:00122479       ?do_get@?$money_get@GV?$istreambuf_iterator@GU?$char_traits@G@std@@@std@@@std@@MBE?AV?$istreambuf_iterator@GU?$char_traits@G@std@@@2@V32@0_NAAVios_base@2@AAHAAV?$basic_string@GU?$char_traits@G@std@@V?$allocator@G@2@@2@@Z 00523479 f i libcpmt:wlocale.obj
 0001:00122553       ?do_get@?$money_get@_WV?$istreambuf_iterator@_WU?$char_traits@_W@std@@@std@@@std@@MBE?AV?$istreambuf_iterator@_WU?$char_traits@_W@std@@@2@V32@0_NAAVios_base@2@AAHAAO@Z 00523553 f i libcpmt:wlocale.obj
 0001:001225fb       ?do_get@?$money_get@_WV?$istreambuf_iterator@_WU?$char_traits@_W@std@@@std@@@std@@MBE?AV?$istreambuf_iterator@_WU?$char_traits@_W@std@@@2@V32@0_NAAVios_base@2@AAHAAV?$basic_string@_WU?$char_traits@_W@std@@V?$allocator@_W@2@@2@@Z 005235fb f i libcpmt:wlocale.obj
 0001:001226d5       ?do_get@?$num_get@GV?$istreambuf_iterator@GU?$char_traits@G@std@@@std@@@std@@MBE?AV?$istreambuf_iterator@GU?$char_traits@G@std@@@2@V32@0AAVios_base@2@AAHAAG@Z 005236d5 f i libcpmt:wlocale.obj
 0001:001227c3       ?do_get@?$num_get@GV?$istreambuf_iterator@GU?$char_traits@G@std@@@std@@@std@@MBE?AV?$istreambuf_iterator@GU?$char_traits@G@std@@@2@V32@0AAVios_base@2@AAHAAI@Z 005237c3 f i libcpmt:wlocale.obj
 0001:00122806       ?do_get@?$num_get@GV?$istreambuf_iterator@GU?$char_traits@G@std@@@std@@@std@@MBE?AV?$istreambuf_iterator@GU?$char_traits@G@std@@@2@V32@0AAVios_base@2@AAHAAJ@Z 00523806 f i libcpmt:wlocale.obj
 0001:001228ca       ?do_get@?$num_get@GV?$istreambuf_iterator@GU?$char_traits@G@std@@@std@@@std@@MBE?AV?$istreambuf_iterator@GU?$char_traits@G@std@@@2@V32@0AAVios_base@2@AAHAAK@Z 005238ca f i libcpmt:wlocale.obj
 0001:0012298e       ?do_get@?$num_get@GV?$istreambuf_iterator@GU?$char_traits@G@std@@@std@@@std@@MBE?AV?$istreambuf_iterator@GU?$char_traits@G@std@@@2@V32@0AAVios_base@2@AAHAAM@Z 0052398e f i libcpmt:wlocale.obj
