 engqtest

 Timestamp is 5e4f5cff (Thu Feb 20 20:30:55 2020)

 Preferred load address is 00400000

 Start         Length     Name                   Class
 0001:00000000 00001af0H .text                   CODE
 0001:00001af0 00002050H .text$di                CODE
 0001:00003b40 00221ab0H .text$mn                CODE
 0001:002255f0 00009490H .text$x                 CODE
 0001:0022ea80 00002864H .text$yd                CODE
 0002:00000000 0000038cH .idata$5                DATA
 0002:0000038c 00000004H .00cfg                  DATA
 0002:00000390 00000004H .CRT$XCA                DATA
 0002:00000394 00000004H .CRT$XCAA               DATA
 0002:00000398 0000001cH .CRT$XCC                DATA
 0002:000003b4 00000008H .CRT$XCL                DATA
 0002:000003bc 00000250H .CRT$XCU                DATA
 0002:0000060c 00000004H .CRT$XCZ                DATA
 0002:00000610 00000004H .CRT$XIA                DATA
 0002:00000614 00000004H .CRT$XIAA               DATA
 0002:00000618 00000004H .CRT$XIAC               DATA
 0002:0000061c 0000001cH .CRT$XIC                DATA
 0002:00000638 00000004H .CRT$XIZ                DATA
 0002:0000063c 00000004H .CRT$XLA                DATA
 0002:00000640 00000004H .CRT$XLZ                DATA
 0002:00000644 00000004H .CRT$XPA                DATA
 0002:00000648 0000000cH .CRT$XPX                DATA
 0002:00000654 00000004H .CRT$XPXA               DATA
 0002:00000658 00000004H .CRT$XPZ                DATA
 0002:0000065c 00000004H .CRT$XTA                DATA
 0002:00000660 00000020H .CRT$XTZ                DATA
 0002:00000664 00000000H .gfids$x                DATA
 0002:00000664 00000000H .gfids$y                DATA
 0002:00000680 0003c6f0H .rdata                  DATA
 0002:0003cd70 00000018H .rdata$T                DATA
 0002:0003cd88 000040f0H .rdata$r                DATA
 0002:00040e78 000003a0H .rdata$zzzdbg           DATA
 0002:00041218 00000004H .rtc$IAA                DATA
 0002:0004121c 00000004H .rtc$IZZ                DATA
 0002:00041220 00000004H .rtc$TAA                DATA
 0002:00041224 00000004H .rtc$TZZ                DATA
 0002:00041228 00000004H .tls                    DATA
 0002:0004122c 00000004H .tls$                   DATA
 0002:00041230 00000008H .tls$ZZZ                DATA
 0002:00041238 0000c5fcH .xdata$x                DATA
 0002:0004d834 00000000H .edata                  DATA
 0002:0004d834 00000104H .idata$2                DATA
 0002:0004d938 00000014H .idata$3                DATA
 0002:0004d94c 0000038cH .idata$4                DATA
 0002:0004dcd8 00000dfcH .idata$6                DATA
 0003:00000000 0002cfd0H .data                   DATA
 0003:0002cfd0 00001850H .data$r                 DATA
 0003:0002e820 107777d4H .bss                    DATA
 0004:00000000 000008e0H _RDATA                  DATA
 0005:00000000 000000f0H .rsrc$01                DATA
 0005:000000f0 00001040H .rsrc$02                DATA

  Address         Publics by Value              Rva+Base       Lib:Object

 0000:00000000       ___safe_se_handler_table   00000000     <absolute>
 0000:00000000       ___guard_fids_count        00000000     <absolute>
 0000:00000000       ___guard_iat_count         00000000     <absolute>
 0000:00000000       ___hybrid_code_map_count   00000000     <absolute>
 0000:00000000       ___safe_se_handler_count   00000000     <absolute>
 0000:00000000       ___dynamic_value_reloc_table 00000000     <absolute>
 0000:00000000       ___guard_longjmp_table     00000000     <absolute>
 0000:00000000       ___hybrid_code_map         00000000     <absolute>
 0000:00000000       ___guard_longjmp_count     00000000     <absolute>
 0000:00000000       ___guard_fids_table        00000000     <absolute>
 0000:00000000       __except_list              00000000     <absolute>
 0000:00000000       ___hybrid_auxiliary_iat    00000000     <absolute>
 0000:00000000       ___guard_iat_table         00000000     <absolute>
 0000:00000000       ___volatile_metadata       00000000     <absolute>
 0000:00000000       ___enclave_config          00000000     <absolute>
 0000:0000002c       __tls_array                0000002c     <absolute>
 0000:00000100       ___guard_flags             00000100     <absolute>
 0000:00000000       ___ImageBase               00400000     <linker-defined>
 0001:00003b40       ?box2box@physics3d@@YAHPAUpointf3@@00@Z 00404b40 f   colutil.obj
 0001:00003c10       ?line2bplane@physics3d@@YAHPAUpointf3@@00000@Z 00404c10 f   colutil.obj
 0001:00003e40       ?line2btricull@physics3d@@YAHPAUpointf3@@00000@Z 00404e40 f   colutil.obj
 0001:000040b0       ?plane2plane@physics3d@@YAHPAUpointf3@@00@Z 004050b0 f   colutil.obj
 0001:00004780       ?getbotkey@@YAXH@Z         00405780 f   n_ai.obj
 0001:00004970       ??$_Destroy_range@V?$allocator@Unfs_player@nfs_shell@@@std@@@std@@YAXPAUnfs_player@nfs_shell@@0AAV?$allocator@Unfs_player@nfs_shell@@@0@@Z 00405970 f i nfs_entername.obj
 0001:00004970       ??$_Destroy_range@V?$allocator@V?$basic_string@DU?$char_traits@D@std@@V?$allocator@D@2@@std@@@std@@@std@@YAXPAV?$basic_string@DU?$char_traits@D@std@@V?$allocator@D@2@@0@0AAV?$allocator@V?$basic_string@DU?$char_traits@D@std@@V?$allocator@D@2@@std@@@0@@Z 00405970 f i n_carclass.obj
 0001:000049e0       ??$_Emplace_reallocate@V?$basic_string@DU?$char_traits@D@std@@V?$allocator@D@2@@std@@@?$vector@V?$basic_string@DU?$char_traits@D@std@@V?$allocator@D@2@@std@@V?$allocator@V?$basic_string@DU?$char_traits@D@std@@V?$allocator@D@2@@std@@@2@@std@@QAEPAV?$basic_string@DU?$char_traits@D@std@@V?$allocator@D@2@@1@QAV21@$$QAV21@@Z 004059e0 f i n_carclass.obj
 0001:00004b70       ??$_Uninitialized_move@PAV?$basic_string@DU?$char_traits@D@std@@V?$allocator@D@2@@std@@PAV12@V?$allocator@V?$basic_string@DU?$char_traits@D@std@@V?$allocator@D@2@@std@@@2@@std@@YAPAV?$basic_string@DU?$char_traits@D@std@@V?$allocator@D@2@@0@QAV10@0PAV10@AAV?$allocator@V?$basic_string@DU?$char_traits@D@std@@V?$allocator@D@2@@std@@@0@@Z 00405b70 f i n_carclass.obj
 0001:00004b70       ??$_Uninitialized_move@PAUnfs_player@nfs_shell@@PAU12@V?$allocator@Unfs_player@nfs_shell@@@std@@@std@@YAPAUnfs_player@nfs_shell@@QAU12@0PAU12@AAV?$allocator@Unfs_player@nfs_shell@@@0@@Z 00405b70 f i nfs_entername.obj
 0001:00004be0       ??0n_carclass@@QAE@PBD@Z   00405be0 f   n_carclass.obj
 0001:00004d60       ??1trackinf@@QAE@XZ        00405d60 f i gameinfo.obj
 0001:00004d60       ??1debinfo@@QAE@XZ         00405d60 f i engq:m_debp.obj
 0001:00004d60       ??1?$basic_string@DU?$char_traits@D@std@@V?$allocator@D@2@@std@@QAE@XZ 00405d60 f i n_carclass.obj
 0001:00004d60       ??1challengerinf@@QAE@XZ   00405d60 f i gameinfo.obj
 0001:00004d60       ?_Tidy_deallocate@?$basic_string@DU?$char_traits@D@std@@V?$allocator@D@2@@std@@QAEXXZ 00405d60 f i nfs_result.obj
 0001:00004d60       ??1nfs_player@nfs_shell@@QAE@XZ 00405d60 f i nfs_entername.obj
 0001:00004db0       ??1n_carclass@@QAE@XZ      00405db0 f   n_carclass.obj
 0001:00004dc0       ?_Tidy@?$vector@V?$basic_string@DU?$char_traits@D@std@@V?$allocator@D@2@@std@@V?$allocator@V?$basic_string@DU?$char_traits@D@std@@V?$allocator@D@2@@std@@@2@@std@@AAEXXZ 00405dc0 f i n_carclass.obj
 0001:00004e40       ?_Xlen@?$basic_string@DU?$char_traits@D@std@@V?$allocator@D@2@@std@@SAXXZ 00405e40 f i n_carclass.obj
 0001:00004e50       ?_Xlength@?$vector@Vboard_ttt2@@V?$allocator@Vboard_ttt2@@@std@@@std@@CAXXZ 00405e50 f i u_s_game2_ttt2.obj
 0001:00004e50       ?_Xlength@?$vector@V?$vector@V?$complex@M@std@@V?$allocator@V?$complex@M@std@@@2@@std@@V?$allocator@V?$vector@V?$complex@M@std@@V?$allocator@V?$complex@M@std@@@2@@std@@@2@@std@@CAXXZ 00405e50 f i u_qfieldui.obj
 0001:00004e50       ?_Xlength@?$vector@Udx9_mater2@model3@@V?$allocator@Udx9_mater2@model3@@@std@@@std@@CAXXZ 00405e50 f i engq:d2_dx9effectshaders.obj
 0001:00004e50       ?_Xlength@?$vector@Uface@@V?$allocator@Uface@@@std@@@std@@CAXXZ 00405e50 f i n_faceverts.obj
 0001:00004e50       ?_Xlength@?$vector@UPOS_LIN@@V?$allocator@UPOS_LIN@@@std@@@std@@CAXXZ 00405e50 f i engq:d2_bws.obj
 0001:00004e50       ?_Xlength@?$vector@UROT_BEZ@@V?$allocator@UROT_BEZ@@@std@@@std@@CAXXZ 00405e50 f i engq:d2_bws.obj
 0001:00004e50       ?_Xlength@?$vector@V?$vector@Usquarei@@V?$allocator@Usquarei@@@std@@@std@@V?$allocator@V?$vector@Usquarei@@V?$allocator@Usquarei@@@std@@@std@@@2@@std@@CAXXZ 00405e50 f i u_qr_code2scan.obj
 0001:00004e50       ?_Xlength@?$vector@Upopup_info@@V?$allocator@Upopup_info@@@std@@@std@@CAXXZ 00405e50 f i u_uiclass2.obj
 0001:00004e50       ?_Xlength@?$vector@Uturndata@@V?$allocator@Uturndata@@@std@@@std@@CAXXZ 00405e50 f i u_s_game2_endgame.obj
 0001:00004e50       ?_Xlength@?$vector@Upointf2@@V?$allocator@Upointf2@@@std@@@std@@CAXXZ 00405e50 f i u_pointcloudkdtree.obj
 0001:00004e50       ?_Xlength@?$vector@U?$undo@Vboard_foxgoose@@@@V?$allocator@U?$undo@Vboard_foxgoose@@@@@std@@@std@@CAXXZ 00405e50 f i u_s_game2_foxgoose.obj
 0001:00004e50       ?_Xlength@?$vector@Uitem@nfs_shell@@V?$allocator@Uitem@nfs_shell@@@std@@@std@@CAXXZ 00405e50 f i nfs_shell.obj
 0001:00004e50       ?_Xlength@?$vector@Usection@@V?$allocator@Usection@@@std@@@std@@CAXXZ 00405e50 f i n_newconstructor.obj
 0001:00004e50       ?_Xlength@?$vector@V?$vector@EV?$allocator@E@std@@@std@@V?$allocator@V?$vector@EV?$allocator@E@std@@@std@@@2@@std@@CAXXZ 00405e50 f i u_qr_code2parse.obj
 0001:00004e50       ?_Xlength@?$vector@Vjson@@V?$allocator@Vjson@@@std@@@std@@CAXXZ 00405e50 f i u_json.obj
 0001:00004e50       ?_Xlength@?$vector@PAVtree2@@V?$allocator@PAVtree2@@@std@@@std@@CAXXZ 00405e50 f i helperobj.obj
 0001:00004e50       ?_Xlength@?$vector@Vzee2@@V?$allocator@Vzee2@@@std@@@std@@CAXXZ 00405e50 f i engq:augmatz.obj
 0001:00004e50       ?_Xlength@?$vector@HV?$allocator@H@std@@@std@@CAXXZ 00405e50 f i n_line2road.obj
 0001:00004e50       ?_Xlength@?$vector@Vply@@V?$allocator@Vply@@@std@@@std@@CAXXZ 00405e50 f i u_ply.obj
 0001:00004e50       ?_Xlength@?$vector@UIDX3M@@V?$allocator@UIDX3M@@@std@@@std@@CAXXZ 00405e50 f i engq:m_chunk.obj
 0001:00004e50       ?_Xlength@?$vector@Uobjects@sokoban2@@V?$allocator@Uobjects@sokoban2@@@std@@@std@@CAXXZ 00405e50 f i u_s_sokoban2.obj
 0001:00004e50       ?_Xlength@?$vector@Vpointf3log@@V?$allocator@Vpointf3log@@@std@@@std@@CAXXZ 00405e50 f i u_json.obj
 0001:00004e50       ?_Xlength@?$vector@Usquarei@@V?$allocator@Usquarei@@@std@@@std@@CAXXZ 00405e50 f i u_qr_code2scan.obj
 0001:00004e50       ?_Xlength@?$vector@V?$basic_string@DU?$char_traits@D@std@@V?$allocator@D@2@@std@@V?$allocator@V?$basic_string@DU?$char_traits@D@std@@V?$allocator@D@2@@std@@@2@@std@@CAXXZ 00405e50 f i n_carclass.obj
 0001:00004e50       ?_Xlength@?$vector@Vboard_foxgoose@@V?$allocator@Vboard_foxgoose@@@std@@@std@@CAXXZ 00405e50 f i u_s_game2_foxgoose.obj
 0001:00004e50       ?_Xlength@?$vector@Uplayermove@sokoban2@@V?$allocator@Uplayermove@sokoban2@@@std@@@std@@CAXXZ 00405e50 f i u_s_sokoban2.obj
 0001:00004e50       ?_Xlength@?$vector@Uboard@jelly@@V?$allocator@Uboard@jelly@@@std@@@std@@CAXXZ 00405e50 f i u_s_jelly.obj
 0001:00004e50       ?_Xlength@?$vector@UpointS8@jelly@@V?$allocator@UpointS8@jelly@@@std@@@std@@CAXXZ 00405e50 f i u_s_jelly.obj
 0001:00004e50       ?_Xlength@?$vector@Ums@slider@@V?$allocator@Ums@slider@@@std@@@std@@CAXXZ 00405e50 f i u_s_slider.obj
 0001:00004e50       ?_Xlength@?$vector@Vqcolumn@@V?$allocator@Vqcolumn@@@std@@@std@@CAXXZ 00405e50 f i u_qfieldui.obj
 0001:00004e50       ?_Xlength@?$vector@Uboardcollinfo@sokoban2@@V?$allocator@Uboardcollinfo@sokoban2@@@std@@@std@@CAXXZ 00405e50 f i u_s_sokoban2.obj
 0001:00004e50       ?_Xlength@?$vector@USCL_BEZv2@@V?$allocator@USCL_BEZv2@@@std@@@std@@CAXXZ 00405e50 f i engq:d2_bws.obj
 0001:00004e50       ?_Xlength@?$vector@Uitem@nfs_entername@@V?$allocator@Uitem@nfs_entername@@@std@@@std@@CAXXZ 00405e50 f i nfs_entername.obj
 0001:00004e50       ?_Xlength@?$vector@Uboard@slider@@V?$allocator@Uboard@slider@@@std@@@std@@CAXXZ 00405e50 f i u_s_slider.obj
 0001:00004e50       ?_Xlength@?$vector@Uboardcollinfo@slider@@V?$allocator@Uboardcollinfo@slider@@@std@@@std@@CAXXZ 00405e50 f i u_s_slider.obj
 0001:00004e50       ?_Xlength@?$vector@U?$referencecountelement@Vmodelb@@@@V?$allocator@U?$referencecountelement@Vmodelb@@@@@std@@@std@@CAXXZ 00405e50 f i engq:d2_dx9effectshaders.obj
 0001:00004e50       ?_Xlength@?$vector@Udebinfo@@V?$allocator@Udebinfo@@@std@@@std@@CAXXZ 00405e50 f i engq:m_debp.obj
 0001:00004e50       ?_Xlength@?$vector@V?$vector@MV?$allocator@M@std@@@std@@V?$allocator@V?$vector@MV?$allocator@M@std@@@std@@@2@@std@@CAXXZ 00405e50 f i quant3.obj
 0001:00004e50       ?_Xlength@?$vector@Uboard@wriggler@@V?$allocator@Uboard@wriggler@@@std@@@std@@CAXXZ 00405e50 f i u_s_wriggler.obj
 0001:00004e50       ?_Xlength@?$vector@PAVshape@@V?$allocator@PAVshape@@@std@@@std@@CAXXZ 00405e50 f i u_s_physics2d.obj
 0001:00004e50       ?_Xlength@?$vector@Umodel_mat@@V?$allocator@Umodel_mat@@@std@@@std@@CAXXZ 00405e50 f i engq:d2_bwo.obj
 0001:00004e50       ?_Xlength@?$vector@Upoly@@V?$allocator@Upoly@@@std@@@std@@CAXXZ 00405e50 f i n_polylist.obj
 0001:00004e50       ?_Xlength@?$vector@V?$vector@Upointf2@@V?$allocator@Upointf2@@@std@@@std@@V?$allocator@V?$vector@Upointf2@@V?$allocator@Upointf2@@@std@@@std@@@2@@std@@CAXXZ 00405e50 f i u_pointcloudkdtree.obj
 0001:00004e50       ?_Xlength@?$vector@Upointi2@@V?$allocator@Upointi2@@@std@@@std@@CAXXZ 00405e50 f i u_ar_scan.obj
 0001:00004e50       ?_Xlength@?$vector@UROT_LIN@@V?$allocator@UROT_LIN@@@std@@@std@@CAXXZ 00405e50 f i engq:d2_bws.obj
 0001:00004e50       ?_Xlength@?$vector@Uuv@@V?$allocator@Uuv@@@std@@@std@@CAXXZ 00405e50 f i n_faceverts.obj
 0001:00004e50       ?_Xlength@?$vector@Utree_info@@V?$allocator@Utree_info@@@std@@@std@@CAXXZ 00405e50 f i engq:d2_bws.obj
 0001:00004e50       ?_Xlength@?$vector@Uptile@jelly@@V?$allocator@Uptile@jelly@@@std@@@std@@CAXXZ 00405e50 f i u_s_jelly.obj
 0001:00004e50       ?_Xlength@?$vector@V?$vector@V?$basic_string@DU?$char_traits@D@std@@V?$allocator@D@2@@std@@V?$allocator@V?$basic_string@DU?$char_traits@D@std@@V?$allocator@D@2@@std@@@2@@std@@V?$allocator@V?$vector@V?$basic_string@DU?$char_traits@D@std@@V?$allocator@D@2@@std@@V?$allocator@V?$basic_string@DU?$char_traits@D@std@@V?$allocator@D@2@@std@@@2@@std@@@2@@std@@CAXXZ 00405e50 f i match_register.obj
 0001:00004e50       ?_Xlength@?$vector@UFLOAT_LIN@@V?$allocator@UFLOAT_LIN@@@std@@@std@@CAXXZ 00405e50 f i engq:d2_bws.obj
 0001:00004e50       ?_Xlength@?$vector@UpointS82@sokoban@@V?$allocator@UpointS82@sokoban@@@std@@@std@@CAXXZ 00405e50 f i u_s_sokoban.obj
 0001:00004e50       ?_Xlength@?$vector@Ushadeslot@d2_dx9@@V?$allocator@Ushadeslot@d2_dx9@@@std@@@std@@CAXXZ 00405e50 f i engq:d2_dx9effectshaders.obj
 0001:00004e50       ?_Xlength@?$vector@Vcycle@ga@@V?$allocator@Vcycle@ga@@@std@@@std@@CAXXZ 00405e50 f i u_groupanalyze.obj
 0001:00004e50       ?_Xlength@?$vector@Utile@penrose@@V?$allocator@Utile@penrose@@@std@@@std@@CAXXZ 00405e50 f i u_s_penrose.obj
 0001:00004e50       ?_Xlength@?$vector@PAVuitree@@V?$allocator@PAVuitree@@@std@@@std@@CAXXZ 00405e50 f i u_uiclass.obj
 0001:00004e50       ?_Xlength@?$vector@UIDX3@@V?$allocator@UIDX3@@@std@@@std@@CAXXZ 00405e50 f i engq:m_chunk.obj
 0001:00004e50       ?_Xlength@?$vector@Upiece@jelly@@V?$allocator@Upiece@jelly@@@std@@@std@@CAXXZ 00405e50 f i u_s_jelly.obj
 0001:00004e50       ?_Xlength@?$vector@Unfs_player@nfs_shell@@V?$allocator@Unfs_player@nfs_shell@@@std@@@std@@CAXXZ 00405e50 f i nfs_entername.obj
 0001:00004e50       ?_Xlength@?$vector@Ugroup2@@V?$allocator@Ugroup2@@@std@@@std@@CAXXZ 00405e50 f i engq:d2_model.obj
 0001:00004e50       ?_Xlength@?$vector@V?$vector@HV?$allocator@H@std@@@std@@V?$allocator@V?$vector@HV?$allocator@H@std@@@std@@@2@@std@@CAXXZ 00405e50 f i u_permiter.obj
 0001:00004e50       ?_Xlength@?$vector@V?$vector@Upointi2@@V?$allocator@Upointi2@@@std@@@std@@V?$allocator@V?$vector@Upointi2@@V?$allocator@Upointi2@@@std@@@std@@@2@@std@@CAXXZ 00405e50 f i u_ar_scan.obj
 0001:00004e50       ?_Xlength@?$vector@U?$referencecountelement@Vtextureb@@@@V?$allocator@U?$referencecountelement@Vtextureb@@@@@std@@@std@@CAXXZ 00405e50 f i engq:d2_texman.obj
 0001:00004e50       ?_Xlength@?$vector@PAVscript@@V?$allocator@PAVscript@@@std@@@std@@CAXXZ 00405e50 f i engq:m_script.obj
 0001:00004e50       ?_Xlength@?$vector@Vpiece2@@V?$allocator@Vpiece2@@@std@@@std@@CAXXZ 00405e50 f i u_game2.obj
 0001:00004e50       ?_Xlength@?$vector@IV?$allocator@I@std@@@std@@CAXXZ 00405e50 f i u_permiter.obj
 0001:00004e50       ?_Xlength@?$vector@Uitem@nfs_readyrace@@V?$allocator@Uitem@nfs_readyrace@@@std@@@std@@CAXXZ 00405e50 f i nfs_readyrace.obj
 0001:00004e50       ?_Xlength@?$vector@Ualine@octMirror@@V?$allocator@Ualine@octMirror@@@std@@@std@@CAXXZ 00405e50 f i u_s_plot2octmirror.obj
 0001:00004e50       ?_Xlength@?$vector@UFLOAT_BEZv2@@V?$allocator@UFLOAT_BEZv2@@@std@@@std@@CAXXZ 00405e50 f i engq:d2_bws.obj
 0001:00004e50       ?_Xlength@?$vector@U?$undo@Vboard_nim@@@@V?$allocator@U?$undo@Vboard_nim@@@@@std@@@std@@CAXXZ 00405e50 f i u_s_game2_nim.obj
 0001:00004e50       ?_Xlength@?$vector@Umater2@@V?$allocator@Umater2@@@std@@@std@@CAXXZ 00405e50 f i engq:d2_model.obj
 0001:00004e50       ?_Xlength@?$vector@Vboard_endgame@@V?$allocator@Vboard_endgame@@@std@@@std@@CAXXZ 00405e50 f i u_s_game2_endgame.obj
 0001:00004e50       ?_Xlength@?$vector@U?$undo@Vboard_endgame@@@@V?$allocator@U?$undo@Vboard_endgame@@@@@std@@@std@@CAXXZ 00405e50 f i u_s_game2_endgame.obj
 0001:00004e50       ?_Xlength@?$vector@Uboardcollinfo@jelly@@V?$allocator@Uboardcollinfo@jelly@@@std@@@std@@CAXXZ 00405e50 f i u_s_jelly.obj
 0001:00004e50       ?_Xlength@?$vector@Vfraction@@V?$allocator@Vfraction@@@std@@@std@@CAXXZ 00405e50 f i u_s_polynomial.obj
 0001:00004e50       ?_Xlength@?$vector@UPOS_BEZv2@@V?$allocator@UPOS_BEZv2@@@std@@@std@@CAXXZ 00405e50 f i engq:d2_bws.obj
 0001:00004e50       ?_Xlength@?$vector@UcircleScan@@V?$allocator@UcircleScan@@@std@@@std@@CAXXZ 00405e50 f i u_ar_scan.obj
 0001:00004e50       ?_Xlength@?$vector@Ums@jelly@@V?$allocator@Ums@jelly@@@std@@@std@@CAXXZ 00405e50 f i u_s_jelly.obj
 0001:00004e50       ?_Xlength@?$vector@UVC2@@V?$allocator@UVC2@@@std@@@std@@CAXXZ 00405e50 f i engq:m_chunk.obj
 0001:00004e50       ?_Xlength@?$vector@Uobjects@sokoban@@V?$allocator@Uobjects@sokoban@@@std@@@std@@CAXXZ 00405e50 f i u_s_sokoban.obj
 0001:00004e50       ?_Xlength@?$vector@Vboard_nim@@V?$allocator@Vboard_nim@@@std@@@std@@CAXXZ 00405e50 f i u_s_game2_nim.obj
 0001:00004e50       ?_Xlength@?$vector@UROT_TCB@@V?$allocator@UROT_TCB@@@std@@@std@@CAXXZ 00405e50 f i engq:d2_bws.obj
 0001:00004e50       ?_Xlength@?$vector@PAVshape@res2d@@V?$allocator@PAVshape@res2d@@@std@@@std@@CAXXZ 00405e50 f i n_carenalobby.obj
 0001:00004e50       ?_Xlength@?$vector@Uplace@u_s_searcher@@V?$allocator@Uplace@u_s_searcher@@@std@@@std@@CAXXZ 00405e50 f i u_s_searcher.obj
 0001:00004e50       ?_Xlength@?$vector@Uitem@nfs_result@@V?$allocator@Uitem@nfs_result@@@std@@@std@@CAXXZ 00405e50 f i nfs_result.obj
 0001:00004e50       ?_Xlength@?$vector@V?$vector@_NV?$allocator@_N@std@@@std@@V?$allocator@V?$vector@_NV?$allocator@_N@std@@@std@@@2@@std@@CAXXZ 00405e50 f i u_qr_code2scan.obj
 0001:00004e50       ?_Xlength@?$vector@Vcgroup@smallgroups@@V?$allocator@Vcgroup@smallgroups@@@std@@@std@@CAXXZ 00405e50 f i u_smallgroups.obj
 0001:00004e50       ?_Xlength@?$vector@Vpermute@ga@@V?$allocator@Vpermute@ga@@@std@@@std@@CAXXZ 00405e50 f i u_groupanalyze.obj
 0001:00004e50       ?_Xlength@?$vector@USCL_TCB@@V?$allocator@USCL_TCB@@@std@@@std@@CAXXZ 00405e50 f i engq:d2_bws.obj
 0001:00004e50       ?_Xlength@?$vector@V?$complex@M@std@@V?$allocator@V?$complex@M@std@@@2@@std@@CAXXZ 00405e50 f i u_qfieldui.obj
 0001:00004e50       ?_Xlength@?$vector@PAVtextureb@@V?$allocator@PAVtextureb@@@std@@@std@@CAXXZ 00405e50 f i engq:d2_texman.obj
 0001:00004e50       ?_Xlength@?$vector@PAVshape@u_s_arena2@@V?$allocator@PAVshape@u_s_arena2@@@std@@@std@@CAXXZ 00405e50 f i u_s_arena2.obj
 0001:00004e50       ?_Xlength@?$vector@UPOS_TCB@@V?$allocator@UPOS_TCB@@@std@@@std@@CAXXZ 00405e50 f i engq:d2_bws.obj
 0001:00004e50       ?_Xlength@?$vector@V?$vector@Vpiece2@@V?$allocator@Vpiece2@@@std@@@std@@V?$allocator@V?$vector@Vpiece2@@V?$allocator@Vpiece2@@@std@@@std@@@2@@std@@CAXXZ 00405e50 f i u_game2.obj
 0001:00004e50       ?_Xlength@?$vector@Ucapture_path@@V?$allocator@Ucapture_path@@@std@@@std@@CAXXZ 00405e50 f i u_s_castle.obj
 0001:00004e50       ?_Xlength@?$vector@Uboardcollinfo@wriggler@@V?$allocator@Uboardcollinfo@wriggler@@@std@@@std@@CAXXZ 00405e50 f i u_s_wriggler.obj
 0001:00004e50       ?_Xlength@?$vector@UVC3@@V?$allocator@UVC3@@@std@@@std@@CAXXZ 00405e50 f i engq:m_chunk.obj
 0001:00004e50       ?_Xlength@?$vector@Uitem@nfs_game@@V?$allocator@Uitem@nfs_game@@@std@@@std@@CAXXZ 00405e50 f i nfs_game.obj
 0001:00004e50       ?_Xlength@?$vector@Ums@wriggler@@V?$allocator@Ums@wriggler@@@std@@@std@@CAXXZ 00405e50 f i u_s_wriggler.obj
 0001:00004e50       ?_Xlength@?$vector@U?$undo@Vboard_ttt2@@@@V?$allocator@U?$undo@Vboard_ttt2@@@@@std@@@std@@CAXXZ 00405e50 f i u_s_game2_ttt2.obj
 0001:00004e50       ?_Xlength@?$vector@USCL_LIN@@V?$allocator@USCL_LIN@@@std@@@std@@CAXXZ 00405e50 f i engq:d2_bws.obj
 0001:00004e50       ?_Xlength@?$vector@PAVqgatebase@@V?$allocator@PAVqgatebase@@@std@@@std@@CAXXZ 00405e50 f i u_qcolumn.obj
 0001:00004e50       ?_Xlength@?$vector@Uboardcollinfo@sokoban@@V?$allocator@Uboardcollinfo@sokoban@@@std@@@std@@CAXXZ 00405e50 f i u_s_sokoban.obj
 0001:00004e50       ?_Xlength@?$vector@Vperm@smallgroups@@V?$allocator@Vperm@smallgroups@@@std@@@std@@CAXXZ 00405e50 f i u_smallgroups.obj
 0001:00004e50       ?_Xlength@?$vector@MV?$allocator@M@std@@@std@@CAXXZ 00405e50 f i u_json.obj
 0001:00004e50       ?_Xlength@?$vector@V?$vector@IV?$allocator@I@std@@@std@@V?$allocator@V?$vector@IV?$allocator@I@std@@@std@@@2@@std@@CAXXZ 00405e50 f i u_cayley.obj
 0001:00004e50       ?_Xlength@?$vector@V?$vector@Vzee2@@V?$allocator@Vzee2@@@std@@@std@@V?$allocator@V?$vector@Vzee2@@V?$allocator@Vzee2@@@std@@@std@@@2@@std@@CAXXZ 00405e50 f i engq:augmatz.obj
 0001:00004e50       ?_Xlength@?$vector@Uedge@@V?$allocator@Uedge@@@std@@@std@@CAXXZ 00405e50 f i n_faceverts.obj
 0001:00004e50       ?_Xlength@?$vector@PAUwavehandle@@V?$allocator@PAUwavehandle@@@std@@@std@@CAXXZ 00405e50 f i u_s_arena1.obj
 0001:00004e50       ?_Xlength@?$vector@Vqstate@qcomp@@V?$allocator@Vqstate@qcomp@@@std@@@std@@CAXXZ 00405e50 f i u_qstate.obj
 0001:00004e50       ?_Xlength@?$vector@Upointf3@@V?$allocator@Upointf3@@@std@@@std@@CAXXZ 00405e50 f i n_faceverts.obj
 0001:00004e50       ?_Xlength@?$vector@Uuserprofile@@V?$allocator@Uuserprofile@@@std@@@std@@CAXXZ 00405e50 f i match_server.obj
 0001:00004e50       ?_Xlength@?$vector@Uitem@nfs_smile@@V?$allocator@Uitem@nfs_smile@@@std@@@std@@CAXXZ 00405e50 f i nfs_smile.obj
 0001:00004e50       ?_Xlength@?$vector@Vboard_opposition@@V?$allocator@Vboard_opposition@@@std@@@std@@CAXXZ 00405e50 f i u_s_game2_opposition.obj
 0001:00004e50       ?_Xlength@?$vector@EV?$allocator@E@std@@@std@@CAXXZ 00405e50 f i u_groupanalyze.obj
 0001:00004e50       ?_Xlength@?$vector@Vboard_ttt@@V?$allocator@Vboard_ttt@@@std@@@std@@CAXXZ 00405e50 f i u_s_game2_ttt.obj
 0001:00004e50       ?_Xlength@?$vector@UpointS82@sokoban2@@V?$allocator@UpointS82@sokoban2@@@std@@@std@@CAXXZ 00405e50 f i u_s_sokoban2.obj
 0001:00004e50       ?_Xlength@?$vector@PAVshape@res3d@@V?$allocator@PAVshape@res3d@@@std@@@std@@CAXXZ 00405e50 f i misclibq:l_res3d.obj
 0001:00004e50       ?_Xlength@?$vector@U?$undo@Vboard_opposition@@@@V?$allocator@U?$undo@Vboard_opposition@@@@@std@@@std@@CAXXZ 00405e50 f i u_s_game2_opposition.obj
 0001:00004e50       ?_Xlength@?$vector@UVC3M@@V?$allocator@UVC3M@@@std@@@std@@CAXXZ 00405e50 f i engq:m_chunk.obj
 0001:00004e50       ?_Xlength@?$vector@U?$undo@Vboard_ttt@@@@V?$allocator@U?$undo@Vboard_ttt@@@@@std@@@std@@CAXXZ 00405e50 f i u_s_game2_ttt.obj
 0001:00004e60       ?allocate@?$allocator@E@std@@QAEPAEI@Z 00405e60 f i u_groupanalyze.obj
 0001:00004e60       ?allocate@?$allocator@D@std@@QAEPADI@Z 00405e60 f i n_carclass.obj
 0001:00004ec0       ?allocate@?$allocator@V?$basic_string@DU?$char_traits@D@std@@V?$allocator@D@2@@std@@@std@@QAEPAV?$basic_string@DU?$char_traits@D@std@@V?$allocator@D@2@@2@I@Z 00405ec0 f i n_carclass.obj
 0001:00004ec0       ?allocate@?$allocator@Vterm@poly_sym@@@std@@QAEPAVterm@poly_sym@@I@Z 00405ec0 f i u_s_poly_sym.obj
 0001:00004ec0       ?allocate@?$allocator@Usection@@@std@@QAEPAUsection@@I@Z 00405ec0 f i n_newconstructor.obj
 0001:00004f30       ?assign@?$basic_string@DU?$char_traits@D@std@@V?$allocator@D@2@@std@@QAEAAV12@QBDI@Z 00405f30 f i n_carclass.obj
 0001:00005020       ?getcarlist@n_carclass@@SAPAVscript@@XZ 00406020 f   n_carclass.obj
 0001:00005420       ___local_stdio_printf_options 00406420 f i n_carclass.obj
 0001:00005430       _sprintf                   00406430 f i n_carclass.obj
 0001:00005470       ??1scriptdir@@QAE@XZ       00406470 f i n_tracklist.obj
 0001:00005470       ??1script@@QAE@XZ          00406470 f i n_carenaconnect.obj
 0001:000054d0       ?carenastatusdraw2d@@YAXXZ 004064d0 f   n_carenaconnect.obj
 0001:000054d0       ?carenaconnectdraw2d@@YAXXZ 004064d0 f   n_carenaconnect.obj
 0001:00005510       ?carenaconnectexit@@YAXXZ  00406510 f   n_carenaconnect.obj
 0001:000056e0       ?carenaconnectinit@@YAXXZ  004066e0 f   n_carenaconnect.obj
 0001:000058c0       ?carenaconnectproc@@YAXXZ  004068c0 f   n_carenaconnect.obj
 0001:000068c0       ?carenastatusexit@@YAXXZ   004078c0 f   n_carenaconnect.obj
 0001:00006910       ?carenastatusinit@@YAXXZ   00407910 f   n_carenaconnect.obj
 0001:000069c0       ?carenastatusproc@@YAXXZ   004079c0 f   n_carenaconnect.obj
 0001:000069f0       ?cleansocks@@YAXXZ         004079f0 f   n_carenaconnect.obj
 0001:00006a30       ?idx@script@@QBEABV?$basic_string@DU?$char_traits@D@std@@V?$allocator@D@2@@std@@H@Z 00407a30 f i u_s_arena1.obj
 0001:00006a30       ?idx@script@@QAEAAV?$basic_string@DU?$char_traits@D@std@@V?$allocator@D@2@@std@@H@Z 00407a30 f i n_carenaconnect.obj
 0001:00007da0       ?carenagamedraw2d@@YAXXZ   00408da0 f   n_carenagame.obj
 0001:00007eb0       ?carenagamedraw3d@@YAXXZ   00408eb0 f   n_carenagame.obj
 0001:00007ee0       ?carenagameexit@@YAXXZ     00408ee0 f   n_carenagame.obj
 0001:00007fe0       ?carenagameinit@@YAXXZ     00408fe0 f   n_carenagame.obj
 0001:000085d0       ?carenagameproc@@YAXXZ     004095d0 f   n_carenagame.obj
 0001:00008c20       ?startgame@@YAXXZ          00409c20 f   n_carenagame.obj
 0001:00008fb0       ??$_Deallocate@$07$0A@@std@@YAXPAXI@Z 00409fb0 f i n_carenalobby.obj
 0001:00008ff0       ??$_Emplace_reallocate@ABQAVshape@res2d@@@?$vector@PAVshape@res2d@@V?$allocator@PAVshape@res2d@@@std@@@std@@QAEPAPAVshape@res2d@@QAPAV23@ABQAV23@@Z 00409ff0 f i n_carenalobby.obj
 0001:00008ff0       ??$_Emplace_reallocate@ABUdx9_mater2@model3@@@?$vector@Udx9_mater2@model3@@V?$allocator@Udx9_mater2@model3@@@std@@@std@@QAEPAUdx9_mater2@model3@@QAU23@ABU23@@Z 00409ff0 f i engq:d2_dx9effectshaders.obj
 0001:00008ff0       ??$_Emplace_reallocate@H@?$vector@HV?$allocator@H@std@@@std@@QAEPAHQAH$$QAH@Z 00409ff0 f i n_meshtest.obj
 0001:00008ff0       ??$_Emplace_reallocate@ABQAVtextureb@@@?$vector@PAVtextureb@@V?$allocator@PAVtextureb@@@std@@@std@@QAEPAPAVtextureb@@QAPAV2@ABQAV2@@Z 00409ff0 f i engq:d2_texman.obj
 0001:00008ff0       ??$_Emplace_reallocate@ABQAVshape@res3d@@@?$vector@PAVshape@res3d@@V?$allocator@PAVshape@res3d@@@std@@@std@@QAEPAPAVshape@res3d@@QAPAV23@ABQAV23@@Z 00409ff0 f i misclibq:l_res3d.obj
 0001:00008ff0       ??$_Emplace_reallocate@ABM@?$vector@MV?$allocator@M@std@@@std@@QAEPAMQAMABM@Z 00409ff0 f i u_json.obj
 0001:00008ff0       ??$_Emplace_reallocate@ABUms@jelly@@@?$vector@Ums@jelly@@V?$allocator@Ums@jelly@@@std@@@std@@QAEPAUms@jelly@@QAU23@ABU23@@Z 00409ff0 f i u_s_jelly.obj
 0001:00008ff0       ??$_Emplace_reallocate@I@?$vector@IV?$allocator@I@std@@@std@@QAEPAIQAI$$QAI@Z 00409ff0 f i newlobby.obj
 0001:00008ff0       ??$_Emplace_reallocate@ABQAVscript@@@?$vector@PAVscript@@V?$allocator@PAVscript@@@std@@@std@@QAEPAPAVscript@@QAPAV2@ABQAV2@@Z 00409ff0 f i engq:m_script.obj
 0001:00008ff0       ??$_Emplace_reallocate@ABQAVtree2@@@?$vector@PAVtree2@@V?$allocator@PAVtree2@@@std@@@std@@QAEPAPAVtree2@@QAPAV2@ABQAV2@@Z 00409ff0 f i helperobj.obj
 0001:00008ff0       ??$_Emplace_reallocate@ABI@?$vector@IV?$allocator@I@std@@@std@@QAEPAIQAIABI@Z 00409ff0 f i gameinfo.obj
 0001:00008ff0       ??$_Emplace_reallocate@M@?$vector@MV?$allocator@M@std@@@std@@QAEPAMQAM$$QAM@Z 00409ff0 f i u_s_plot2quant.obj
 0001:00008ff0       ??$_Emplace_reallocate@ABQAVuitree@@@?$vector@PAVuitree@@V?$allocator@PAVuitree@@@std@@@std@@QAEPAPAVuitree@@QAPAV2@ABQAV2@@Z 00409ff0 f i u_uiclass.obj
 0001:00009150       ??$_Traits_compare@U?$char_traits@D@std@@@std@@YAHQBDI0I@Z 0040a150 f i n_carenalobby.obj
 0001:000091e0       ??$find@Vedit@res2d@@@shape@res2d@@QAEPAVedit@1@PBD@Z 0040a1e0 f i n_carenalobby.obj
 0001:00009250       ??$find@Vhscroll@res2d@@@shape@res2d@@QAEPAVhscroll@1@PBD@Z 0040a250 f i n_carenalobby.obj
 0001:000092c0       ??$find@Vlistbox@res2d@@@shape@res2d@@QAEPAVlistbox@1@PBD@Z 0040a2c0 f i n_carenalobby.obj
 0001:00009330       ??$find@Vpbut@res2d@@@shape@res2d@@QAEPAVpbut@1@PBD@Z 0040a330 f i n_carenalobby.obj
 0001:000093a0       ??$find@Vtext@res2d@@@shape@res2d@@QAEPAVtext@1@PBD@Z 0040a3a0 f i n_carenalobby.obj
 0001:00009410       ??1?$factory@Vuitree@@Vscript@@@@QAE@XZ 0040a410 f i u_s_ui.obj
 0001:00009410       ??1?$map@V?$basic_string@DU?$char_traits@D@std@@V?$allocator@D@2@@std@@P6APAXAAVscript@@@ZU?$less@V?$basic_string@DU?$char_traits@D@std@@V?$allocator@D@2@@std@@@2@V?$allocator@U?$pair@$$CBV?$basic_string@DU?$char_traits@D@std@@V?$allocator@D@2@@std@@P6APAXAAVscript@@@Z@std@@@2@@std@@QAE@XZ 0040a410 f i u_uiclass.obj
 0001:00009410       ??1?$map@V?$basic_string@DU?$char_traits@D@std@@V?$allocator@D@2@@std@@P6APAXXZU?$less@V?$basic_string@DU?$char_traits@D@std@@V?$allocator@D@2@@std@@@2@V?$allocator@U?$pair@$$CBV?$basic_string@DU?$char_traits@D@std@@V?$allocator@D@2@@std@@P6APAXXZ@std@@@2@@std@@QAE@XZ 0040a410 f i u_s_arena2.obj
 0001:00009410       ??1?$factory2@Vshape@res2d@@@@QAE@XZ 0040a410 f i n_carenalobby.obj
 0001:00009470       ??_Gscript@@QAEPAXI@Z      0040a470 f i n_carenalobby.obj
 0001:000094e0       ??_Eshape@res2d@@UAEPAXI@Z 0040a4e0 f i n_carenalobby.obj
 0001:000094e0       ??_Gshape@res2d@@UAEPAXI@Z 0040a4e0 f i n_carenalobby.obj
 0001:00009510       ?_Erase@?$_Tree@V?$_Tmap_traits@V?$basic_string@DU?$char_traits@D@std@@V?$allocator@D@2@@std@@P6APAXXZU?$less@V?$basic_string@DU?$char_traits@D@std@@V?$allocator@D@2@@std@@@2@V?$allocator@U?$pair@$$CBV?$basic_string@DU?$char_traits@D@std@@V?$allocator@D@2@@std@@P6APAXXZ@std@@@2@$0A@@std@@@std@@IAEXPAU?$_Tree_node@U?$pair@$$CBV?$basic_string@DU?$char_traits@D@std@@V?$allocator@D@2@@std@@P6APAXXZ@std@@PAX@2@@Z 0040a510 f i u_s_arena2.obj
 0001:00009510       ?_Erase@?$_Tree@V?$_Tmap_traits@V?$basic_string@DU?$char_traits@D@std@@V?$allocator@D@2@@std@@P6APAXAAVscript@@@ZU?$less@V?$basic_string@DU?$char_traits@D@std@@V?$allocator@D@2@@std@@@2@V?$allocator@U?$pair@$$CBV?$basic_string@DU?$char_traits@D@std@@V?$allocator@D@2@@std@@P6APAXAAVscript@@@Z@std@@@2@$0A@@std@@@std@@IAEXPAU?$_Tree_node@U?$pair@$$CBV?$basic_string@DU?$char_traits@D@std@@V?$allocator@D@2@@std@@P6APAXAAVscript@@@Z@std@@PAX@2@@Z 0040a510 f i n_carenalobby.obj
 0001:000095a0       ?carenalobbydraw2d@@YAXXZ  0040a5a0 f   n_carenalobby.obj
 0001:00009640       ?carenalobbydraw3d@@YAXXZ  0040a640 f   n_carenalobby.obj
 0001:00009700       ?carenalobbyexit@@YAXXZ    0040a700 f   n_carenalobby.obj
 0001:00009b20       ?carenalobbyinit@@YAXXZ    0040ab20 f   n_carenalobby.obj
 0001:0000bae0       ?carenalobbyproc@@YAXXZ    0040cae0 f   n_carenalobby.obj
 0001:0000c1e0       ?software_rendertargetmainfunc@@YAXXZ 0040d1e0 f i engq:d2_software.obj
 0001:0000c1e0       ?jigpuzzexit@@YAXXZ        0040d1e0 f i u_s_jigpuzz.obj
 0001:0000c1e0       ?renamerexit@@YAXXZ        0040d1e0 f i u_s_renamer.obj
 0001:0000c1e0       ?freetsp@@YAXPAUtsp@@@Z    0040d1e0 f i tsp.obj
 0001:0000c1e0       ?draw@wall@@UAEXXZ         0040d1e0 f i u_s_physics2d.obj
 0001:0000c1e0       ?drawlines@@YAXPAUviewport2@@PAVmodelb@@UC32@@@Z 0040d1e0 f i n_useful.obj
 0001:0000c1e0       ?joytestdiexit@@YAXXZ      0040d1e0 f i u_s_joytest.obj
 0001:0000c1e0       ?procover@shape@res3d@@UAEXXZ 0040d1e0 f i misclibq:l_res3d.obj
 0001:0000c1e0       ?procthermocan@@YAXPAUweapfly@@@Z 0040d1e0 f i online_uplay.obj
 0001:0000c1e0       ?proc@us_fluff@u_s_arena2@@UAEXXZ 0040d1e0 f i u_s_arena2.obj
 0001:0000c1e0       ?updatescrline@@YAXXZ      0040d1e0 f i n_scrline.obj
 0001:0000c1e0       ?joytestmmexit@@YAXXZ      0040d1e0 f i u_s_joytest.obj
 0001:0000c1e0       ?coinsexit@@YAXXZ          0040d1e0 f i coins.obj
 0001:0000c1e0       ?user1exit@@YAXXZ          0040d1e0 f i u_s_user1.obj
 0001:0000c1e0       _oc_restore_fpu_c          0040d1e0 f i libtheora:state.obj
 0001:0000c1e0       ?addgstate@@YAXXZ          0040d1e0 f i gamestate.obj
 0001:0000c1e0       ?proc@qfield@@QAEXXZ       0040d1e0 f i u_qfieldui.obj
 0001:0000c1e0       ?laplaceexit@@YAXXZ        0040d1e0 f i u_s_laplace_heat.obj
 0001:0000c1e0       __initialize_denormal_control 0040d1e0 f i LIBCMT:denormal_control.obj
 0001:0000c1e0       ??1?$_String_alloc@U?$_String_base_types@DV?$allocator@D@std@@@std@@@std@@QAE@XZ 0040d1e0 f i engq:m_dir.obj
 0001:0000c1e0       ??1?$_Uninitialized_backout_al@PAVzee2@@V?$allocator@Vzee2@@@std@@@std@@QAE@XZ 0040d1e0 f i engq:augmatz.obj
 0001:0000c1e0       ?float_test@@YAXXZ         0040d1e0 f i engq:m_floatconv.obj
 0001:0000c1e0       ?proc@us@u_s_arena2@@UAEXXZ 0040d1e0 f i u_s_arena2.obj
 0001:0000c1e0       ?_Unlock@?$basic_streambuf@DU?$char_traits@D@std@@@std@@UAEXXZ 0040d1e0 f i u_ar_parse.obj
 0001:0000c1e0       __initialize_invalid_parameter_handler 0040d1e0 f i LIBCMT:invalid_parameter_handler.obj
 0001:0000c1e0       ?deactivate@shape@res2d@@UAEXXZ 0040d1e0 f i n_carenalobby.obj
 0001:0000c1e0       ?procnotover@shape@res3d@@UAEXXZ 0040d1e0 f i misclibq:l_res3d.obj
 0001:0000c1e0       ?initgstate@@YAXXZ         0040d1e0 f i gamestate.obj
 0001:0000c1e0       ?exitgstate@@YAXXZ         0040d1e0 f i gamestate.obj
 0001:0000c1e0       ?_Lock@?$basic_streambuf@DU?$char_traits@D@std@@@std@@UAEXXZ 0040d1e0 f i u_ar_parse.obj
 0001:0000c1e0       ?initghook@@YAXPAUweapfly@@@Z 0040d1e0 f i online_uplay.obj
 0001:0000c1e0       @_guard_check_icall_nop@4  0040d1e0 f i LIBCMT:guard_support.obj
 0001:0000c1e0       ?initflag@@YAXPAUweapfly@@@Z 0040d1e0 f i online_uplay.obj
 0001:0000c1e0       ?update@model2@@UAEXXZ     0040d1e0 f i engq:d2_software.obj
 0001:0000c1e0       ?deactivate@shape@res3d@@UAEXXZ 0040d1e0 f i misclibq:l_res3d.obj
 0001:0000c1e0       ?unlocktexture@texturebifl@@UAEXXZ 0040d1e0 f i engq:d2_texman.obj
 0001:0000c1f0       ?getkind@qgatebase@@UBE?AW4qtype@1@XZ 0040d1f0 f i u_qcolumn.obj
 0001:0000c1f0       ?ToDocument@TiXmlNode@@UBEPBVTiXmlDocument@@XZ 0040d1f0 f i tinyxmlSTL:tinyxml.obj
 0001:0000c1f0       ?getcurpart@cztop@@UBEIXZ  0040d1f0 f i u_qgatebase.obj
 0001:0000c1f0       ?getcurpart@qgatep45@@UBEIXZ 0040d1f0 f i u_qgatebase.obj
 0001:0000c1f0       ?ToDeclaration@TiXmlNode@@UBEPBVTiXmlDeclaration@@XZ 0040d1f0 f i u_s_scratch.obj
 0001:0000c1f0       ?getcurpart@cstop@@UBEIXZ  0040d1f0 f i u_qgatebase.obj
 0001:0000c1f0       ___scrt_exe_initialize_mta 0040d1f0 f i LIBCMT:utility_desktop.obj
 0001:0000c1f0       ?getcurpart@toffoli6c0@@UBEIXZ 0040d1f0 f i u_qgatebase.obj
 0001:0000c1f0       ?getcurpart@qgatem0@@UBEIXZ 0040d1f0 f i u_qgatebase.obj
 0001:0000c1f0       ?getcurpart@qgatest@@UBEIXZ 0040d1f0 f i u_qgatebase.obj
 0001:0000c1f0       ?getcurpart@cttop@@UBEIXZ  0040d1f0 f i u_qgatebase.obj
 0001:0000c1f0       ?getcurpart@cpm45top@@UBEIXZ 0040d1f0 f i u_qgatebase.obj
 0001:0000c1f0       ?getcurpart@qgatesplitter@@UBEIXZ 0040d1f0 f i u_qgatebase.obj
 0001:0000c1f0       ?getcurpart@qgatepy@@UBEIXZ 0040d1f0 f i u_qgatebase.obj
 0001:0000c1f0       ?getcurpart@toffolitop@@UBEIXZ 0040d1f0 f i u_qgatebase.obj
 0001:0000c1f0       ?isinside@shape@res2d@@UAEHXZ 0040d1f0 f i n_carenalobby.obj
 0001:0000c1f0       ?getcurpart@ctttop@@UBEIXZ 0040d1f0 f i u_qgatebase.obj
 0001:0000c1f0       ?getcurpart@chtop@@UBEIXZ  0040d1f0 f i u_qgatebase.obj
 0001:0000c1f0       ?duptsp@@YAPAUtsp@@PAU1@@Z 0040d1f0 f i tsp.obj
 0001:0000c1f0       ?ToComment@TiXmlNode@@UAEPAVTiXmlComment@@XZ 0040d1f0 f i u_s_scratch.obj
 0001:0000c1f0       ?getcurpart@csttop@@UBEIXZ 0040d1f0 f i u_qgatebase.obj
 0001:0000c1f0       __matherr                  0040d1f0 f i LIBCMT:matherr.obj
 0001:0000c1f0       ?getcurpart@qgatenot@@UBEIXZ 0040d1f0 f i u_qgatebase.obj
 0001:0000c1f0       ?ToElement@TiXmlNode@@UAEPAVTiXmlElement@@XZ 0040d1f0 f i u_s_scratch.obj
 0001:0000c1f0       ?getbasekind@qgatebase@@UBE?AW4qtype@1@XZ 0040d1f0 f i u_qcolumn.obj
 0001:0000c1f0       ?getcurpart@cytop@@UBEIXZ  0040d1f0 f i u_qgatebase.obj
 0001:0000c1f0       ?getcurpart@qgatesnotwp@@UBEIXZ 0040d1f0 f i u_qgatebase.obj
 0001:0000c1f0       ?ToDeclaration@TiXmlNode@@UAEPAVTiXmlDeclaration@@XZ 0040d1f0 f i u_s_scratch.obj
 0001:0000c1f0       ?ToUnknown@TiXmlNode@@UAEPAVTiXmlUnknown@@XZ 0040d1f0 f i u_s_scratch.obj
 0001:0000c1f0       __get_startup_thread_locale_mode 0040d1f0 f i LIBCMT:thread_locale.obj
 0001:0000c1f0       ?getcurpart@qgatep30@@UBEIXZ 0040d1f0 f i u_qgatebase.obj
 0001:0000c1f0       ?getcurpart@qgatehadamard@@UBEIXZ 0040d1f0 f i u_qgatebase.obj
 0001:0000c1f0       ?getcurpart@qgatepx@@UBEIXZ 0040d1f0 f i u_qgatebase.obj
 0001:0000c1f0       ?getcurpart@qgateg1over3@@UBEIXZ 0040d1f0 f i u_qgatebase.obj
 0001:0000c1f0       ?getcurpart@qgatesnotto@@UBEIXZ 0040d1f0 f i u_qgatebase.obj
 0001:0000c1f0       ?getcurpart@qgatepm45@@UBEIXZ 0040d1f0 f i u_qgatebase.obj
 0001:0000c1f0       ?ToDocument@TiXmlNode@@UAEPAVTiXmlDocument@@XZ 0040d1f0 f i tinyxmlSTL:tinyxml.obj
 0001:0000c1f0       ?getcurpart@toffoli5c0@@UBEIXZ 0040d1f0 f i u_qgatebase.obj
 0001:0000c1f0       ?ToComment@TiXmlNode@@UBEPBVTiXmlComment@@XZ 0040d1f0 f i u_s_scratch.obj
 0001:0000c1f0       ?isinside@shape@res3d@@UAEHXZ 0040d1f0 f i misclibq:l_res3d.obj
 0001:0000c1f0       ?ToText@TiXmlNode@@UAEPAVTiXmlText@@XZ 0040d1f0 f i u_s_scratch.obj
 0001:0000c1f0       ___scrt_initialize_winrt   0040d1f0 f i LIBCMT:utility_desktop.obj
 0001:0000c1f0       ?sync@?$basic_streambuf@DU?$char_traits@D@std@@@std@@MAEHXZ 0040d1f0 f i u_ar_parse.obj
 0001:0000c1f0       __get_startup_commit_mode  0040d1f0 f i LIBCMT:commit_mode.obj
 0001:0000c1f0       ?getcurpart@fredkintop@@UBEIXZ 0040d1f0 f i u_qgatebase.obj
 0001:0000c1f0       ?getcurpart@qgatepz@@UBEIXZ 0040d1f0 f i u_qgatebase.obj
 0001:0000c1f0       ?locktexture@texturebifl@@UAEPAUbitmap32@@XZ 0040d1f0 f i engq:d2_texman.obj
 0001:0000c1f0       __get_startup_new_mode     0040d1f0 f i LIBCMT:new_mode.obj
 0001:0000c1f0       ?ToElement@TiXmlNode@@UBEPBVTiXmlElement@@XZ 0040d1f0 f i u_s_scratch.obj
 0001:0000c1f0       ?loadtspo@@YAPAUtsp@@PBD0HH@Z 0040d1f0 f i tsp.obj
 0001:0000c1f0       ?getcurpart@qgatet@@UBEIXZ 0040d1f0 f i u_qgatebase.obj
 0001:0000c1f0       ?getcurpart@cnottop@@UBEIXZ 0040d1f0 f i u_qgatebase.obj
 0001:0000c1f0       ?getcurpart@qgatepm30@@UBEIXZ 0040d1f0 f i u_qgatebase.obj
 0001:0000c1f0       ?ToUnknown@TiXmlNode@@UBEPBVTiXmlUnknown@@XZ 0040d1f0 f i u_s_scratch.obj
 0001:0000c1f0       ?getcurpart@cp30top@@UBEIXZ 0040d1f0 f i u_qgatebase.obj
 0001:0000c1f0       ?getcurpart@qgategm1over3@@UBEIXZ 0040d1f0 f i u_qgatebase.obj
 0001:0000c1f0       ?getcurpart@toffoli4c0@@UBEIXZ 0040d1f0 f i u_qgatebase.obj
 0001:0000c1f0       ?getcurpart@qgatett@@UBEIXZ 0040d1f0 f i u_qgatebase.obj
 0001:0000c1f0       ?getcurpart@dectop@@UBEIXZ 0040d1f0 f i u_qgatebase.obj
 0001:0000c1f0       ?getcurpart@qgatemirror@@UBEIXZ 0040d1f0 f i u_qgatebase.obj
 0001:0000c1f0       ?getcurpart@swaptop@@UBEIXZ 0040d1f0 f i u_qgatebase.obj
 0001:0000c1f0       ?getcurpart@cpm30top@@UBEIXZ 0040d1f0 f i u_qgatebase.obj
 0001:0000c1f0       ___scrt_stub_for_initialize_mta 0040d1f0 f i LIBCMT:utility_desktop.obj
 0001:0000c1f0       ?getcurpart@qgates@@UBEIXZ 0040d1f0 f i u_qgatebase.obj
 0001:0000c1f0       ?getcurpart@qgatem1@@UBEIXZ 0040d1f0 f i u_qgatebase.obj
 0001:0000c1f0       ?ToText@TiXmlNode@@UBEPBVTiXmlText@@XZ 0040d1f0 f i u_s_scratch.obj
 0001:0000c1f0       ?getcurpart@cp45top@@UBEIXZ 0040d1f0 f i u_qgatebase.obj
 0001:0000c1f0       ?getcurpart@qgatebase@@UBEIXZ 0040d1f0 f i u_qcolumn.obj
 0001:0000c2d0       ?newclass_from_handle@?$factory2@Vshape@res2d@@@@QAEPAVshape@res2d@@AAVscript@@@Z 0040d2d0 f i n_carenalobby.obj
 0001:0000c660       ?setjrmcar@@YAXXZ          0040d660 f   n_carenalobby.obj
 0001:0000c760       _fprintf                   0040d760 f i n_carenalobby.obj
 0001:0000e1c0       ?buildconsscene@@YAPAVtree2@@PAUtrack@@@Z 0040f1c0 f   n_constructor.obj
 0001:0000e590       ?constructordraw2d@@YAXXZ  0040f590 f   n_constructor.obj
 0001:0000e630       ?constructordraw3d@@YAXXZ  0040f630 f   n_constructor.obj
 0001:0000e700       ?constructorexit@@YAXXZ    0040f700 f   n_constructor.obj
 0001:0000e7a0       ?constructorinit@@YAXXZ    0040f7a0 f   n_constructor.obj
 0001:0000ee40       ?constructorproc@@YAXXZ    0040fe40 f   n_constructor.obj
 0001:0000f550       ?loadtrackscript@@YAHPBDPAUtrk@@@Z 00410550 f   n_constructor.obj
 0001:0000fcd0       ?saveconstrack@@YAPBDPBDPAUtrk@@H@Z 00410cd0 f   n_constructor.obj
 0001:0000fdc0       ??$_Resize@V<lambda_12dfaeae96405c9c4e8f5553d7661d39>@@@?$vector@Uedge@@V?$allocator@Uedge@@@std@@@std@@AAEXIV<lambda_12dfaeae96405c9c4e8f5553d7661d39>@@@Z 00410dc0 f i n_faceverts.obj
 0001:0000fdc0       ??$_Resize@V<lambda_a889b173e7d3e9778bd1b706d5c5dbaa>@@@?$vector@Uuv@@V?$allocator@Uuv@@@std@@@std@@AAEXIV<lambda_a889b173e7d3e9778bd1b706d5c5dbaa>@@@Z 00410dc0 f i n_faceverts.obj
 0001:0000ff30       ??$_Resize@V<lambda_4dc5461d69b675381ab5835c6839cbc5>@@@?$vector@Uface@@V?$allocator@Uface@@@std@@@std@@AAEXIV<lambda_4dc5461d69b675381ab5835c6839cbc5>@@@Z 00410f30 f i n_faceverts.obj
 0001:0000ff30       ??$_Resize@V<lambda_6ad02696023777bee21b4e536321c9aa>@@@?$vector@Upointf3@@V?$allocator@Upointf3@@@std@@@std@@AAEXIV<lambda_6ad02696023777bee21b4e536321c9aa>@@@Z 00410f30 f i n_faceverts.obj
 0001:000100b0       ??0facevert@@QAE@XZ        004110b0 f i n_faceverts.obj
 0001:00010110       ?buildbackgndsectionfv@@YAPAUfacevert@@PAUbackgndsectioninfo@@@Z 00411110 f   n_faceverts.obj
 0001:00010350       ?getbacky@@YAXPAUpointf3@@@Z 00411350 f   n_faceverts.obj
 0001:000103a0       ?_Tidy@?$vector@Upointf3@@V?$allocator@Upointf3@@@std@@@std@@AAEXXZ 004113a0 f i engq:d2_model.obj
 0001:000103a0       ?_Tidy@?$vector@UIDX3M@@V?$allocator@UIDX3M@@@std@@@std@@AAEXXZ 004113a0 f i engq:d2_bwo.obj
 0001:000103a0       ??1?$vector@UIDX3M@@V?$allocator@UIDX3M@@@std@@@std@@QAE@XZ 004113a0 f i engq:d2_bwo.obj
 0001:000103a0       ??1?$vector@UVC3M@@V?$allocator@UVC3M@@@std@@@std@@QAE@XZ 004113a0 f i engq:m_chunk.obj
 0001:000103a0       ??1?$vector@Upointf3@@V?$allocator@Upointf3@@@std@@@std@@QAE@XZ 004113a0 f i n_jrmcars.obj
 0001:000103a0       ??1?$vector@Uface@@V?$allocator@Uface@@@std@@@std@@QAE@XZ 004113a0 f i n_jrmcars.obj
 0001:000103a0       ?_Tidy@?$vector@UVC3M@@V?$allocator@UVC3M@@@std@@@std@@AAEXXZ 004113a0 f i engq:m_chunk.obj
 0001:00010400       ??1?$vector@Upointi2@@V?$allocator@Upointi2@@@std@@@std@@QAE@XZ 00411400 f i u_qr_code2scan.obj
 0001:00010400       ??1?$vector@Vfraction@@V?$allocator@Vfraction@@@std@@@std@@QAE@XZ 00411400 f i u_s_polynomial.obj
 0001:00010400       ?_Tidy@?$vector@Upointf2@@V?$allocator@Upointf2@@@std@@@std@@AAEXXZ 00411400 f i u_s_plot2pointcloud.obj
 0001:00010400       ??1?$vector@Uuv@@V?$allocator@Uuv@@@std@@@std@@QAE@XZ 00411400 f i n_jrmcars.obj
 0001:00010400       ??1?$vector@Vzee2@@V?$allocator@Vzee2@@@std@@@std@@QAE@XZ 00411400 f i engq:augmatz.obj
 0001:00010400       ?_Tidy@?$vector@Vzee2@@V?$allocator@Vzee2@@@std@@@std@@AAEXXZ 00411400 f i engq:augmatz.obj
 0001:00010400       ??1polynomial@@QAE@XZ      00411400 f i u_s_polynomial.obj
 0001:00010400       ?_Tidy@?$vector@UVC2@@V?$allocator@UVC2@@@std@@@std@@AAEXXZ 00411400 f i engq:d2_bwo.obj
 0001:00010400       ??1?$vector@Upointf2@@V?$allocator@Upointf2@@@std@@@std@@QAE@XZ 00411400 f i u_pointcloudkdtree.obj
 0001:00010400       ??1?$vector@Uturndata@@V?$allocator@Uturndata@@@std@@@std@@QAE@XZ 00411400 f i u_s_game2_endgame.obj
 0001:00010400       ??1?$vector@UVC2@@V?$allocator@UVC2@@@std@@@std@@QAE@XZ 00411400 f i engq:d2_bwo.obj
 0001:00010400       ??1?$vector@V?$complex@M@std@@V?$allocator@V?$complex@M@std@@@2@@std@@QAE@XZ 00411400 f i u_qstate.obj
 0001:00010400       ?_Tidy@?$vector@Uuv@@V?$allocator@Uuv@@@std@@@std@@AAEXXZ 00411400 f i u_s_toon.obj
 0001:00010a20       ?deleterc@?$referencecount@Vtextureb@@@@QAEXPAVtextureb@@@Z 00411a20 f i n_jrmcars.obj
 0001:00010ad0       ?loadnewjrms2@@YAPAVtree2@@PBDHH@Z 00411ad0 f   n_jrmcars.obj
 0001:00012030       ??0?$vector@IV?$allocator@I@std@@@std@@QAE@IABV?$allocator@I@1@@Z 00413030 f i u_ar_scan.obj
 0001:00012030       ??0?$vector@HV?$allocator@H@std@@@std@@QAE@IABV?$allocator@H@1@@Z 00413030 f i n_line2road.obj
 0001:000120d0       ??1?$vector@PAVshape@u_s_arena2@@V?$allocator@PAVshape@u_s_arena2@@@std@@@std@@QAE@XZ 004130d0 f i u_s_arena2.obj
 0001:000120d0       ?_Tidy@?$vector@IV?$allocator@I@std@@@std@@AAEXXZ 004130d0 f i u_bch.obj
 0001:000120d0       ?_Tidy@?$vector@HV?$allocator@H@std@@@std@@AAEXXZ 004130d0 f i u_ply.obj
 0001:000120d0       ??1?$vector@MV?$allocator@M@std@@@std@@QAE@XZ 004130d0 f i quant3.obj
 0001:000120d0       ??1?$vector@PAVtree2@@V?$allocator@PAVtree2@@@std@@@std@@QAE@XZ 004130d0 f i helperobj.obj
 0001:000120d0       ??1?$vector@IV?$allocator@I@std@@@std@@QAE@XZ 004130d0 f i u_ar_scan.obj
 0001:000120d0       ?_Tidy@?$vector@PAVtree2@@V?$allocator@PAVtree2@@@std@@@std@@AAEXXZ 004130d0 f i engq:d2_bws.obj
 0001:000120d0       ??1?$vector@PAVshape@res3d@@V?$allocator@PAVshape@res3d@@@std@@@std@@QAE@XZ 004130d0 f i misclibq:l_res3d.obj
 0001:000120d0       ??1?$vector@Vpiece2@@V?$allocator@Vpiece2@@@std@@@std@@QAE@XZ 004130d0 f i u_game2.obj
 0001:000120d0       ??1?$vector@PAVuitree@@V?$allocator@PAVuitree@@@std@@@std@@QAE@XZ 004130d0 f i u_uiclass.obj
 0001:000120d0       ??1?$vector@PAUwavehandle@@V?$allocator@PAUwavehandle@@@std@@@std@@QAE@XZ 004130d0 f i u_s_arena1.obj
 0001:000120d0       ??1cycle@ga@@QAE@XZ        004130d0 f i u_groupanalyze.obj
 0001:000120d0       ?_Tidy@?$vector@Vpiece2@@V?$allocator@Vpiece2@@@std@@@std@@AAEXXZ 004130d0 f i u_s_game2_endgame.obj
 0001:000120d0       ??1?$vector@PAVqgatebase@@V?$allocator@PAVqgatebase@@@std@@@std@@QAE@XZ 004130d0 f i u_qcolumn.obj
 0001:000120d0       ??1?$vector@PAVscript@@V?$allocator@PAVscript@@@std@@@std@@QAE@XZ 004130d0 f i engq:m_script.obj
 0001:000120d0       ??1?$vector@PAVshape@res2d@@V?$allocator@PAVshape@res2d@@@std@@@std@@QAE@XZ 004130d0 f i misclibq:l_res.obj
 0001:000120d0       ??1perm@smallgroups@@QAE@XZ 004130d0 f i u_smallgroups.obj
 0001:000120d0       ??1?$_Vb_val@V?$allocator@_N@std@@@std@@QAE@XZ 004130d0 f i u_permiter.obj
 0001:000120d0       ??1?$vector@_NV?$allocator@_N@std@@@std@@QAE@XZ 004130d0 f i u_permiter.obj
 0001:000120d0       ??1?$vector@HV?$allocator@H@std@@@std@@QAE@XZ 004130d0 f i n_line2road.obj
 0001:00012130       ?addbbox2collgrid@n_line2road@@YAXPBVtree2@@@Z 00413130 f   n_line2road.obj
 0001:00012ab0       ?st2_freecollgrids@n_line2road@@YAXXZ 00413ab0 f   n_line2road.obj
 0001:00012b20       ?st2_line2road@n_line2road@@YA_NPBUpointf3@@0PAU2@1@Z 00413b20 f   n_line2road.obj
 0001:00012fb0       ?st2_loadcollist@n_line2road@@YAXPBDPBVtree2@@@Z 00413fb0 f   n_line2road.obj
 0001:000139c0       ??$_Emplace_reallocate@ABUface@@@?$vector@Uface@@V?$allocator@Uface@@@std@@@std@@QAEPAUface@@QAU2@ABU2@@Z 004149c0 f i n_marching.obj
 0001:00013ae0       ??$_Emplace_reallocate@ABUIDX3M@@@?$vector@UIDX3M@@V?$allocator@UIDX3M@@@std@@@std@@QAEPAUIDX3M@@QAU2@ABU2@@Z 00414ae0 f i engq:m_chunk.obj
 0001:00013ae0       ??$_Emplace_reallocate@ABUPOS_LIN@@@?$vector@UPOS_LIN@@V?$allocator@UPOS_LIN@@@std@@@std@@QAEPAUPOS_LIN@@QAU2@ABU2@@Z 00414ae0 f i engq:d2_bws.obj
 0001:00013ae0       ??$_Emplace_reallocate@ABUVC3M@@@?$vector@UVC3M@@V?$allocator@UVC3M@@@std@@@std@@QAEPAUVC3M@@QAU2@ABU2@@Z 00414ae0 f i engq:m_chunk.obj
 0001:00013ae0       ??$_Emplace_reallocate@ABUpointf3@@@?$vector@Upointf3@@V?$allocator@Upointf3@@@std@@@std@@QAEPAUpointf3@@QAU2@ABU2@@Z 00414ae0 f i n_marching.obj
 0001:00013ae0       ??$_Emplace_reallocate@ABUaline@octMirror@@@?$vector@Ualine@octMirror@@V?$allocator@Ualine@octMirror@@@std@@@std@@QAEPAUaline@octMirror@@QAU23@ABU23@@Z 00414ae0 f i u_s_plot2octmirror.obj
 0001:00013ae0       ??$_Emplace_reallocate@ABUSCL_LIN@@@?$vector@USCL_LIN@@V?$allocator@USCL_LIN@@@std@@@std@@QAEPAUSCL_LIN@@QAU2@ABU2@@Z 00414ae0 f i engq:d2_bws.obj
 0001:00013ae0       ??$_Emplace_reallocate@ABUgroup2@@@?$vector@Ugroup2@@V?$allocator@Ugroup2@@@std@@@std@@QAEPAUgroup2@@QAU2@ABU2@@Z 00414ae0 f i engq:d2_model.obj
 0001:00013c40       ??$_Emplace_reallocate@ABUpointi2@@@?$vector@Upointi2@@V?$allocator@Upointi2@@@std@@@std@@QAEPAUpointi2@@QAU2@ABU2@@Z 00414c40 f i u_ar_scan.obj
 0001:00013c40       ??$_Emplace_reallocate@ABUFLOAT_LIN@@@?$vector@UFLOAT_LIN@@V?$allocator@UFLOAT_LIN@@@std@@@std@@QAEPAUFLOAT_LIN@@QAU2@ABU2@@Z 00414c40 f i engq:d2_bws.obj
 0001:00013c40       ??$_Emplace_reallocate@ABUturndata@@@?$vector@Uturndata@@V?$allocator@Uturndata@@@std@@@std@@QAEPAUturndata@@QAU2@ABU2@@Z 00414c40 f i u_s_game2_endgame.obj
 0001:00013c40       ??$_Emplace_reallocate@Upointi2@@@?$vector@Upointi2@@V?$allocator@Upointi2@@@std@@@std@@QAEPAUpointi2@@QAU2@$$QAU2@@Z 00414c40 f i u_s_honeycomb.obj
 0001:00013c40       ??$_Emplace_reallocate@ABUVC2@@@?$vector@UVC2@@V?$allocator@UVC2@@@std@@@std@@QAEPAUVC2@@QAU2@ABU2@@Z 00414c40 f i engq:m_chunk.obj
 0001:00013c40       ??$_Emplace_reallocate@ABUuv@@@?$vector@Uuv@@V?$allocator@Uuv@@@std@@@std@@QAEPAUuv@@QAU2@ABU2@@Z 00414c40 f i n_marching.obj
 0001:00013db0       ??$buildpatch@Vspheref_surf@@@@YAXPAVmodelb@@HHMMVspheref_surf@@PBD2@Z 00414db0 f i n_marching.obj
 0001:00014130       ??0?$vector@Uface@@V?$allocator@Uface@@@std@@@std@@QAE@ABV01@@Z 00415130 f i n_marching.obj
 0001:000141b0       ??_G?$vector@Upointf3@@V?$allocator@Upointf3@@@std@@@std@@QAEPAXI@Z 004151b0 f i n_marching.obj
 0001:00014820       ?allocate@?$allocator@Uface@@@std@@QAEPAUface@@I@Z 00415820 f i n_marching.obj
 0001:00014820       ?allocate@?$allocator@Upointf3@@@std@@QAEPAUpointf3@@I@Z 00415820 f i n_meshtest.obj
 0001:00014820       ?allocate@?$allocator@Upiece@jelly@@@std@@QAEPAUpiece@jelly@@I@Z 00415820 f i u_s_jelly.obj
 0001:00014820       ?allocate@?$allocator@Vply@@@std@@QAEPAVply@@I@Z 00415820 f i u_ply.obj
 0001:00014d80       ?march_test@@YAPAVtree2@@MHABUpointf3@@0P6AMMMM@Z@Z 00415d80 f   n_marching.obj
 0001:000151a0       ?marchingcubestest_draw3d@@YAXXZ 004161a0 f   n_marchingtest.obj
 0001:000151d0       ?marchingcubestest_exit@@YAXXZ 004161d0 f   n_marchingtest.obj
 0001:00015240       ?marchingcubestest_init@@YAXXZ 00416240 f   n_marchingtest.obj
 0001:000153b0       ?marchingcubestest_proc@@YAXXZ 004163b0 f   n_marchingtest.obj
 0001:00015650       ??$_Insert_range@PAUpointf3@@@?$vector@Upointf3@@V?$allocator@Upointf3@@@std@@@std@@AAEXV?$_Vector_const_iterator@V?$_Vector_val@U?$_Simple_types@Upointf3@@@std@@@std@@@1@PAUpointf3@@1Uforward_iterator_tag@1@@Z 00416650 f i n_meshtest.obj
 0001:00015650       ??$_Insert_range@PBUpointf3@@@?$vector@Upointf3@@V?$allocator@Upointf3@@@std@@@std@@AAEXV?$_Vector_const_iterator@V?$_Vector_val@U?$_Simple_types@Upointf3@@@std@@@std@@@1@PBUpointf3@@1Uforward_iterator_tag@1@@Z 00416650 f i n_meshtest.obj
 0001:00015810       ??$_Insert_range@PBUuv@@@?$vector@Uuv@@V?$allocator@Uuv@@@std@@@std@@AAEXV?$_Vector_const_iterator@V?$_Vector_val@U?$_Simple_types@Uuv@@@std@@@std@@@1@PBUuv@@1Uforward_iterator_tag@1@@Z 00416810 f i n_meshtest.obj
 0001:00015810       ??$_Insert_range@PAUuv@@@?$vector@Uuv@@V?$allocator@Uuv@@@std@@@std@@AAEXV?$_Vector_const_iterator@V?$_Vector_val@U?$_Simple_types@Uuv@@@std@@@std@@@1@PAUuv@@1Uforward_iterator_tag@1@@Z 00416810 f i n_meshtest.obj
 0001:000159d0       ??$range@M@@YAMABM00@Z     004169d0 f i n_meshtest.obj
 0001:00015a20       ??0?$vector@Uboardcollinfo@jelly@@V?$allocator@Uboardcollinfo@jelly@@@std@@@std@@QAE@XZ 00416a20 f i u_s_jelly.obj
 0001:00015a20       ??0?$vector@Uboardcollinfo@sokoban2@@V?$allocator@Uboardcollinfo@sokoban2@@@std@@@std@@QAE@XZ 00416a20 f i u_s_sokoban2.obj
 0001:00015a20       ??0?$vector@Uboardcollinfo@sokoban@@V?$allocator@Uboardcollinfo@sokoban@@@std@@@std@@QAE@XZ 00416a20 f i u_s_sokoban.obj
 0001:00015a20       ??0?$vector@Uboardcollinfo@slider@@V?$allocator@Uboardcollinfo@slider@@@std@@@std@@QAE@XZ 00416a20 f i u_s_slider.obj
 0001:00015a20       ??0?$vector@Uboardcollinfo@wriggler@@V?$allocator@Uboardcollinfo@wriggler@@@std@@@std@@QAE@XZ 00416a20 f i u_s_wriggler.obj
 0001:00015a20       ??0?$vector@UVC2@@V?$allocator@UVC2@@@std@@@std@@QAE@XZ 00416a20 f i engq:d2_bwo.obj
 0001:00015a20       ??0?$vector@Uface@@V?$allocator@Uface@@@std@@@std@@QAE@XZ 00416a20 f i n_meshtest.obj
 0001:00015a20       ??0?$vector@Upointf3@@V?$allocator@Upointf3@@@std@@@std@@QAE@XZ 00416a20 f i n_meshtest.obj
 0001:00015a20       ??0?$vector@Uuv@@V?$allocator@Uuv@@@std@@@std@@QAE@XZ 00416a20 f i n_meshtest.obj
 0001:00015a40       ??0?$vector@Uuv@@V?$allocator@Uuv@@@std@@@std@@QAE@IABV?$allocator@Uuv@@@1@@Z 00416a40 f i n_meshtest.obj
 0001:00015ac0       ?_Change_array@?$vector@Upointf3@@V?$allocator@Upointf3@@@std@@@std@@AAEXQAUpointf3@@II@Z 00416ac0 f i n_meshtest.obj
 0001:00015b20       ?_Change_array@?$vector@Upointf2@@V?$allocator@Upointf2@@@std@@@std@@AAEXQAUpointf2@@II@Z 00416b20 f i u_pointcloudkdtree.obj
 0001:00015b20       ?_Change_array@?$vector@Uuv@@V?$allocator@Uuv@@@std@@@std@@AAEXQAUuv@@II@Z 00416b20 f i n_meshtest.obj
 0001:00015b20       ?_Change_array@?$vector@Vfraction@@V?$allocator@Vfraction@@@std@@@std@@AAEXQAVfraction@@II@Z 00416b20 f i engq:math_abstract.obj
 0001:00015b80       ?allocate@?$allocator@Upointf2@@@std@@QAEPAUpointf2@@I@Z 00416b80 f i u_pointcloudkdtree.obj
 0001:00015b80       ?allocate@?$allocator@Vzee2@@@std@@QAEPAVzee2@@I@Z 00416b80 f i engq:augmatz.obj
 0001:00015b80       ?allocate@?$allocator@Vfraction@@@std@@QAEPAVfraction@@I@Z 00416b80 f i u_s_polynomial.obj
 0001:00015b80       ?allocate@?$allocator@V?$complex@M@std@@@std@@QAEPAV?$complex@M@2@I@Z 00416b80 f i u_qmat.obj
 0001:00015b80       ?allocate@?$allocator@Uuv@@@std@@QAEPAUuv@@I@Z 00416b80 f i n_meshtest.obj
 0001:00015bf0       ?buildfaces@@YAPAUface@@PBUpointf3@@HPAH@Z 00416bf0 f   n_meshtest.obj
 0001:00015f30       ?buildmt@@YAPAVtree2@@PBD0PAUpointf3@@PAUuv@@H@Z 00416f30 f   n_meshtest.obj
 0001:000161a0       ?buildmts@@YAPAVtree2@@PBD0ABUpolylist@@0@Z 004171a0 f   n_meshtest.obj
 0001:00016c40       ?meshtestdraw2d@@YAXXZ     00417c40 f   n_meshtest.obj
 0001:00016c50       ?meshtestdraw3d@@YAXXZ     00417c50 f   n_meshtest.obj
 0001:00016d10       ?meshtestexit@@YAXXZ       00417d10 f   n_meshtest.obj
 0001:00016de0       ?meshtestinit@@YAXXZ       00417de0 f   n_meshtest.obj
 0001:00016fa0       ?meshtestproc@@YAXXZ       00417fa0 f   n_meshtest.obj
 0001:00017330       ??$_Emplace_reallocate@ABUsection@@@?$vector@Usection@@V?$allocator@Usection@@@std@@@std@@QAEPAUsection@@QAU2@ABU2@@Z 00418330 f i n_newconstructor.obj
 0001:00017440       ??$_Resize@V<lambda_558e93fc29cdd5bef27241ba1ff8d118>@@@?$vector@Usection@@V?$allocator@Usection@@@std@@@std@@AAEXIV<lambda_558e93fc29cdd5bef27241ba1ff8d118>@@@Z 00418440 f i n_newconstructor.obj
 0001:00017550       ??$find@Vvscroll@res2d@@@shape@res2d@@QAEPAVvscroll@1@PBD@Z 00418550 f i n_newconstructor.obj
 0001:000175c0       ??1?$vector@Usection@@V?$allocator@Usection@@@std@@@std@@QAE@XZ 004185c0 f i n_newconstructor.obj
 0001:00017630       ??1facevert@@QAE@XZ        00418630 f i n_newconstructor.obj
 0001:00017770       ??_Gpolylist@@QAEPAXI@Z    00418770 f i n_newconstructor.obj
 0001:000178a0       ?_Change_array@?$vector@Usection@@V?$allocator@Usection@@@std@@@std@@AAEXQAUsection@@II@Z 004188a0 f i n_newconstructor.obj
 0001:00017920       ?buildnewconsscene@@YAPAVtree2@@PBUnewtrack@@@Z 00418920 f   n_newconstructor.obj
 0001:00018150       ?freenewtrackscript@@YAXPAUnewtrack@@@Z 00419150 f   n_newconstructor.obj
 0001:00018180       ?loadnewtrackscript@@YAPAUnewtrack@@PBD@Z 00419180 f   n_newconstructor.obj
 0001:00018a00       ?newconstructordraw2d@@YAXXZ 00419a00 f   n_newconstructor.obj
 0001:00018b50       ?newconstructordraw3d@@YAXXZ 00419b50 f   n_newconstructor.obj
 0001:00018c20       ?newconstructorexit@@YAXXZ 00419c20 f   n_newconstructor.obj
 0001:00018cb0       ?newconstructorinit@@YAXXZ 00419cb0 f   n_newconstructor.obj
 0001:000194d0       ?newconstructorproc@@YAXXZ 0041a4d0 f   n_newconstructor.obj
 0001:00019d90       ?readnewtrack@@YAPAUnewtrack@@PBEI@Z 0041ad90 f   n_newconstructor.obj
 0001:00019e10       ?savenewconstrack@@YAPBDPBDPBUnewtrack@@H@Z 0041ae10 f   n_newconstructor.obj
 0001:0001a480       ?writenewtrack@@YAPAEPBUnewtrack@@PAI@Z 0041b480 f   n_newconstructor.obj
 0001:0001a590       ?drawkeybuff@@YAXXZ        0041b590 f   n_packet.obj
 0001:0001a710       ?firstinvalidkeybuff@@YAHXZ 0041b710 f   n_packet.obj
 0001:0001a770       ?getkeybuff@@YAXH@Z        0041b770 f   n_packet.obj
 0001:0001a8c0       ?packetreadbuff@@YAXXZ     0041b8c0 f   n_packet.obj
 0001:0001ae30       ?packetsendhere@@YAXXZ     0041be30 f   n_packet.obj
 0001:0001ae60       ?packetsendkey@@YAXHHHHHHH@Z 0041be60 f   n_packet.obj
 0001:0001aeb0       ?packetwritebuff@@YAXXZ    0041beb0 f   n_packet.obj
 0001:0001aef0       ?remkeybuff@@YAXH@Z        0041bef0 f   n_packet.obj
 0001:0001af60       ?resetkeybuff@@YAXXZ       0041bf60 f   n_packet.obj
 0001:0001afa0       ?twrestore0@@YAXXZ         0041bfa0 f   n_packet.obj
 0001:0001b030       ?twrestoren@@YAXXZ         0041c030 f   n_packet.obj
 0001:0001b060       ?twsave0@@YAXXZ            0041c060 f   n_packet.obj
 0001:0001b140       ?twsaven@@YAXXZ            0041c140 f   n_packet.obj
 0001:0001b160       ?docarphysics@n_physics@@YAXPAUcaro@@@Z 0041c160 f   n_physics.obj
 0001:0001b2d0       ??$_Resize@V<lambda_d59c6f660a77e94666973ade55898cdf>@@@?$vector@Upoly@@V?$allocator@Upoly@@@std@@@std@@AAEXIV<lambda_d59c6f660a77e94666973ade55898cdf>@@@Z 0041c2d0 f i n_polylist.obj
 0001:0001b4c0       ??1poly@@QAE@XZ            0041c4c0 f i n_polylist.obj
 0001:0001b560       ??4?$vector@Upointf3@@V?$allocator@Upointf3@@@std@@@std@@QAEAAV01@ABV01@@Z 0041c560 f i n_polylist.obj
 0001:0001b670       ??4?$vector@Uuv@@V?$allocator@Uuv@@@std@@@std@@QAEAAV01@ABV01@@Z 0041c670 f i n_polylist.obj
 0001:0001b670       ??4?$vector@Upointf2@@V?$allocator@Upointf2@@@std@@@std@@QAEAAV01@ABV01@@Z 0041c670 f i u_pointcloudkdtree.obj
 0001:0001b780       ??R<lambda_d59c6f660a77e94666973ade55898cdf>@@QBEPAUpoly@@PAU1@I@Z 0041c780 f i n_polylist.obj
 0001:0001b7e0       ?_Buy@?$vector@Upointf3@@V?$allocator@Upointf3@@@std@@@std@@AAE_NI@Z 0041c7e0 f i n_polylist.obj
 0001:0001b7e0       ?_Buy@?$vector@Uface@@V?$allocator@Uface@@@std@@@std@@AAE_NI@Z 0041c7e0 f i engq:d2_model.obj
 0001:0001b840       ?_Buy@?$vector@Uuv@@V?$allocator@Uuv@@@std@@@std@@AAE_NI@Z 0041c840 f i n_polylist.obj
 0001:0001b840       ?_Buy@?$vector@Vfraction@@V?$allocator@Vfraction@@@std@@@std@@AAE_NI@Z 0041c840 f i engq:math_abstract.obj
 0001:0001b840       ?_Buy@?$vector@V?$complex@M@std@@V?$allocator@V?$complex@M@std@@@2@@std@@AAE_NI@Z 0041c840 f i u_qmat.obj
 0001:0001b840       ?_Buy@?$vector@Upointf2@@V?$allocator@Upointf2@@@std@@@std@@AAE_NI@Z 0041c840 f i u_pointcloudkdtree.obj
 0001:0001b8a0       ?addlinearuvspolylist@@YAXPAUpolylist@@MMMM@Z 0041c8a0 f   n_polylist.obj
 0001:0001b930       ?allocate@?$allocator@Upoly@@@std@@QAEPAUpoly@@I@Z 0041c930 f i n_polylist.obj
 0001:0001b930       ?allocate@?$allocator@Ucapture_path@@@std@@QAEPAUcapture_path@@I@Z 0041c930 f i u_s_castle.obj
 0001:0001b9a0       ?backypolylist@@YAXPAUpolylist@@@Z 0041c9a0 f   n_polylist.obj
 0001:0001b9e0       ?boolab@@YAPAUpolylist@@PAU1@0W4boolop@@@Z 0041c9e0 f   n_polylist.obj
 0001:0001bab0       ?boolabintsectm1@@YAPAUpolylist@@PBU1@ABV?$vector@Upointf3@@V?$allocator@Upointf3@@@std@@@std@@ABV?$vector@Uedge@@V?$allocator@Uedge@@@std@@@3@@Z 0041cab0 f   n_polylist.obj
 0001:0001c290       ?boolabs@@YAXPBUpoly@@0PAUpolylist@@W4boolop@@@Z 0041d290 f   n_polylist.obj
 0001:0001d1a0       ?buildapolylist@@YAPAVtree2@@PAUpolylist@@PAD11@Z 0041e1a0 f   n_polylist.obj
 0001:0001d520       ?convertfaceverts2polylist@@YAPAUpolylist@@PAUfacevert@@@Z 0041e520 f   n_polylist.obj
 0001:0001d6e0       ?convertfaceverts2polylisto@@YAPAUpolylist@@PAUfacevert@@@Z 0041e6e0 f   n_polylist.obj
 0001:0001da70       ?deallocate@?$allocator@Uface@@@std@@QAEXQAUface@@I@Z 0041ea70 f i engq:d2_model.obj
 0001:0001da70       ?deallocate@?$allocator@Upointf3@@@std@@QAEXQAUpointf3@@I@Z 0041ea70 f i n_polylist.obj
 0001:0001da70       ?deallocate@?$allocator@Vply@@@std@@QAEXQAVply@@I@Z 0041ea70 f i u_ply.obj
 0001:0001da70       ?deallocate@?$allocator@Upiece@jelly@@@std@@QAEXQAUpiece@jelly@@I@Z 0041ea70 f i u_s_jelly.obj
 0001:0001dab0       ?deallocate@?$allocator@Vfraction@@@std@@QAEXQAVfraction@@I@Z 0041eab0 f i u_s_polynomial.obj
 0001:0001dab0       ?deallocate@?$allocator@Uuv@@@std@@QAEXQAUuv@@I@Z 0041eab0 f i n_polylist.obj
 0001:0001dab0       ?deallocate@?$allocator@V?$complex@M@std@@@std@@QAEXQAV?$complex@M@2@I@Z 0041eab0 f i u_qstate.obj
 0001:0001dab0       ?deallocate@?$allocator@Vzee2@@@std@@QAEXQAVzee2@@I@Z 0041eab0 f i engq:augmatz.obj
 0001:0001dab0       ?deallocate@?$allocator@Upointf2@@@std@@QAEXQAUpointf2@@I@Z 0041eab0 f i u_pointcloudkdtree.obj
 0001:0001dbd0       ?inside@@YAHPAUpoly@@PAUpointf3@@@Z 0041ebd0 f   n_polylist.obj
 0001:0001dce0       ?setm1tobackgnd@@YAXPAUpolylist@@@Z 0041ece0 f   n_polylist.obj
 0001:0001deb0       ?drawrematch@@YAXXZ        0041eeb0 f   n_rematch.obj
 0001:0001df40       ?freerematch@@YAXXZ        0041ef40 f   n_rematch.obj
 0001:0001df60       ?loadrematch@@YAXXZ        0041ef60 f   n_rematch.obj
 0001:0001e0b0       ?procrematch@@YAXXZ        0041f0b0 f   n_rematch.obj
 0001:0001e1c0       ?freescrline@@YAXXZ        0041f1c0 f   n_scrline.obj
 0001:0001e1e0       ?loadscrline@@YAXXZ        0041f1e0 f   n_scrline.obj
 0001:0001e940       ?MD5Update@@YAXPAUMD5_CTX@@PAEI@Z 0041f940 f   n_trackhash.obj
 0001:0001ea10       ?gettrackhash@@YAXPAEH0@Z  0041fa10 f   n_trackhash.obj
 0001:0001eb20       ?freetracklist@@YAXXZ      0041fb20 f   n_tracklist.obj
 0001:0001eba0       ?hastrackhash@@YAPBDQAE@Z  0041fba0 f   n_tracklist.obj
 0001:0001ec60       ?inittracklist@@YAXXZ      0041fc60 f   n_tracklist.obj
 0001:0001f010       ?tracklistnum@@YAHXZ       00420010 f   n_tracklist.obj
 0001:0001f040       ?uniquetrackname@@YAPBDPBD@Z 00420040 f   n_tracklist.obj
 0001:0001f340       ?draw@twcarobj@@EAEXXZ     00420340 f i n_twobj.obj
 0001:0001f350       ?draw@twflyobj@@EAEXXZ     00420350 f i n_twobj.obj
 0001:0001f360       ?draw@twobj@@UAEXXZ        00420360 f i n_twobj.obj
 0001:0001f370       ?proc@twcarobj@@EAEXXZ     00420370 f i n_twobj.obj
 0001:0001f380       ?proc@twflyobj@@EAEXXZ     00420380 f i n_twobj.obj
 0001:0001f390       ?proc@twobj@@UAEXXZ        00420390 f i n_twobj.obj
 0001:0001f3a0       ?twobjtest@@YAXXZ          004203a0 f   n_twobj.obj
 0001:0001f4d0       ?findcarwheels@@YAXPAVtree2@@PAPAV1@@Z 004204d0 f   n_useful.obj
 0001:0001f560       ?findtreestrstrrec@@YAPAVtree2@@PAV1@PBD@Z 00420560 f   n_useful.obj
 0001:0001f5c0       ?hideregpoints@@YAXPAVtree2@@@Z 004205c0 f   n_useful.obj
 0001:0001f5e0       ?intersectline2d@@YAHPBUpointf3@@000PAU1@PAM2@Z 004205e0 f   n_useful.obj
 0001:0001f730       ?loadenergymatrix@@YAXXZ   00420730 f   n_useful.obj
 0001:0001faa0       ??$_Range_construct_or_tidy@PBUpointf3@@@?$vector@Upointf3@@V?$allocator@Upointf3@@@std@@@std@@AAEXPBUpointf3@@0Uforward_iterator_tag@1@@Z 00420aa0 f i helperobj.obj
 0001:0001fb50       ??$_Range_construct_or_tidy@PBUuv@@@?$vector@Uuv@@V?$allocator@Uuv@@@std@@@std@@AAEXPBUuv@@0Uforward_iterator_tag@1@@Z 00420b50 f i helperobj.obj
 0001:0001fc00       ??0helperobj@@QAE@XZ       00420c00 f   helperobj.obj
 0001:0001fe50       ??1helperobj@@QAE@XZ       00420e50 f   helperobj.obj
 0001:0001fec0       ?addbox@helperobj@@QAEXPAVtree2@@ABUpointf3@@11@Z 00420ec0 f   helperobj.obj
 0001:000200f0       ?addjack@helperobj@@QAEXPAVtree2@@ABUpointf3@@M1@Z 004210f0 f   helperobj.obj
 0001:00020220       ?addline@helperobj@@QAEXPAVtree2@@ABUpointf3@@11@Z 00421220 f   helperobj.obj
 0001:000203d0       ?addsphere@helperobj@@QAEXPAVtree2@@ABUpointf3@@M1@Z 004213d0 f   helperobj.obj
 0001:00020530       ?addvector@helperobj@@QAEXPAVtree2@@ABUpointf3@@11@Z 00421530 f   helperobj.obj
 0001:00020b70       ?reset@helperobj@@QAEXXZ   00421b70 f   helperobj.obj
 0001:00020bb0       ?setlinger@helperobj@@QAEX_N@Z 00421bb0 f   helperobj.obj
 0001:00020bc0       ?addbbox2collgrid@hw35_line2road@@YAXPAVtree2@@@Z 00421bc0 f   hw35_line2road.obj
 0001:00020d20       ?addcolltree@hw35_line2road@@YAXHPAVtree2@@PAPAUpointf3@@PAU3@22@Z 00421d20 f   hw35_line2road.obj
 0001:00021150       ?initcolltree@hw35_line2road@@YAXXZ 00422150 f   hw35_line2road.obj
 0001:000213b0       ?remcolltree@hw35_line2road@@YAXH@Z 004223b0 f   hw35_line2road.obj
 0001:00021ea0       ?st2_callsurffunc@hw35_line2road@@YAXXZ 00422ea0 f   hw35_line2road.obj
 0001:00021ef0       ?st2_enablesurffunc@hw35_line2road@@YAXXZ 00422ef0 f   hw35_line2road.obj
 0001:00021f00       ?st2_freecollgrids@hw35_line2road@@YAXXZ 00422f00 f   hw35_line2road.obj
 0001:00021f90       ?st2_line2road@hw35_line2road@@YAPAVtree2@@PAUpointf3@@000@Z 00422f90 f   hw35_line2road.obj
 0001:00022420       ?st2_line2roadlo@hw35_line2road@@YAPAVtree2@@PAUpointf3@@000@Z 00423420 f   hw35_line2road.obj
 0001:00022640       ?st2_loadcollist@hw35_line2road@@YAXPADPAVtree2@@@Z 00423640 f   hw35_line2road.obj
 0001:00022da0       ?st2_setupmatfuncs@hw35_line2road@@YAXPAUsmatfunc@1@H@Z 00423da0 f   hw35_line2road.obj
 0001:00022dc0       ?nfschoose_draw3d@@YAXXZ   00423dc0 f   nfs_choose.obj
 0001:00022fb0       ?nfschoose_exit@@YAXXZ     00423fb0 f   nfs_choose.obj
 0001:00023090       ?nfschoose_init@@YAXXZ     00424090 f   nfs_choose.obj
 0001:00023150       ?nfschoose_proc@@YAXXZ     00424150 f   nfs_choose.obj
 0001:000232d0       ??$?HDU?$char_traits@D@std@@V?$allocator@D@1@@std@@YA?AV?$basic_string@DU?$char_traits@D@std@@V?$allocator@D@2@@0@ABV10@QBD@Z 004242d0 f i nfs_entername.obj
 0001:00023480       ??$_Emplace_reallocate@ABUitem@nfs_smile@@@?$vector@Uitem@nfs_smile@@V?$allocator@Uitem@nfs_smile@@@std@@@std@@QAEPAUitem@nfs_smile@@QAU23@ABU23@@Z 00424480 f i nfs_smile.obj
 0001:00023480       ??$_Emplace_reallocate@ABUitem@nfs_readyrace@@@?$vector@Uitem@nfs_readyrace@@V?$allocator@Uitem@nfs_readyrace@@@std@@@std@@QAEPAUitem@nfs_readyrace@@QAU23@ABU23@@Z 00424480 f i nfs_readyrace.obj
 0001:00023480       ??$_Emplace_reallocate@ABUROT_BEZ@@@?$vector@UROT_BEZ@@V?$allocator@UROT_BEZ@@@std@@@std@@QAEPAUROT_BEZ@@QAU2@ABU2@@Z 00424480 f i engq:d2_bws.obj
 0001:00023480       ??$_Emplace_reallocate@ABUitem@nfs_game@@@?$vector@Uitem@nfs_game@@V?$allocator@Uitem@nfs_game@@@std@@@std@@QAEPAUitem@nfs_game@@QAU23@ABU23@@Z 00424480 f i nfs_game.obj
 0001:00023480       ??$_Emplace_reallocate@ABUitem@nfs_entername@@@?$vector@Uitem@nfs_entername@@V?$allocator@Uitem@nfs_entername@@@std@@@std@@QAEPAUitem@nfs_entername@@QAU23@ABU23@@Z 00424480 f i nfs_entername.obj
 0001:00023480       ??$_Emplace_reallocate@ABUitem@nfs_result@@@?$vector@Uitem@nfs_result@@V?$allocator@Uitem@nfs_result@@@std@@@std@@QAEPAUitem@nfs_result@@QAU23@ABU23@@Z 00424480 f i nfs_result.obj
 0001:00023480       ??$_Emplace_reallocate@ABUitem@nfs_shell@@@?$vector@Uitem@nfs_shell@@V?$allocator@Uitem@nfs_shell@@@std@@@std@@QAEPAUitem@nfs_shell@@QAU23@ABU23@@Z 00424480 f i nfs_shell.obj
 0001:00023480       ??$_Emplace_reallocate@ABUROT_LIN@@@?$vector@UROT_LIN@@V?$allocator@UROT_LIN@@@std@@@std@@QAEPAUROT_LIN@@QAU2@ABU2@@Z 00424480 f i engq:d2_bws.obj
 0001:00023620       ??$_Emplace_reallocate@ABUnfs_player@nfs_shell@@@?$vector@Unfs_player@nfs_shell@@V?$allocator@Unfs_player@nfs_shell@@@std@@@std@@QAEPAUnfs_player@nfs_shell@@QAU23@ABU23@@Z 00424620 f i nfs_entername.obj
 0001:00023830       ??0?$basic_string@DU?$char_traits@D@std@@V?$allocator@D@2@@std@@QAE@ABV01@@Z 00424830 f i nfs_entername.obj
 0001:000238c0       ?_Become_small@?$basic_string@DU?$char_traits@D@std@@V?$allocator@D@2@@std@@QAEXXZ 004248c0 f i nfs_entername.obj
 0001:00023910       ?_Destroy@?$vector@V?$basic_string@DU?$char_traits@D@std@@V?$allocator@D@2@@std@@V?$allocator@V?$basic_string@DU?$char_traits@D@std@@V?$allocator@D@2@@std@@@2@@std@@AAEXPAV?$basic_string@DU?$char_traits@D@std@@V?$allocator@D@2@@2@0@Z 00424910 f i match_logon.obj
 0001:00023910       ?_Destroy@?$vector@Unfs_player@nfs_shell@@V?$allocator@Unfs_player@nfs_shell@@@std@@@std@@AAEXPAUnfs_player@nfs_shell@@0@Z 00424910 f i nfs_entername.obj
 0001:00023930       ?append@?$basic_string@DU?$char_traits@D@std@@V?$allocator@D@2@@std@@QAEAAV12@ID@Z 00424930 f i nfs_entername.obj
 0001:00023a90       ?append@?$basic_string@DU?$char_traits@D@std@@V?$allocator@D@2@@std@@QAEAAV12@QBDI@Z 00424a90 f i nfs_entername.obj
 0001:00023bf0       ?deallocate@?$allocator@Unfs_player@nfs_shell@@@std@@QAEXQAUnfs_player@nfs_shell@@I@Z 00424bf0 f i nfs_entername.obj
 0001:00023bf0       ?deallocate@?$allocator@V?$basic_string@DU?$char_traits@D@std@@V?$allocator@D@2@@std@@@std@@QAEXQAV?$basic_string@DU?$char_traits@D@std@@V?$allocator@D@2@@2@I@Z 00424bf0 f i match_logon.obj
 0001:00023c30       ?nfsentername_draw3d@@YAXXZ 00424c30 f   nfs_entername.obj
 0001:00023fa0       ?nfsentername_exit@@YAXXZ  00424fa0 f   nfs_entername.obj
 0001:000240b0       ?nfsentername_init@@YAXXZ  004250b0 f   nfs_entername.obj
 0001:00024250       ?nfsentername_proc@@YAXXZ  00425250 f   nfs_entername.obj
 0001:00024680       ?nfsgame_draw3d@@YAXXZ     00425680 f   nfs_game.obj
 0001:00024910       ?nfsgame_exit@@YAXXZ       00425910 f   nfs_game.obj
 0001:00024a10       ?nfsgame_init@@YAXXZ       00425a10 f   nfs_game.obj
 0001:00024ba0       ?nfsgame_proc@@YAXXZ       00425ba0 f   nfs_game.obj
 0001:00024cf0       ?nfsreadyrace_draw3d@@YAXXZ 00425cf0 f   nfs_readyrace.obj
 0001:00024f80       ?nfsreadyrace_exit@@YAXXZ  00425f80 f   nfs_readyrace.obj
 0001:00025080       ?nfsreadyrace_init@@YAXXZ  00426080 f   nfs_readyrace.obj
 0001:000251c0       ?nfsreadyrace_proc@@YAXXZ  004261c0 f   nfs_readyrace.obj
 0001:00025200       ?nfsresult_draw3d@@YAXXZ   00426200 f   nfs_result.obj
 0001:00025530       ?nfsresult_exit@@YAXXZ     00426530 f   nfs_result.obj
 0001:00025630       ?nfsresult_init@@YAXXZ     00426630 f   nfs_result.obj
 0001:000258f0       ?nfsresult_proc@@YAXXZ     004268f0 f   nfs_result.obj
 0001:00025920       ?nfsshell_draw3d@@YAXXZ    00426920 f   nfs_shell.obj
 0001:00025c60       ?nfsshell_exit@@YAXXZ      00426c60 f   nfs_shell.obj
 0001:00025d70       ?nfsshell_init@@YAXXZ      00426d70 f   nfs_shell.obj
 0001:00026090       ?nfsshell_proc@@YAXXZ      00427090 f   nfs_shell.obj
 0001:00026260       ?nfssmile_draw3d@@YAXXZ    00427260 f   nfs_smile.obj
 0001:00026510       ?nfssmile_exit@@YAXXZ      00427510 f   nfs_smile.obj
 0001:00026610       ?nfssmile_init@@YAXXZ      00427610 f   nfs_smile.obj
 0001:00026750       ?nfssmile_proc@@YAXXZ      00427750 f   nfs_smile.obj
 0001:00026930       ?push_back@?$vector@Uitem@nfs_smile@@V?$allocator@Uitem@nfs_smile@@@std@@@std@@QAEXABUitem@nfs_smile@@@Z 00427930 f i nfs_smile.obj
 0001:00026930       ?push_back@?$vector@UROT_LIN@@V?$allocator@UROT_LIN@@@std@@@std@@QAEXABUROT_LIN@@@Z 00427930 f i engq:d2_bws.obj
 0001:00026960       ?hiliteff@nfs_utils@@YAHH@Z 00427960 f   nfs_utils.obj
 0001:00026980       ??$_Range_construct_or_tidy@PBI@?$vector@IV?$allocator@I@std@@@std@@AAEXPBI0Uforward_iterator_tag@1@@Z 00427980 f i u_bch.obj
 0001:00026980       ??$_Range_construct_or_tidy@PBH@?$vector@HV?$allocator@H@std@@@std@@AAEXPBH0Uforward_iterator_tag@1@@Z 00427980 f i u_listtest.obj
 0001:00026980       ??$_Range_construct_or_tidy@PAI@?$vector@IV?$allocator@I@std@@@std@@AAEXPAI0Uforward_iterator_tag@1@@Z 00427980 f i u_bch.obj
 0001:000269f0       ?allocate@?$allocator@H@std@@QAEPAHI@Z 004279f0 f i u_listtest.obj
 0001:000269f0       ?allocate@?$allocator@PAVqgatebase@@@std@@QAEPAPAVqgatebase@@I@Z 004279f0 f i u_qcolumn.obj
 0001:000269f0       ?allocate@?$allocator@PAVshape@u_s_arena2@@@std@@QAEPAPAVshape@u_s_arena2@@I@Z 004279f0 f i u_s_arena2.obj
 0001:000269f0       ?allocate@?$allocator@Vpiece2@@@std@@QAEPAVpiece2@@I@Z 004279f0 f i u_game2.obj
 0001:000269f0       ?allocate@?$allocator@I@std@@QAEPAII@Z 004279f0 f i u_bch.obj
 0001:000269f0       ?allocate@?$allocator@PAUwavehandle@@@std@@QAEPAPAUwavehandle@@I@Z 004279f0 f i u_s_arena1.obj
 0001:000269f0       ?allocate@?$allocator@PAVshape@@@std@@QAEPAPAVshape@@I@Z 004279f0 f i u_s_physics2d.obj
 0001:00026a60       ?merge@listtest@@YAPAUnode@1@PAU21@0@Z 00427a60 f   u_listtest.obj
 0001:00026af0       ?mergeSort@listtest@@YAPAUnode@1@PAU21@@Z 00427af0 f   u_listtest.obj
 0001:00026b30       ?print@listtest@@YAXPAUnode@1@@Z 00427b30 f   u_listtest.obj
 0001:00026ba0       ?reverse@listtest@@YAPAUnode@1@PAU21@@Z 00427ba0 f   u_listtest.obj
 0001:00026bd0       ?split@listtest@@YAPAUnode@1@PAU21@@Z 00427bd0 f   u_listtest.obj
 0001:00026c10       ?testLists@@YAXXZ          00427c10 f   u_listtest.obj
 0001:00026f50       ??$_Destroy_range@V?$allocator@Vcycle@ga@@@std@@@std@@YAXPAVcycle@ga@@0AAV?$allocator@Vcycle@ga@@@0@@Z 00427f50 f i u_groupanalyze.obj
 0001:00026f50       ??$_Destroy_range@V?$allocator@V?$vector@MV?$allocator@M@std@@@std@@@std@@@std@@YAXPAV?$vector@MV?$allocator@M@std@@@0@0AAV?$allocator@V?$vector@MV?$allocator@M@std@@@std@@@0@@Z 00427f50 f i quant3.obj
 0001:00026f50       ??$_Destroy_range@V?$allocator@V?$vector@Vpiece2@@V?$allocator@Vpiece2@@@std@@@std@@@std@@@std@@YAXPAV?$vector@Vpiece2@@V?$allocator@Vpiece2@@@std@@@0@0AAV?$allocator@V?$vector@Vpiece2@@V?$allocator@Vpiece2@@@std@@@std@@@0@@Z 00427f50 f i u_game2.obj
 0001:00026f50       ??$_Destroy_range@V?$allocator@V?$vector@HV?$allocator@H@std@@@std@@@std@@@std@@YAXPAV?$vector@HV?$allocator@H@std@@@0@0AAV?$allocator@V?$vector@HV?$allocator@H@std@@@std@@@0@@Z 00427f50 f i u_permiter.obj
 0001:00026f50       ??$_Destroy_range@V?$allocator@Vperm@smallgroups@@@std@@@std@@YAXPAVperm@smallgroups@@0AAV?$allocator@Vperm@smallgroups@@@0@@Z 00427f50 f i u_smallgroups.obj
 0001:00026f50       ??$_Destroy_range@V?$allocator@V?$vector@IV?$allocator@I@std@@@std@@@std@@@std@@YAXPAV?$vector@IV?$allocator@I@std@@@0@0AAV?$allocator@V?$vector@IV?$allocator@I@std@@@std@@@0@@Z 00427f50 f i u_cayley.obj
 0001:00026fc0       ??$_Emplace_reallocate@PAVshape@u_s_arena2@@@?$vector@PAVshape@u_s_arena2@@V?$allocator@PAVshape@u_s_arena2@@@std@@@std@@QAEPAPAVshape@u_s_arena2@@QAPAV23@$$QAPAV23@@Z 00427fc0 f i u_s_arena2.obj
 0001:00026fc0       ??$_Emplace_reallocate@ABH@?$vector@HV?$allocator@H@std@@@std@@QAEPAHQAHABH@Z 00427fc0 f i u_permiter.obj
 0001:000270d0       ??0?$vector@PAVshape@u_s_arena2@@V?$allocator@PAVshape@u_s_arena2@@@std@@@std@@QAE@ABV01@@Z 004280d0 f i u_s_arena2.obj
 0001:000270d0       ??0?$vector@IV?$allocator@I@std@@@std@@QAE@ABV01@@Z 004280d0 f i u_bch.obj
 0001:000270d0       ??0?$vector@HV?$allocator@H@std@@@std@@QAE@ABV01@@Z 004280d0 f i u_permiter.obj
 0001:00027150       ??0?$vector@PAVtree2@@V?$allocator@PAVtree2@@@std@@@std@@QAE@IABQAVtree2@@ABV?$allocator@PAVtree2@@@1@@Z 00428150 f i engq:d2_bws.obj
 0001:00027150       ??0?$vector@IV?$allocator@I@std@@@std@@QAE@IABIABV?$allocator@I@1@@Z 00428150 f i u_permiter.obj
 0001:00027200       ??1group@smallgroups@@QAE@XZ 00428200 f i u_s_user1.obj
 0001:00027200       ??1?$vector@V?$vector@HV?$allocator@H@std@@@std@@V?$allocator@V?$vector@HV?$allocator@H@std@@@std@@@2@@std@@QAE@XZ 00428200 f i u_permiter.obj
 0001:00027210       ??1?$vector@Vcycle@ga@@V?$allocator@Vcycle@ga@@@std@@@std@@QAE@XZ 00428210 f i u_groupanalyze.obj
 0001:00027210       ?_Tidy@?$vector@V?$vector@IV?$allocator@I@std@@@std@@V?$allocator@V?$vector@IV?$allocator@I@std@@@std@@@2@@std@@AAEXXZ 00428210 f i u_groupanalyze.obj
 0001:00027210       ??1?$vector@V?$vector@MV?$allocator@M@std@@@std@@V?$allocator@V?$vector@MV?$allocator@M@std@@@std@@@2@@std@@QAE@XZ 00428210 f i quant3.obj
 0001:00027210       ??1?$vector@V?$vector@IV?$allocator@I@std@@@std@@V?$allocator@V?$vector@IV?$allocator@I@std@@@std@@@2@@std@@QAE@XZ 00428210 f i u_cayley.obj
 0001:00027210       ?_Tidy@?$vector@V?$vector@HV?$allocator@H@std@@@std@@V?$allocator@V?$vector@HV?$allocator@H@std@@@std@@@2@@std@@AAEXXZ 00428210 f i u_permiter.obj
 0001:00027210       ??1?$vector@Vperm@smallgroups@@V?$allocator@Vperm@smallgroups@@@std@@@std@@QAE@XZ 00428210 f i u_smallgroups.obj
 0001:00027290       ?_Xlen@?$vector@_NV?$allocator@_N@std@@@std@@QBEXXZ 00428290 f i u_permiter.obj
 0001:000272a0       ?checkw@@YAXPAUphyobject@@@Z 004282a0 f   primcoll.obj
 0001:000273b0       ?meshplane@@YAMPAUphyobject@@PAUpointf3@@11@Z 004283b0 f   primcoll.obj
 0001:00027520       ?box2box@@YAHPAUpointf3@@00@Z 00428520 f   box2box.obj
 0001:00027780       ?box2box_v2@@YAHPAUpointf3@@000000000@Z 00428780 f   box2box.obj
 0001:00027c80       ?getcolpoint@@YAHPAUpointf3@@H000@Z 00428c80 f   box2box.obj
 0001:00027f80       ?line2box@@YAHPAUpointf3@@000000@Z 00428f80 f   box2box.obj
 0001:00028950       ??$_Buynode@ABUpostq@broadcast_server@@@?$_List_buy@Upostq@broadcast_server@@V?$allocator@Upostq@broadcast_server@@@std@@@std@@QAEPAU?$_List_node@Upostq@broadcast_server@@PAX@1@PAU21@0ABUpostq@broadcast_server@@@Z 00429950 f i broadcast_server.obj
 0001:000289e0       ??1userprofile@@QAE@XZ     004299e0 f i match_server.obj
 0001:000289e0       ??1postq@broadcast_server@@QAE@XZ 004299e0 f i broadcast_server.obj
 0001:00028a70       ?_Buynode0@?$_List_alloc@U?$_List_base_types@Upostq@broadcast_server@@V?$allocator@Upostq@broadcast_server@@@std@@@std@@@std@@QAEPAU?$_List_node@Upostq@broadcast_server@@PAX@2@PAU32@0@Z 00429a70 f i broadcast_server.obj
 0001:00028aa0       ?broadcast_server_draw3d@@YAXXZ 00429aa0 f   broadcast_server.obj
 0001:00028c10       ?broadcast_server_exit@@YAXXZ 00429c10 f   broadcast_server.obj
 0001:00028ec0       ?broadcast_server_init@@YAXXZ 00429ec0 f   broadcast_server.obj
 0001:000293f0       ?broadcast_server_proc@@YAXXZ 0042a3f0 f   broadcast_server.obj
 0001:0002b420       ?clear@?$list@Upostq@broadcast_server@@V?$allocator@Upostq@broadcast_server@@@std@@@std@@QAEXXZ 0042c420 f i broadcast_server.obj
 0001:0002b460       ?deallocate@?$allocator@U?$_List_node@Upostq@broadcast_server@@PAX@std@@@std@@QAEXQAU?$_List_node@Upostq@broadcast_server@@PAX@2@I@Z 0042c460 f i broadcast_server.obj
 0001:0002b4b0       ?parseacarslot@broadcast_server@@YAXPAUcarslot@1@PAD@Z 0042c4b0 f   broadcast_server.obj
 0001:0002b7b0       ?postproc@broadcast_server@@YAXXZ 0042c7b0 f   broadcast_server.obj
 0001:0002bb40       ?postqueue@broadcast_server@@YAXV?$basic_string@DU?$char_traits@D@std@@V?$allocator@D@2@@std@@0@Z 0042cb40 f   broadcast_server.obj
 0001:0002bca0       ??$find@Vhscroll@res3d@@@shape@res3d@@QAEPAVhscroll@1@PBD@Z 0042cca0 f i broadcast_testclient.obj
 0001:0002bd10       ??$find@Vpbut@res3d@@@shape@res3d@@QAEPAVpbut@1@PBD@Z 0042cd10 f i broadcast_testclient.obj
 0001:0002bd80       ??$find@Vtext@res3d@@@shape@res3d@@QAEPAVtext@1@PBD@Z 0042cd80 f i broadcast_testclient.obj
 0001:0002bdf0       ?broadcast_testclient_draw3d@@YAXXZ 0042cdf0 f   broadcast_testclient.obj
 0001:0002be20       ?broadcast_testclient_exit@@YAXXZ 0042ce20 f   broadcast_testclient.obj
 0001:0002be60       ?broadcast_testclient_init@@YAXXZ 0042ce60 f   broadcast_testclient.obj
 0001:0002c0a0       ?broadcast_testclient_proc@@YAXXZ 0042d0a0 f   broadcast_testclient.obj
 0001:0002c540       ?broadcast_testserver_draw3d@@YAXXZ 0042d540 f   broadcast_testserver.obj
 0001:0002c570       ?broadcast_testserver_exit@@YAXXZ 0042d570 f   broadcast_testserver.obj
 0001:0002c5f0       ?broadcast_testserver_init@@YAXXZ 0042d5f0 f   broadcast_testserver.obj
 0001:0002c760       ?broadcast_testserver_proc@@YAXXZ 0042d760 f   broadcast_testserver.obj
 0001:0002cd80       ?new_cam_init@@YAXXZ       0042dd80 f   camera.obj
 0001:0002cda0       ?new_cam_proc@@YAXPAUol_playerdata@@@Z 0042dda0 f   camera.obj
 0001:0002d740       ??0carclass@@QAE@PBD@Z     0042e740 f   carclass.obj
 0001:0002da50       ??1carclass@@QAE@XZ        0042ea50 f   carclass.obj
 0001:0002ded0       ?changehsv@carclass@@QAEXPBUhsv@@@Z 0042eed0 f   carclass.obj
 0001:0002df60       ?changerims@carclass@@QAEXH@Z 0042ef60 f   carclass.obj
 0001:0002e1b0       ?coinsinit@@YAXPAVtree2@@@Z 0042f1b0 f   coins.obj
 0001:0002e360       ?coinsproc@@YAXXZ          0042f360 f   coins.obj
 0001:0002e6d0       ?coinsreinit@@YAXXZ        0042f6d0 f   coins.obj
 0001:0002e7c0       ?buildcheckresets@@YAXXZ   0042f7c0 f   crasheditor.obj
 0001:0002ea50       ?checkeditload@@YAXXZ      0042fa50 f   crasheditor.obj
 0001:0002ec60       ?checkeditor@@YAXHPAUol_playerdata@@@Z 0042fc60 f   crasheditor.obj
 0001:0002ef70       ?checkeditsave@@YAXXZ      0042ff70 f   crasheditor.obj
 0001:0002f130       ?crasheditload@@YAXXZ      00430130 f   crasheditor.obj
 0001:0002f340       ?crasheditor@@YAXHPAUol_playerdata@@@Z 00430340 f   crasheditor.obj
 0001:0002f630       ?crasheditsave@@YAXXZ      00430630 f   crasheditor.obj
 0001:0002f7f0       ?docheckpoints@@YAXPAUol_playerdata@@@Z 004307f0 f   crasheditor.obj
 0001:0002f910       ?freecheckresets@@YAXXZ    00430910 f   crasheditor.obj
 0001:0002f950       ??0gameinf@@QAE@PBD@Z      00430950 f   gameinfo.obj
 0001:00030410       ??1playerinf@@QAE@XZ       00431410 f i gameinfo.obj
 0001:000304f0       ??4?$basic_string@DU?$char_traits@D@std@@V?$allocator@D@2@@std@@QAEAAV01@ABV01@@Z 004314f0 f i gameinfo.obj
 0001:00030ad0       ?boxai_ai@@YAXXZ           00431ad0 f   hr_boxai.obj
 0001:00030f70       ?boxai_check@@YAXXZ        00431f70 f   hr_boxai.obj
 0001:000313b0       ?boxai_exit@@YAXXZ         004323b0 f   hr_boxai.obj
 0001:000314b0       ?boxai_getstartpos@@YAXXZ  004324b0 f   hr_boxai.obj
 0001:00031640       ?boxai_init@@YAXXZ         00432640 f   hr_boxai.obj
 0001:00031730       ?boxai_reinit@@YAXXZ       00432730 f   hr_boxai.obj
 0001:00031810       ?boxai_slowlead@@YAHXZ     00432810 f   hr_boxai.obj
 0001:000319f0       ?getlapnum@@YAHPAUol_playerdata@@@Z 004329f0 f   hr_boxai.obj
 0001:00032930       ?freegamesockers@@YAXXZ    00433930 f   match_game1.obj
 0001:00032a80       ?match_game1draw2d@@YAXXZ  00433a80 f   match_game1.obj
 0001:00032b20       ?match_game1exit@@YAXXZ    00433b20 f   match_game1.obj
 0001:00032c10       ?match_game1init@@YAXXZ    00433c10 f   match_game1.obj
 0001:00032da0       ?match_game1proc@@YAXXZ    00433da0 f   match_game1.obj
 0001:000334c0       ?match_hiscoresdraw2d@@YAXXZ 004344c0 f   match_hiscores.obj
 0001:00033540       ?match_hiscoresexit@@YAXXZ 00434540 f   match_hiscores.obj
 0001:00033580       ?match_hiscoresinit@@YAXXZ 00434580 f   match_hiscores.obj
 0001:000338a0       ?match_hiscoresproc@@YAXXZ 004348a0 f   match_hiscores.obj
 0001:00033900       ?match_lobby_draw2d@@YAXXZ 00434900 f   match_lobby.obj
 0001:00033980       ?match_lobby_exit@@YAXXZ   00434980 f   match_lobby.obj
 0001:000339f0       ?match_lobby_init@@YAXXZ   004349f0 f   match_lobby.obj
 0001:00033db0       ?match_lobby_proc@@YAXXZ   00434db0 f   match_lobby.obj
 0001:000345b0       ??$_Emplace_reallocate@ABV?$basic_string@DU?$char_traits@D@std@@V?$allocator@D@2@@std@@@?$vector@V?$basic_string@DU?$char_traits@D@std@@V?$allocator@D@2@@std@@V?$allocator@V?$basic_string@DU?$char_traits@D@std@@V?$allocator@D@2@@std@@@2@@std@@QAEPAV?$basic_string@DU?$char_traits@D@std@@V?$allocator@D@2@@1@QAV21@ABV21@@Z 004355b0 f i match_logon.obj
 0001:00034710       ??$find@Vedit@res3d@@@shape@res3d@@QAEPAVedit@1@PBD@Z 00435710 f i match_logon.obj
 0001:00034780       ??0?$basic_string@DU?$char_traits@D@std@@V?$allocator@D@2@@std@@QAE@QBD@Z 00435780 f i match_logon.obj
 0001:000347c0       ??1?$vector@V?$basic_string@DU?$char_traits@D@std@@V?$allocator@D@2@@std@@V?$allocator@V?$basic_string@DU?$char_traits@D@std@@V?$allocator@D@2@@std@@@2@@std@@QAE@XZ 004357c0 f i match_logon.obj
 0001:000347d0       ?_Change_array@?$vector@V?$basic_string@DU?$char_traits@D@std@@V?$allocator@D@2@@std@@V?$allocator@V?$basic_string@DU?$char_traits@D@std@@V?$allocator@D@2@@std@@@2@@std@@AAEXQAV?$basic_string@DU?$char_traits@D@std@@V?$allocator@D@2@@2@II@Z 004357d0 f i match_logon.obj
 0001:00034860       ?canbequick@@YA_NI@Z       00435860 f   match_logon.obj
 0001:00034880       ?getgamehoststate@@YAHI@Z  00435880 f   match_logon.obj
 0001:000348a0       ?getgameidx@@YAHPBD@Z      004358a0 f   match_logon.obj
 0001:00034910       ?getgamejoinstate@@YAHI@Z  00435910 f   match_logon.obj
 0001:00034930       ?getgamemasterport@@YAHI@Z 00435930 f   match_logon.obj
 0001:00034950       ?getgamename@@YAPBDI@Z     00435950 f   match_logon.obj
 0001:00034970       ?getnumparts@cstbot@@UBEIXZ 00435970 f   u_qgatebase.obj
 0001:00034970       ?getnumparts@cttbot@@UBEIXZ 00435970 f   u_qgatebase.obj
 0001:00034970       ?getnumparts@cpm30top@@UBEIXZ 00435970 f   u_qgatebase.obj
 0001:00034970       ?getngames@@YAIXZ          00435970 f   match_logon.obj
 0001:00034970       ?getnumparts@cpm30bot@@UBEIXZ 00435970 f   u_qgatebase.obj
 0001:00034970       ?getnumparts@chtop@@UBEIXZ 00435970 f   u_qgatebase.obj
 0001:00034970       ?getnumparts@cstop@@UBEIXZ 00435970 f   u_qgatebase.obj
 0001:00034970       ?getcurpart@toffoli4c2@@UBEIXZ 00435970 f   u_qgatebase.obj
 0001:00034970       ?getnumparts@cp30bot@@UBEIXZ 00435970 f   u_qgatebase.obj
 0001:00034970       ?getnumparts@cp45bot@@UBEIXZ 00435970 f   u_qgatebase.obj
 0001:00034970       ?getcurpart@fredkinbot@@UBEIXZ 00435970 f   u_qgatebase.obj
 0001:00034970       ?getnumparts@cp45top@@UBEIXZ 00435970 f   u_qgatebase.obj
 0001:00034970       ?getcurpart@toffoli6c2@@UBEIXZ 00435970 f   u_qgatebase.obj
 0001:00034970       ?getnumparts@dectop@@UBEIXZ 00435970 f   u_qgatebase.obj
 0001:00034970       ?getnumparts@cnotbot@@UBEIXZ 00435970 f   u_qgatebase.obj
 0001:00034970       ?getnumparts@decbot@@UBEIXZ 00435970 f   u_qgatebase.obj
 0001:00034970       ?getnumparts@cp30top@@UBEIXZ 00435970 f   u_qgatebase.obj
 0001:00034970       ?getcurpart@toffoli5c2@@UBEIXZ 00435970 f   u_qgatebase.obj
 0001:00034970       ?getbasekind@qgatenot@@UBE?AW4qtype@qgatebase@@XZ 00435970 f   u_qgatebase.obj
 0001:00034970       ?getnumparts@swaptop@@UBEIXZ 00435970 f   u_qgatebase.obj
 0001:00034970       ?getnumparts@cpm45top@@UBEIXZ 00435970 f   u_qgatebase.obj
 0001:00034970       ?getnumparts@csbot@@UBEIXZ 00435970 f   u_qgatebase.obj
 0001:00034970       ?getnumparts@swapbot@@UBEIXZ 00435970 f   u_qgatebase.obj
 0001:00034970       ?getnumparts@chbot@@UBEIXZ 00435970 f   u_qgatebase.obj
 0001:00034970       ?getnumparts@cytop@@UBEIXZ 00435970 f   u_qgatebase.obj
 0001:00034970       ?getnumparts@czbot@@UBEIXZ 00435970 f   u_qgatebase.obj
 0001:00034970       ?getnumparts@ctttop@@UBEIXZ 00435970 f   u_qgatebase.obj
 0001:00034970       ?getkind@qgatenot@@UBE?AW4qtype@qgatebase@@XZ 00435970 f   u_qgatebase.obj
 0001:00034970       ?getnumparts@cnottop@@UBEIXZ 00435970 f   u_qgatebase.obj
 0001:00034970       ?getcurpart@toffolibot@@UBEIXZ 00435970 f   u_qgatebase.obj
 0001:00034970       ?getnumparts@cpm45bot@@UBEIXZ 00435970 f   u_qgatebase.obj
 0001:00034970       ?getnumparts@ctbot@@UBEIXZ 00435970 f   u_qgatebase.obj
 0001:00034970       ?getnumparts@cttop@@UBEIXZ 00435970 f   u_qgatebase.obj
 0001:00034970       ?getnumparts@cztop@@UBEIXZ 00435970 f   u_qgatebase.obj
 0001:00034970       ?getnumparts@cybot@@UBEIXZ 00435970 f   u_qgatebase.obj
 0001:00034970       ?getnumparts@csttop@@UBEIXZ 00435970 f   u_qgatebase.obj
 0001:00034980       ?makecgisock@@YAPAUsocker@@PAPAU1@@Z 00435980 f   match_logon.obj
 0001:00034a70       ?match_logon_draw3d@@YAXXZ 00435a70 f   match_logon.obj
 0001:00034d20       ?match_logon_exit@@YAXXZ   00435d20 f   match_logon.obj
 0001:00034e40       ?match_logon_init@@YAXXZ   00435e40 f   match_logon.obj
 0001:00035a30       ?match_logon_proc@@YAXXZ   00436a30 f   match_logon.obj
 0001:00035f80       ?push_back@?$vector@V?$basic_string@DU?$char_traits@D@std@@V?$allocator@D@2@@std@@V?$allocator@V?$basic_string@DU?$char_traits@D@std@@V?$allocator@D@2@@std@@@2@@std@@QAEX$$QAV?$basic_string@DU?$char_traits@D@std@@V?$allocator@D@2@@2@@Z 00436f80 f i match_logon.obj
 0001:00035ff0       ?match_optionsdraw2d@@YAXXZ 00436ff0 f   match_options.obj
 0001:00036070       ?match_optionsexit@@YAXXZ  00437070 f   match_options.obj
 0001:000360d0       ?match_optionsinit@@YAXXZ  004370d0 f   match_options.obj
 0001:00036270       ?match_optionsproc@@YAXXZ  00437270 f   match_options.obj
 0001:00036300       ?match_pickgamedraw2d@@YAXXZ 00437300 f   match_pickgame.obj
 0001:00036380       ?match_pickgameexit@@YAXXZ 00437380 f   match_pickgame.obj
 0001:000363e0       ?match_pickgameinit@@YAXXZ 004373e0 f   match_pickgame.obj
 0001:00036630       ?match_pickgameproc@@YAXXZ 00437630 f   match_pickgame.obj
 0001:000366f0       ??$find@Vlistbox@res3d@@@shape@res3d@@QAEPAVlistbox@1@PBD@Z 004376f0 f i match_pickserver.obj
 0001:00036760       ?match_pickserverdraw3d@@YAXXZ 00437760 f   match_pickserver.obj
 0001:000368f0       ?match_pickserverexit@@YAXXZ 004378f0 f   match_pickserver.obj
 0001:00036a20       ?match_pickserverinit@@YAXXZ 00437a20 f   match_pickserver.obj
 0001:00037040       ?match_pickserverproc@@YAXXZ 00438040 f   match_pickserver.obj
 0001:00037230       ?match_quickgamedraw2d@@YAXXZ 00438230 f   match_quickgame.obj
 0001:000372b0       ?match_quickgameexit@@YAXXZ 004382b0 f   match_quickgame.obj
 0001:00037440       ?match_quickgameinit@@YAXXZ 00438440 f   match_quickgame.obj
 0001:00037cb0       ?match_quickgameproc@@YAXXZ 00438cb0 f   match_quickgame.obj
 0001:000381f0       ??$?RAAV?$vector@V?$basic_string@DU?$char_traits@D@std@@V?$allocator@D@2@@std@@V?$allocator@V?$basic_string@DU?$char_traits@D@std@@V?$allocator@D@2@@std@@@2@@std@@AAV01@@?$less@X@std@@QBE_NAAV?$vector@V?$basic_string@DU?$char_traits@D@std@@V?$allocator@D@2@@std@@V?$allocator@V?$basic_string@DU?$char_traits@D@std@@V?$allocator@D@2@@std@@@2@@1@0@Z 004391f0 f i match_register.obj
 0001:000382a0       ??$_Emplace_reallocate@ABV?$vector@V?$basic_string@DU?$char_traits@D@std@@V?$allocator@D@2@@std@@V?$allocator@V?$basic_string@DU?$char_traits@D@std@@V?$allocator@D@2@@std@@@2@@std@@@?$vector@V?$vector@V?$basic_string@DU?$char_traits@D@std@@V?$allocator@D@2@@std@@V?$allocator@V?$basic_string@DU?$char_traits@D@std@@V?$allocator@D@2@@std@@@2@@std@@V?$allocator@V?$vector@V?$basic_string@DU?$char_traits@D@std@@V?$allocator@D@2@@std@@V?$allocator@V?$basic_string@DU?$char_traits@D@std@@V?$allocator@D@2@@std@@@2@@std@@@2@@std@@QAEPAV?$vector@V?$basic_string@DU?$char_traits@D@std@@V?$allocator@D@2@@std@@V?$allocator@V?$basic_string@DU?$char_traits@D@std@@V?$allocator@D@2@@std@@@2@@1@QAV21@ABV21@@Z 004392a0 f i match_register.obj
 0001:000384b0       ??$_Insertion_sort_unchecked@PAV?$vector@V?$basic_string@DU?$char_traits@D@std@@V?$allocator@D@2@@std@@V?$allocator@V?$basic_string@DU?$char_traits@D@std@@V?$allocator@D@2@@std@@@2@@std@@U?$less@X@2@@std@@YAPAV?$vector@V?$basic_string@DU?$char_traits@D@std@@V?$allocator@D@2@@std@@V?$allocator@V?$basic_string@DU?$char_traits@D@std@@V?$allocator@D@2@@std@@@2@@0@PAV10@QAV10@U?$less@X@0@@Z 004394b0 f i match_register.obj
 0001:00038760       ??$_Med3_unchecked@PAV?$vector@V?$basic_string@DU?$char_traits@D@std@@V?$allocator@D@2@@std@@V?$allocator@V?$basic_string@DU?$char_traits@D@std@@V?$allocator@D@2@@std@@@2@@std@@U?$less@X@2@@std@@YAXPAV?$vector@V?$basic_string@DU?$char_traits@D@std@@V?$allocator@D@2@@std@@V?$allocator@V?$basic_string@DU?$char_traits@D@std@@V?$allocator@D@2@@std@@@2@@0@00U?$less@X@0@@Z 00439760 f i match_register.obj
 0001:00038810       ??$_Partition_by_median_guess_unchecked@PAV?$vector@V?$basic_string@DU?$char_traits@D@std@@V?$allocator@D@2@@std@@V?$allocator@V?$basic_string@DU?$char_traits@D@std@@V?$allocator@D@2@@std@@@2@@std@@U?$less@X@2@@std@@YA?AU?$pair@PAV?$vector@V?$basic_string@DU?$char_traits@D@std@@V?$allocator@D@2@@std@@V?$allocator@V?$basic_string@DU?$char_traits@D@std@@V?$allocator@D@2@@std@@@2@@std@@PAV12@@0@PAV?$vector@V?$basic_string@DU?$char_traits@D@std@@V?$allocator@D@2@@std@@V?$allocator@V?$basic_string@DU?$char_traits@D@std@@V?$allocator@D@2@@std@@@2@@0@0U?$less@X@0@@Z 00439810 f i match_register.obj
 0001:00038fc0       ??$_Pop_heap_hole_by_index@PAV?$vector@V?$basic_string@DU?$char_traits@D@std@@V?$allocator@D@2@@std@@V?$allocator@V?$basic_string@DU?$char_traits@D@std@@V?$allocator@D@2@@std@@@2@@std@@V12@U?$less@X@2@@std@@YAXPAV?$vector@V?$basic_string@DU?$char_traits@D@std@@V?$allocator@D@2@@std@@V?$allocator@V?$basic_string@DU?$char_traits@D@std@@V?$allocator@D@2@@std@@@2@@0@HH$$QAV10@U?$less@X@0@@Z 00439fc0 f i match_register.obj
 0001:00039150       ??$_Push_heap_by_index@PAV?$vector@V?$basic_string@DU?$char_traits@D@std@@V?$allocator@D@2@@std@@V?$allocator@V?$basic_string@DU?$char_traits@D@std@@V?$allocator@D@2@@std@@@2@@std@@V12@U?$less@X@2@@std@@YAXPAV?$vector@V?$basic_string@DU?$char_traits@D@std@@V?$allocator@D@2@@std@@V?$allocator@V?$basic_string@DU?$char_traits@D@std@@V?$allocator@D@2@@std@@@2@@0@HH$$QAV10@U?$less@X@0@@Z 0043a150 f i match_register.obj
 0001:000392a0       ??$_Sort_unchecked@PAV?$vector@V?$basic_string@DU?$char_traits@D@std@@V?$allocator@D@2@@std@@V?$allocator@V?$basic_string@DU?$char_traits@D@std@@V?$allocator@D@2@@std@@@2@@std@@U?$less@X@2@@std@@YAXPAV?$vector@V?$basic_string@DU?$char_traits@D@std@@V?$allocator@D@2@@std@@V?$allocator@V?$basic_string@DU?$char_traits@D@std@@V?$allocator@D@2@@std@@@2@@0@0HU?$less@X@0@@Z 0043a2a0 f i match_register.obj
 0001:000394e0       ??$_Uninitialized_move@PAV?$vector@V?$basic_string@DU?$char_traits@D@std@@V?$allocator@D@2@@std@@V?$allocator@V?$basic_string@DU?$char_traits@D@std@@V?$allocator@D@2@@std@@@2@@std@@PAV12@V?$allocator@V?$vector@V?$basic_string@DU?$char_traits@D@std@@V?$allocator@D@2@@std@@V?$allocator@V?$basic_string@DU?$char_traits@D@std@@V?$allocator@D@2@@std@@@2@@std@@@2@@std@@YAPAV?$vector@V?$basic_string@DU?$char_traits@D@std@@V?$allocator@D@2@@std@@V?$allocator@V?$basic_string@DU?$char_traits@D@std@@V?$allocator@D@2@@std@@@2@@0@QAV10@0PAV10@AAV?$allocator@V?$vector@V?$basic_string@DU?$char_traits@D@std@@V?$allocator@D@2@@std@@V?$allocator@V?$basic_string@DU?$char_traits@D@std@@V?$allocator@D@2@@std@@@2@@std@@@0@@Z 0043a4e0 f i match_register.obj
 0001:000394e0       ??$_Uninitialized_move@PAV?$vector@Usquarei@@V?$allocator@Usquarei@@@std@@@std@@PAV12@V?$allocator@V?$vector@Usquarei@@V?$allocator@Usquarei@@@std@@@std@@@2@@std@@YAPAV?$vector@Usquarei@@V?$allocator@Usquarei@@@std@@@0@QAV10@0PAV10@AAV?$allocator@V?$vector@Usquarei@@V?$allocator@Usquarei@@@std@@@std@@@0@@Z 0043a4e0 f i u_qr_code2scan.obj
 0001:00039550       ??0?$vector@V?$basic_string@DU?$char_traits@D@std@@V?$allocator@D@2@@std@@V?$allocator@V?$basic_string@DU?$char_traits@D@std@@V?$allocator@D@2@@std@@@2@@std@@QAE@ABV01@@Z 0043a550 f i match_register.obj
 0001:00039640       ??1?$_Uninitialized_backout_al@PAV?$basic_string@DU?$char_traits@D@std@@V?$allocator@D@2@@std@@V?$allocator@V?$basic_string@DU?$char_traits@D@std@@V?$allocator@D@2@@std@@@2@@std@@QAE@XZ 0043a640 f i match_register.obj
 0001:00039660       ??1?$vector@V?$vector@V?$basic_string@DU?$char_traits@D@std@@V?$allocator@D@2@@std@@V?$allocator@V?$basic_string@DU?$char_traits@D@std@@V?$allocator@D@2@@std@@@2@@std@@V?$allocator@V?$vector@V?$basic_string@DU?$char_traits@D@std@@V?$allocator@D@2@@std@@V?$allocator@V?$basic_string@DU?$char_traits@D@std@@V?$allocator@D@2@@std@@@2@@std@@@2@@std@@QAE@XZ 0043a660 f i match_register.obj
 0001:000396e0       ?_Destroy@?$vector@V?$vector@V?$basic_string@DU?$char_traits@D@std@@V?$allocator@D@2@@std@@V?$allocator@V?$basic_string@DU?$char_traits@D@std@@V?$allocator@D@2@@std@@@2@@std@@V?$allocator@V?$vector@V?$basic_string@DU?$char_traits@D@std@@V?$allocator@D@2@@std@@V?$allocator@V?$basic_string@DU?$char_traits@D@std@@V?$allocator@D@2@@std@@@2@@std@@@2@@std@@AAEXPAV?$vector@V?$basic_string@DU?$char_traits@D@std@@V?$allocator@D@2@@std@@V?$allocator@V?$basic_string@DU?$char_traits@D@std@@V?$allocator@D@2@@std@@@2@@2@0@Z 0043a6e0 f i match_register.obj
 0001:00039e30       ?deallocate@?$allocator@V?$vector@Vzee2@@V?$allocator@Vzee2@@@std@@@std@@@std@@QAEXQAV?$vector@Vzee2@@V?$allocator@Vzee2@@@std@@@2@I@Z 0043ae30 f i engq:augmatz.obj
 0001:00039e30       ?deallocate@?$allocator@V?$vector@Vpiece2@@V?$allocator@Vpiece2@@@std@@@std@@@std@@QAEXQAV?$vector@Vpiece2@@V?$allocator@Vpiece2@@@std@@@2@I@Z 0043ae30 f i u_game2.obj
 0001:00039e30       ?deallocate@?$allocator@Uptile@jelly@@@std@@QAEXQAUptile@jelly@@I@Z 0043ae30 f i u_s_jelly.obj
 0001:00039e30       ?deallocate@?$allocator@V?$vector@MV?$allocator@M@std@@@std@@@std@@QAEXQAV?$vector@MV?$allocator@M@std@@@2@I@Z 0043ae30 f i quant3.obj
 0001:00039e30       ?deallocate@?$allocator@V?$vector@Upointf2@@V?$allocator@Upointf2@@@std@@@std@@@std@@QAEXQAV?$vector@Upointf2@@V?$allocator@Upointf2@@@std@@@2@I@Z 0043ae30 f i u_pointcloudkdtree.obj
 0001:00039e30       ?deallocate@?$allocator@Vperm@smallgroups@@@std@@QAEXQAVperm@smallgroups@@I@Z 0043ae30 f i u_smallgroups.obj
 0001:00039e30       ?deallocate@?$allocator@V?$vector@V?$basic_string@DU?$char_traits@D@std@@V?$allocator@D@2@@std@@V?$allocator@V?$basic_string@DU?$char_traits@D@std@@V?$allocator@D@2@@std@@@2@@std@@@std@@QAEXQAV?$vector@V?$basic_string@DU?$char_traits@D@std@@V?$allocator@D@2@@std@@V?$allocator@V?$basic_string@DU?$char_traits@D@std@@V?$allocator@D@2@@std@@@2@@2@I@Z 0043ae30 f i match_register.obj
 0001:00039e30       ?deallocate@?$allocator@V?$vector@EV?$allocator@E@std@@@std@@@std@@QAEXQAV?$vector@EV?$allocator@E@std@@@2@I@Z 0043ae30 f i u_qr_code2scan.obj
 0001:00039e30       ?deallocate@?$allocator@Vcycle@ga@@@std@@QAEXQAVcycle@ga@@I@Z 0043ae30 f i u_groupanalyze.obj
 0001:00039e30       ?deallocate@?$allocator@V?$vector@Upointi2@@V?$allocator@Upointi2@@@std@@@std@@@std@@QAEXQAV?$vector@Upointi2@@V?$allocator@Upointi2@@@std@@@2@I@Z 0043ae30 f i u_qr_code_layout_v2.obj
 0001:00039e30       ?deallocate@?$allocator@V?$vector@Usquarei@@V?$allocator@Usquarei@@@std@@@std@@@std@@QAEXQAV?$vector@Usquarei@@V?$allocator@Usquarei@@@std@@@2@I@Z 0043ae30 f i u_qr_code2scan.obj
 0001:00039e70       ?match_registerdraw3d@@YAXXZ 0043ae70 f   match_register.obj
 0001:0003a0f0       ?match_registerexit@@YAXXZ 0043b0f0 f   match_register.obj
 0001:0003a160       ?match_registerinit@@YAXXZ 0043b160 f   match_register.obj
 0001:0003a850       ?match_registerproc@@YAXXZ 0043b850 f   match_register.obj
 0001:0003ac90       ?match_results_draw2d@@YAXXZ 0043bc90 f   match_results.obj
 0001:0003ad10       ?match_results_exit@@YAXXZ 0043bd10 f   match_results.obj
 0001:0003ad50       ?match_results_init@@YAXXZ 0043bd50 f   match_results.obj
 0001:0003b060       ?match_results_proc@@YAXXZ 0043c060 f   match_results.obj
 0001:0003b0c0       ??$_Emplace_reallocate@ABUuserprofile@@@?$vector@Uuserprofile@@V?$allocator@Uuserprofile@@@std@@@std@@QAEPAUuserprofile@@QAU2@ABU2@@Z 0043c0c0 f i match_server.obj
 0001:0003b350       ??$_Insertion_sort_unchecked@PAUuserprofile@@P6A_NABU1@0@Z@std@@YAPAUuserprofile@@PAU1@QAU1@P6A_NABU1@2@Z@Z 0043c350 f i match_server.obj
 0001:0003b810       ??$_Med3_unchecked@PAUuserprofile@@P6A_NABU1@0@Z@std@@YAXPAUuserprofile@@00P6A_NABU1@1@Z@Z 0043c810 f i match_server.obj
 0001:0003b8c0       ??$_Partition_by_median_guess_unchecked@PAUuserprofile@@P6A_NABU1@0@Z@std@@YA?AU?$pair@PAUuserprofile@@PAU1@@0@PAUuserprofile@@0P6A_NABU2@1@Z@Z 0043c8c0 f i match_server.obj
 0001:0003bbd0       ??$_Pop_heap_hole_by_index@PAUuserprofile@@U1@P6A_NABU1@0@Z@std@@YAXPAUuserprofile@@HH$$QAU1@P6A_NABU1@2@Z@Z 0043cbd0 f i match_server.obj
 0001:0003be80       ??$_Sort_unchecked@PAUuserprofile@@P6A_NABU1@0@Z@std@@YAXPAUuserprofile@@0HP6A_NABU1@1@Z@Z 0043ce80 f i match_server.obj
 0001:0003c160       ??0userprofile@@QAE@$$QAU0@@Z 0043d160 f i match_server.obj
 0001:0003c1d0       ??4userprofile@@QAEAAU0@$$QAU0@@Z 0043d1d0 f i match_server.obj
 0001:0003c240       ?_Destroy@?$vector@Uuserprofile@@V?$allocator@Uuserprofile@@@std@@@std@@AAEXPAUuserprofile@@0@Z 0043d240 f i match_server.obj
 0001:0003c270       ?deallocate@?$allocator@M@std@@QAEXQAMI@Z 0043d270 f i quant3.obj
 0001:0003c270       ?deallocate@?$allocator@Vpiece2@@@std@@QAEXQAVpiece2@@I@Z 0043d270 f i u_s_game2_endgame.obj
 0001:0003c270       ?deallocate@?$allocator@I@std@@QAEXQAII@Z 0043d270 f i u_bch.obj
 0001:0003c270       ?deallocate@?$allocator@H@std@@QAEXQAHI@Z 0043d270 f i match_server.obj
 0001:0003c270       ?deallocate@?$allocator@PAVscript@@@std@@QAEXQAPAVscript@@I@Z 0043d270 f i engq:m_script.obj
 0001:0003c2b0       ?deallocate@?$allocator@Uuserprofile@@@std@@QAEXQAUuserprofile@@I@Z 0043d2b0 f i match_server.obj
 0001:0003c2b0       ?deallocate@?$allocator@Vqcolumn@@@std@@QAEXQAVqcolumn@@I@Z 0043d2b0 f i u_qfieldui.obj
 0001:0003c2f0       ?gettname@text@res3d@@QBEPBDXZ 0043d2f0 f i match_server.obj
 0001:0003c300       ?match_server_draw3d@@YAXXZ 0043d300 f   match_server.obj
 0001:0003c380       ?match_server_exit@@YAXXZ  0043d380 f   match_server.obj
 0001:0003c600       ?match_server_init@@YAXXZ  0043d600 f   match_server.obj
 0001:0003d3a0       ?match_server_proc@@YAXXZ  0043e3a0 f   match_server.obj
 0001:0003f020       ??$lessthangeneric@ABV?$basic_string@DU?$char_traits@D@std@@V?$allocator@D@2@@std@@@@YA_NABV?$basic_string@DU?$char_traits@D@std@@V?$allocator@D@2@@std@@0@Z 00440020 f   u_s_pointcloud.obj
 0001:0003f060       ?match_titledraw3d@@YAXXZ  00440060 f   match_title.obj
 0001:0003f120       ?match_titleexit@@YAXXZ    00440120 f   match_title.obj
 0001:0003f170       ?match_titleinit@@YAXXZ    00440170 f   match_title.obj
 0001:0003f2a0       ?match_titleproc@@YAXXZ    004402a0 f   match_title.obj
 0001:0003f330       ?fetchhsvs@newlobby@@YAXPAUhsv@@@Z 00440330 f   newlobby.obj
 0001:0003f3c0       ?findhsvs@newlobby@@YAXXZ  004403c0 f   newlobby.obj
 0001:0003f740       ?huevis@newlobby@@YAX_N@Z  00440740 f   newlobby.obj
 0001:0003f7e0       ?loadtrackpic@newlobby@@YAXXZ 004407e0 f   newlobby.obj
 0001:0003fa00       ?newlobby_draw3d@@YAXXZ    00440a00 f   newlobby.obj
 0001:0003fac0       ?newlobby_exit@@YAXXZ      00440ac0 f   newlobby.obj
 0001:00040200       ?newlobby_init@@YAXXZ      00441200 f   newlobby.obj
 0001:00042240       ?newlobby_proc@@YAXXZ      00443240 f   newlobby.obj
 0001:00042b00       ?setweapvis@newlobby@@YAXXZ 00443b00 f   newlobby.obj
 0001:00042b40       ??0trackinfo@@QAE@XZ       00443b40 f   online_seltrack.obj
 0001:00042c10       ??1trackinfo@@QAE@XZ       00443c10 f   online_seltrack.obj
 0001:00042c80       ?findtrackidx@trackinfo@@QAEHV?$basic_string@DU?$char_traits@D@std@@V?$allocator@D@2@@std@@@Z 00443c80 f   online_seltrack.obj
 0001:00042e10       ?getnumtracks@trackinfo@@QAEHXZ 00443e10 f   online_seltrack.obj
 0001:00042e20       ?gettrackcfgname@trackinfo@@QAE?AV?$basic_string@DU?$char_traits@D@std@@V?$allocator@D@2@@std@@H@Z 00443e20 f   online_seltrack.obj
 0001:00042f70       ?gettrackdefaultrules@trackinfo@@QAEHH@Z 00443f70 f   online_seltrack.obj
 0001:00042fd0       ?gettrackdir@trackinfo@@QAE?AV?$basic_string@DU?$char_traits@D@std@@V?$allocator@D@2@@std@@H@Z 00443fd0 f   online_seltrack.obj
 0001:00043120       ?gettrackend@trackinfo@@QAEMH@Z 00444120 f   online_seltrack.obj
 0001:00043190       ?gettrackname@trackinfo@@QAE?AV?$basic_string@DU?$char_traits@D@std@@V?$allocator@D@2@@std@@H@Z 00444190 f   online_seltrack.obj
 0001:00043240       ?gettracknamebws@trackinfo@@QAE?AV?$basic_string@DU?$char_traits@D@std@@V?$allocator@D@2@@std@@H@Z 00444240 f   online_seltrack.obj
 0001:000432f0       ?gettrackpicname@trackinfo@@QAE?AV?$basic_string@DU?$char_traits@D@std@@V?$allocator@D@2@@std@@H@Z 004442f0 f   online_seltrack.obj
 0001:00043440       ?gettrackscale@trackinfo@@QAEMH@Z 00444440 f   online_seltrack.obj
 0001:000434b0       ?gettrackskybox@trackinfo@@QAE?AV?$basic_string@DU?$char_traits@D@std@@V?$allocator@D@2@@std@@H@Z 004444b0 f   online_seltrack.obj
 0001:00043510       ?gettrackstart@trackinfo@@QAEMH@Z 00444510 f   online_seltrack.obj
 0001:00043580       ?gettracktopname@trackinfo@@QAE?AV?$basic_string@DU?$char_traits@D@std@@V?$allocator@D@2@@std@@H@Z 00444580 f   online_seltrack.obj
 0001:000436d0       ?inverseweapxlate@@YAHH@Z  004446d0 f   online_seltrack.obj
 0001:00043700       ?patch_energies@@YAXXZ     00444700 f   online_seltrack.obj
 0001:00043780       ?patch_weapons@@YAXXZ      00444780 f   online_seltrack.obj
 0001:000437f0       ?seltrack_loadconfig@@YAXXZ 004447f0 f   online_seltrack.obj
 0001:00044f70       ?checkcar2car@@YAXPAUol_playerdata@@0@Z 00445f70 f   online_uphysics.obj
 0001:000453b0       ?ol_calccollisioninfo@@YAXXZ 004463b0 f   online_uphysics.obj
 0001:00045d10       ?ol_doroadcollisions@@YAXXZ 00446d10 f   online_uphysics.obj
 0001:00047a40       ?ol_updaterots@@YAXXZ      00448a40 f   online_uphysics.obj
 0001:00047ed0       ?ol_updatetrans@@YAXXZ     00448ed0 f   online_uphysics.obj
 0001:00048320       ?resetcar2car@@YAXXZ       00449320 f   online_uphysics.obj
 0001:000483d0       ??$?8DU?$char_traits@D@std@@V?$allocator@D@1@@std@@YA_NABV?$basic_string@DU?$char_traits@D@std@@V?$allocator@D@2@@0@QBD@Z 004493d0 f i online_uplay.obj
 0001:00048460       ??$buildpatch@Vplanexz_surf@@@@YAXPAVmodelb@@HHMMVplanexz_surf@@PBD2@Z 00449460 f i online_uplay.obj
 0001:00048700       ??1detachweapinfo@@QAE@XZ  00449700 f i online_uplay.obj
 0001:00048760       ?addmedal@@YAXHH@Z         00449760 f   online_uplay.obj
 0001:000487c0       ?addnull@@YAXPBUpointf3@@0@Z 004497c0 f   online_uplay.obj
 0001:00048b20       ?carextractstate_draw3d@@YAXXZ 00449b20 f   online_uplay.obj
 0001:00048c10       ?carextractstate_exit@@YAXXZ 00449c10 f   online_uplay.obj
 0001:00048d40       ?carextractstate_init@@YAXXZ 00449d40 f   online_uplay.obj
 0001:00048e40       ?carextractstate_proc@@YAXXZ 00449e40 f   online_uplay.obj
 0001:0004a6b0       ?find@?$basic_string@DU?$char_traits@D@std@@V?$allocator@D@2@@std@@QBEIQBDI@Z 0044b6b0 f i online_uplay.obj
 0001:0004a820       ?fixuppart@@YAXPAVtree2@@@Z 0044b820 f   online_uplay.obj
 0001:0004aaf0       ?getcartex@@YAPAVtextureb@@PAVtree2@@@Z 0044baf0 f   online_uplay.obj
 0001:0004adf0       ?initecto@@YAXPAUweapfly@@@Z 0044bdf0 f   online_uplay.obj
 0001:0004af10       ?initemb@@YAXPAUweapfly@@@Z 0044bf10 f   online_uplay.obj
 0001:0004af30       ?initfusioncan@@YAXPAUweapfly@@@Z 0044bf30 f   online_uplay.obj
 0001:0004aff0       ?initgbomb@@YAXPAUweapfly@@@Z 0044bff0 f   online_uplay.obj
 0001:0004b110       ?initlaser@@YAXPAUweapfly@@@Z 0044c110 f   online_uplay.obj
 0001:0004b130       ?initmine@@YAXPAUweapfly@@@Z 0044c130 f   online_uplay.obj
 0001:0004b150       ?initmissiles@@YAXPAUweapfly@@@Z 0044c150 f   online_uplay.obj
 0001:0004b170       ?initoil@@YAXPAUweapfly@@@Z 0044c170 f   online_uplay.obj
 0001:0004b190       ?initramp@@YAXPAUweapfly@@@Z 0044c190 f   online_uplay.obj
 0001:0004b2b0       ?initsonic@@YAXPAUweapfly@@@Z 0044c2b0 f   online_uplay.obj
 0001:0004b370       ?initstasis@@YAXPAUweapfly@@@Z 0044c370 f   online_uplay.obj
 0001:0004b490       ?initthermocan@@YAXPAUweapfly@@@Z 0044c490 f   online_uplay.obj
 0001:0004b4f0       ?initwall@@YAXPAUweapfly@@@Z 0044c4f0 f   online_uplay.obj
 0001:0004b610       ?loadnewdetach@@YAXH@Z     0044c610 f   online_uplay.obj
 0001:0004c070       ?makeaflyweap@@YAXHHPAUpointf3@@00HH@Z 0044d070 f   online_uplay.obj
 0001:0004c240       ?ol_douburst@@YAXH@Z       0044d240 f   online_uplay.obj
 0001:0004d7e0       ?ol_drawstring2@@YAXPAUtsp@@PAUbitmap32@@PADHHH@Z 0044e7e0 f   online_uplay.obj
 0001:00052ef0       ?ol_playatagsound2@@YAXHHMM@Z 00453ef0 f   online_uplay.obj
 0001:00052f90       ?ol_playatagsound@@YAXHMM@Z 00453f90 f   online_uplay.obj
 0001:00055470       ?onlinerace_draw3d@@YAXXZ  00456470 f   online_uplay.obj
 0001:000555f0       ?onlinerace_exit@@YAXXZ    004565f0 f   online_uplay.obj
 0001:00055770       ?onlinerace_init@@YAXXZ    00456770 f   online_uplay.obj
 0001:00055ae0       ?onlinerace_proc@@YAXXZ    00456ae0 f   online_uplay.obj
 0001:00056900       ?onlineracemain_draw3d@@YAXXZ 00457900 f   online_uplay.obj
 0001:00056c30       ?onlineracemain_exit@@YAXXZ 00457c30 f   online_uplay.obj
 0001:00057210       ?onlineracemain_init@@YAXXZ 00458210 f   online_uplay.obj
 0001:00059280       ?onlineracemain_proc@@YAXXZ 0045a280 f   online_uplay.obj
 0001:0005b870       ?pfrand1@@YAMH@Z           0045c870 f   online_uplay.obj
 0001:0005b8b0       ?pk_restorepstate0@@YAXH@Z 0045c8b0 f   online_uplay.obj
 0001:0005b8e0       ?procaplayer2@@YAXHH@Z     0045c8e0 f   online_uplay.obj
 0001:0005c3d0       ?procaplayer@@YAXHHH@Z     0045d3d0 f   online_uplay.obj
 0001:0005ca30       ?procecto@@YAXPAUweapfly@@@Z 0045da30 f   online_uplay.obj
 0001:0005cc40       ?procemb@@YAXPAUweapfly@@@Z 0045dc40 f   online_uplay.obj
 0001:0005d070       ?procflag@@YAXPAUweapfly@@@Z 0045e070 f   online_uplay.obj
 0001:0005d230       ?procfusioncan@@YAXPAUweapfly@@@Z 0045e230 f   online_uplay.obj
 0001:0005d5e0       ?procgbomb@@YAXPAUweapfly@@@Z 0045e5e0 f   online_uplay.obj
 0001:0005d7c0       ?procghook@@YAXPAUweapfly@@@Z 0045e7c0 f   online_uplay.obj
 0001:0005d980       ?procglobal@@YAXXZ         0045e980 f   online_uplay.obj
 0001:0005da20       ?proclaser@@YAXPAUweapfly@@@Z 0045ea20 f   online_uplay.obj
 0001:0005df10       ?procmine@@YAXPAUweapfly@@@Z 0045ef10 f   online_uplay.obj
 0001:0005e1c0       ?procmissiles@@YAXPAUweapfly@@@Z 0045f1c0 f   online_uplay.obj
 0001:0005e6e0       ?procoil@@YAXPAUweapfly@@@Z 0045f6e0 f   online_uplay.obj
 0001:0005e840       ?procramp@@YAXPAUweapfly@@@Z 0045f840 f   online_uplay.obj
 0001:0005e920       ?procsonic@@YAXPAUweapfly@@@Z 0045f920 f   online_uplay.obj
 0001:0005ebc0       ?procstasis@@YAXPAUweapfly@@@Z 0045fbc0 f   online_uplay.obj
 0001:0005ed60       ?procwall@@YAXPAUweapfly@@@Z 0045fd60 f   online_uplay.obj
 0001:0005f170       ?setfog@@YAXH@Z            00460170 f   online_uplay.obj
 0001:0005fb30       ?setuprematch@@YAXXZ       00460b30 f   online_uplay.obj
 0001:0005fec0       ?spawnc2ceffect@@YAXPAUpointf3@@0M0@Z 00460ec0 f   online_uplay.obj
 0001:00060080       ?updatedifftime@@YAXH@Z    00461080 f   online_uplay.obj
 0001:000603b0       ?buildudppacket@@YAHHPADH@Z 004613b0 f   packet.obj
 0001:000604d0       ?getinput@@YAXPAUol_playerdata@@@Z 004614d0 f   packet.obj
 0001:00060620       ?packetaddinput@@YAXHHH@Z  00461620 f   packet.obj
 0001:000606a0       ?packetread@@YAXXZ         004616a0 f   packet.obj
 0001:00060ab0       ?packetwrite@@YAHXZ        00461ab0 f   packet.obj
 0001:00060d40       ?parseudppacket@@YAHPADHPAH1@Z 00461d40 f   packet.obj
 0001:00060ec0       ?removeinput@@YAXHH@Z      00461ec0 f   packet.obj
 0001:00060f20       ?requestrematch@@YAXXZ     00461f20 f   packet.obj
 0001:00060f50       ?resetinputp@@YAXH@Z       00461f50 f   packet.obj
 0001:00060f80       ?restoreglobalstate@@YAXPAUglobalstate@@@Z 00461f80 f   packet.obj
 0001:00061020       ?restoreplayerstate@@YAXPAUplayerstatepacket@@PAUol_playerdata@@@Z 00462020 f   packet.obj
 0001:00061c70       ?saveglobalstate@@YAXPAUglobalstate@@@Z 00462c70 f   packet.obj
 0001:00061d20       ?saveplayerstate@@YAXPAUol_playerdata@@PAUplayerstatepacket@@@Z 00462d20 f   packet.obj
 0001:00062970       ?sendapacket@@YAXHHHHPAD@Z 00463970 f   packet.obj
 0001:00062a30       ?sendinput@@YAXPAUol_playerdata@@@Z 00463a30 f   packet.obj
 0001:00062b20       ?someinput@@YAHPAUol_playerdata@@H@Z 00463b20 f   packet.obj
 0001:00062cb0       ?freescoreline@@YAXXZ      00463cb0 f   scrline.obj
 0001:00063120       ?loadscoreline@@YAXXZ      00464120 f   scrline.obj
 0001:00063670       ?updatescoreline@@YAXPAUol_playerdata@@@Z 00464670 f   scrline.obj
 0001:00065160       ??1gameinf@@QAE@XZ         00466160 f i updater.obj
 0001:00065300       ?updater_draw3d@@YAXXZ     00466300 f   updater.obj
 0001:00065340       ?updater_exit@@YAXXZ       00466340 f   updater.obj
 0001:00065390       ?updater_init@@YAXXZ       00466390 f   updater.obj
 0001:00065550       ?updater_proc@@YAXXZ       00466550 f   updater.obj
 0001:000656c0       ?create@Animal@@SAPAV1@XZ  004666c0 f i testclassfactory.obj
 0001:000656e0       ?speak@Animal@@UAEXXZ      004666e0 f i testclassfactory.obj
 0001:000656f0       ?create@Dog@@SAPAVAnimal@@XZ 004666f0 f i testclassfactory.obj
 0001:00065710       ?speak@Dog@@UAEXXZ         00466710 f i testclassfactory.obj
 0001:00065720       ?create@Cat@@SAPAVAnimal@@XZ 00466720 f i testclassfactory.obj
 0001:00065740       ?speak@Cat@@UAEXXZ         00466740 f i testclassfactory.obj
 0001:00065750       ??0timelogger@@QAE@PBD0@Z  00466750 f   timelogger.obj
 0001:000657c0       ??1timelogger@@QAE@XZ      004667c0 f   timelogger.obj
 0001:00065860       ?printf@timelogger@@QAAXPBDZZ 00466860 f   timelogger.obj
 0001:000658e0       ?proc@timelogger@@AAEXXZ   004668e0 f   timelogger.obj
 0001:00065a90       ??$?6U?$char_traits@D@std@@@std@@YAAAV?$basic_ostream@DU?$char_traits@D@std@@@0@AAV10@PBD@Z 00466a90 f i u_ar_parse.obj
 0001:00065d10       ??$_Immortalize_impl@V_Iostream_error_category@std@@@std@@YGHPAX0PAPAX@Z 00466d10 f i u_ar_parse.obj
 0001:00065d30       ??$_Insert_string@DU?$char_traits@D@std@@I@std@@YAAAV?$basic_ostream@DU?$char_traits@D@std@@@0@AAV10@QBDI@Z 00466d30 f i u_ar_parse.obj
 0001:00065f80       ??$_Insertion_sort_unchecked@PAUpointf2@@U?$_Ref_fn@Vdoar@@@std@@@std@@YAPAUpointf2@@PAU1@QAU1@U?$_Ref_fn@Vdoar@@@0@@Z 00466f80 f i u_ar_parse.obj
 0001:00066180       ??$_Make_heap_unchecked@PAUpointf2@@U?$_Ref_fn@Vdoar@@@std@@@std@@YAXPAUpointf2@@0U?$_Ref_fn@Vdoar@@@0@@Z 00467180 f i u_ar_parse.obj
 0001:00066390       ??$_Med3_unchecked@PAUpointf2@@U?$_Ref_fn@Vdoar@@@std@@@std@@YAXPAUpointf2@@00U?$_Ref_fn@Vdoar@@@0@@Z 00467390 f i u_ar_parse.obj
 0001:00066590       ??$_Partition_by_median_guess_unchecked@PAUpointf2@@U?$_Ref_fn@Vdoar@@@std@@@std@@YA?AU?$pair@PAUpointf2@@PAU1@@0@PAUpointf2@@0U?$_Ref_fn@Vdoar@@@0@@Z 00467590 f i u_ar_parse.obj
 0001:00066a30       ??$_Pass_fn@Vdoar@@$0A@@std@@YA?AU?$_Ref_fn@Vdoar@@@0@AAVdoar@@@Z 00467a30 f i u_ar_parse.obj
 0001:00066a30       ?writeU32@@YAXPADI@Z       00467a30 f i u_s_occserver.obj
 0001:00066a40       ??$_Pop_heap_hole_by_index@PAUpointf2@@U1@U?$_Ref_fn@Vdoar@@@std@@@std@@YAXPAUpointf2@@HH$$QAU1@U?$_Ref_fn@Vdoar@@@0@@Z 00467a40 f i u_ar_parse.obj
 0001:00066c10       ??$_Sort_unchecked@PAUpointf2@@U?$_Ref_fn@Vdoar@@@std@@@std@@YAXPAUpointf2@@0HU?$_Ref_fn@Vdoar@@@0@@Z 00467c10 f i u_ar_parse.obj
 0001:00066d20       ??$use_facet@V?$ctype@D@std@@@std@@YAABV?$ctype@D@0@ABVlocale@0@@Z 00467d20 f i u_ar_parse.obj
 0001:00066e90       ??$use_facet@V?$numpunct@D@std@@@std@@YAABV?$numpunct@D@0@ABVlocale@0@@Z 00467e90 f i u_ar_parse.obj
 0001:00067000       ??0?$basic_istream@DU?$char_traits@D@std@@@std@@QAE@PAV?$basic_streambuf@DU?$char_traits@D@std@@@1@_N@Z 00468000 f i u_ar_parse.obj
 0001:000671e0       ??0?$basic_string@DU?$char_traits@D@std@@V?$allocator@D@2@@std@@QAE@ID@Z 004681e0 f i u_ar_parse.obj
 0001:000672f0       ??0?$basic_stringstream@DU?$char_traits@D@std@@V?$allocator@D@2@@std@@QAE@H@Z 004682f0 f i u_ar_parse.obj
 0001:00067490       ??0_Locinfo@std@@QAE@PBD@Z 00468490 f i u_ar_parse.obj
 0001:00067540       ??0_System_error@std@@IAE@Verror_code@1@ABV?$basic_string@DU?$char_traits@D@std@@V?$allocator@D@2@@1@@Z 00468540 f i u_ar_parse.obj
 0001:000676b0       ??0_System_error@std@@QAE@ABV01@@Z 004686b0 f i u_ar_parse.obj
 0001:00067700       ??0bad_cast@std@@QAE@ABV01@@Z 00468700 f i u_ar_parse.obj
 0001:00067740       ??0doar@@QAE@ABUpointf2@@0@Z 00468740 f   u_ar_parse.obj
 0001:00067850       ??0exception@std@@QAE@ABV01@@Z 00468850 f i u_ar_parse.obj
 0001:00067880       ??0failure@ios_base@std@@QAE@ABV012@@Z 00468880 f i u_ar_parse.obj
 0001:000678d0       ??0failure@ios_base@std@@QAE@PBDABVerror_code@2@@Z 004688d0 f i u_ar_parse.obj
 0001:000679a0       ??0runtime_error@std@@QAE@ABV01@@Z 004689a0 f i u_ar_parse.obj
 0001:000679e0       ??0runtime_error@std@@QAE@PBD@Z 004689e0 f i u_ar_parse.obj
 0001:00067a30       ??0sentry@?$basic_ostream@DU?$char_traits@D@std@@@std@@QAE@AAV12@@Z 00468a30 f i u_ar_parse.obj
 0001:00067b80       ??0system_error@std@@QAE@ABV01@@Z 00468b80 f i u_ar_parse.obj
 0001:00067bd0       ??1?$_Yarn@_W@std@@QAE@XZ  00468bd0 f i u_ar_parse.obj
 0001:00067bd0       ??1?$_Yarn@D@std@@QAE@XZ   00468bd0 f i u_ar_parse.obj
 0001:00067bf0       ??1?$basic_ios@DU?$char_traits@D@std@@@std@@UAE@XZ 00468bf0 f i u_ar_parse.obj
 0001:00067c30       ??1?$basic_iostream@DU?$char_traits@D@std@@@std@@UAE@XZ 00468c30 f i u_ar_parse.obj
 0001:00067c90       ??1?$basic_istream@DU?$char_traits@D@std@@@std@@UAE@XZ 00468c90 f i u_ar_parse.obj
 0001:00067cb0       ??1?$basic_ostream@DU?$char_traits@D@std@@@std@@UAE@XZ 00468cb0 f i u_ar_parse.obj
 0001:00067cd0       ??1?$basic_stringbuf@DU?$char_traits@D@std@@V?$allocator@D@2@@std@@UAE@XZ 00468cd0 f i u_ar_parse.obj
 0001:00067dd0       ??1?$unique_ptr@V_Facet_base@std@@U?$default_delete@V_Facet_base@std@@@2@@std@@QAE@XZ 00468dd0 f i u_ar_parse.obj
 0001:00067de0       ??1_Locinfo@std@@QAE@XZ    00468de0 f i u_ar_parse.obj
 0001:00067eb0       ??1_Sentry_base@?$basic_istream@DU?$char_traits@D@std@@@std@@QAE@XZ 00468eb0 f i engq:lodepng.obj
 0001:00067eb0       ??1_Sentry_base@?$basic_ostream@DU?$char_traits@D@std@@@std@@QAE@XZ 00468eb0 f i u_ar_parse.obj
 0001:00067ef0       ??1__non_rtti_object@std@@UAE@XZ 00468ef0 f i libvcruntime:rtti.obj
 0001:00067ef0       ??1failure@ios_base@std@@UAE@XZ 00468ef0 f i u_ar_parse.obj
 0001:00067ef0       ??1bad_alloc@std@@UAE@XZ   00468ef0 f i libcpmt:xthrow.obj
 0001:00067ef0       ??1bad_cast@std@@UAE@XZ    00468ef0 f i u_ar_parse.obj
 0001:00067ef0       ??1runtime_error@std@@UAE@XZ 00468ef0 f i u_ar_parse.obj
 0001:00067ef0       ??1out_of_range@std@@UAE@XZ 00468ef0 f i libcpmt:xthrow.obj
 0001:00067ef0       ??1bad_exception@std@@UAE@XZ 00468ef0 f i libvcruntime:frame.obj
 0001:00067ef0       ??1bad_typeid@std@@UAE@XZ  00468ef0 f i libvcruntime:rtti.obj
 0001:00067ef0       ??1length_error@std@@UAE@XZ 00468ef0 f i libcpmt:xthrow.obj
 0001:00067f10       ??1facet@locale@std@@MAE@XZ 00468f10 f i u_ar_parse.obj
 0001:00067f20       ??1locale@std@@QAE@XZ      00468f20 f i u_ar_parse.obj
 0001:00067f60       ??1sentry@?$basic_ostream@DU?$char_traits@D@std@@@std@@QAE@XZ 00468f60 f i u_ar_parse.obj
 0001:00067fc0       ??6?$basic_ostream@DU?$char_traits@D@std@@@std@@QAEAAV01@I@Z 00468fc0 f i u_ar_parse.obj
 0001:00068250       ??_D?$basic_stringstream@DU?$char_traits@D@std@@V?$allocator@D@2@@std@@QAEXXZ 00469250 f i u_ar_parse.obj
 0001:00068304       ??_E?$basic_iostream@DU?$char_traits@D@std@@@std@@$4PPPPPPPM@A@AEPAXI@Z 00469304 f i u_ar_parse.obj
 0001:0006830c       ??_E?$basic_istream@DU?$char_traits@D@std@@@std@@$4PPPPPPPM@A@AEPAXI@Z 0046930c f i u_ar_parse.obj
 0001:00068314       ??_E?$basic_ostream@DU?$char_traits@D@std@@@std@@$4PPPPPPPM@A@AEPAXI@Z 00469314 f i u_ar_parse.obj
 0001:0006831c       ??_E?$basic_stringstream@DU?$char_traits@D@std@@V?$allocator@D@2@@std@@$4PPPPPPPM@A@AEPAXI@Z 0046931c f i u_ar_parse.obj
 0001:00068330       ??_E?$basic_ios@DU?$char_traits@D@std@@@std@@UAEPAXI@Z 00469330 f i u_ar_parse.obj
 0001:00068330       ??_G?$basic_ios@DU?$char_traits@D@std@@@std@@UAEPAXI@Z 00469330 f i u_ar_parse.obj
 0001:00068390       ??_G?$basic_iostream@DU?$char_traits@D@std@@@std@@UAEPAXI@Z 00469390 f i u_ar_parse.obj
 0001:00068390       ??_E?$basic_iostream@DU?$char_traits@D@std@@@std@@UAEPAXI@Z 00469390 f i u_ar_parse.obj
 0001:00068440       ??_E?$basic_istream@DU?$char_traits@D@std@@@std@@UAEPAXI@Z 00469440 f i u_ar_parse.obj
 0001:00068440       ??_G?$basic_istream@DU?$char_traits@D@std@@@std@@UAEPAXI@Z 00469440 f i u_ar_parse.obj
 0001:000684b0       ??_E?$basic_ostream@DU?$char_traits@D@std@@@std@@UAEPAXI@Z 004694b0 f i u_ar_parse.obj
 0001:000684b0       ??_G?$basic_ostream@DU?$char_traits@D@std@@@std@@UAEPAXI@Z 004694b0 f i u_ar_parse.obj
 0001:00068520       ??_E?$basic_streambuf@DU?$char_traits@D@std@@@std@@UAEPAXI@Z 00469520 f i u_ar_parse.obj
 0001:00068520       ??_G?$basic_streambuf@DU?$char_traits@D@std@@@std@@UAEPAXI@Z 00469520 f i u_ar_parse.obj
 0001:000685a0       ??_G?$basic_stringbuf@DU?$char_traits@D@std@@V?$allocator@D@2@@std@@UAEPAXI@Z 004695a0 f i u_ar_parse.obj
 0001:000685a0       ??_E?$basic_stringbuf@DU?$char_traits@D@std@@V?$allocator@D@2@@std@@UAEPAXI@Z 004695a0 f i u_ar_parse.obj
 0001:000685d0       ??_E?$basic_stringstream@DU?$char_traits@D@std@@V?$allocator@D@2@@std@@UAEPAXI@Z 004695d0 f i u_ar_parse.obj
 0001:000685d0       ??_G?$basic_stringstream@DU?$char_traits@D@std@@V?$allocator@D@2@@std@@UAEPAXI@Z 004695d0 f i u_ar_parse.obj
 0001:00068600       ??_E?$ctype@D@std@@MAEPAXI@Z 00469600 f i u_ar_parse.obj
 0001:00068600       ??_G?$ctype@D@std@@MAEPAXI@Z 00469600 f i u_ar_parse.obj
 0001:00068660       ??_E?$num_put@DV?$ostreambuf_iterator@DU?$char_traits@D@std@@@std@@@std@@MAEPAXI@Z 00469660 f i u_ar_parse.obj
 0001:00068660       ??_E?$codecvt@DDU_Mbstatet@@@std@@MAEPAXI@Z 00469660 f i engq:m_file.obj
 0001:00068660       ??_G?$num_put@DV?$ostreambuf_iterator@DU?$char_traits@D@std@@@std@@@std@@MAEPAXI@Z 00469660 f i u_ar_parse.obj
 0001:00068660       ??_G?$codecvt@DDU_Mbstatet@@@std@@MAEPAXI@Z 00469660 f i engq:m_file.obj
 0001:00068690       ??_E?$numpunct@D@std@@MAEPAXI@Z 00469690 f i u_ar_parse.obj
 0001:00068690       ??_G?$numpunct@D@std@@MAEPAXI@Z 00469690 f i u_ar_parse.obj
 0001:000686e0       ??_E_Facet_base@std@@UAEPAXI@Z 004696e0 f i u_ar_parse.obj
 0001:000686e0       ??_G_Facet_base@std@@UAEPAXI@Z 004696e0 f i u_ar_parse.obj
 0001:00068710       ??_G_Iostream_error_category@std@@UAEPAXI@Z 00469710 f i u_ar_parse.obj
 0001:00068710       ??_E_Iostream_error_category@std@@UAEPAXI@Z 00469710 f i u_ar_parse.obj
 0001:00068730       ??_Esystem_error@std@@UAEPAXI@Z 00469730 f i u_ar_parse.obj
 0001:00068730       ??_Gfailure@ios_base@std@@UAEPAXI@Z 00469730 f i u_ar_parse.obj
 0001:00068730       ??_Efailure@ios_base@std@@UAEPAXI@Z 00469730 f i u_ar_parse.obj
 0001:00068730       ??_G_System_error@std@@UAEPAXI@Z 00469730 f i u_ar_parse.obj
 0001:00068730       ??_E_System_error@std@@UAEPAXI@Z 00469730 f i u_ar_parse.obj
 0001:00068730       ??_Gsystem_error@std@@UAEPAXI@Z 00469730 f i u_ar_parse.obj
 0001:00068760       ??_Gbad_cast@std@@UAEPAXI@Z 00469760 f i u_ar_parse.obj
 0001:00068760       ??_Eruntime_error@std@@UAEPAXI@Z 00469760 f i u_ar_parse.obj
 0001:00068760       ??_Gexception@std@@UAEPAXI@Z 00469760 f i u_ar_parse.obj
 0001:00068760       ??_Ebad_cast@std@@UAEPAXI@Z 00469760 f i u_ar_parse.obj
 0001:00068760       ??_Gruntime_error@std@@UAEPAXI@Z 00469760 f i u_ar_parse.obj
 0001:00068760       ??_Eexception@std@@UAEPAXI@Z 00469760 f i u_ar_parse.obj
 0001:00068790       ??_Eios_base@std@@UAEPAXI@Z 00469790 f i u_ar_parse.obj
 0001:00068790       ??_Gios_base@std@@UAEPAXI@Z 00469790 f i u_ar_parse.obj
 0001:000687f0       ?_Decref@facet@locale@std@@UAEPAV_Facet_base@3@XZ 004697f0 f i u_ar_parse.obj
 0001:00068810       ?_Ffmt@?$num_put@DV?$ostreambuf_iterator@DU?$char_traits@D@std@@@std@@@std@@ABAPADPADDH@Z 00469810 f i u_ar_parse.obj
 0001:000688d0       ?_Fput@?$num_put@DV?$ostreambuf_iterator@DU?$char_traits@D@std@@@std@@@std@@ABA?AV?$ostreambuf_iterator@DU?$char_traits@D@std@@@2@V32@AAVios_base@2@DPBDI@Z 004698d0 f i u_ar_parse.obj
 0001:00068e60       ?_Gnavail@?$basic_streambuf@DU?$char_traits@D@std@@@std@@IBE_JXZ 00469e60 f i u_ar_parse.obj
 0001:00068e80       ?_Ifmt@?$num_put@DV?$ostreambuf_iterator@DU?$char_traits@D@std@@@std@@@std@@ABAPADPADPBDH@Z 00469e80 f i u_ar_parse.obj
 0001:00068f10       ?_Incref@facet@locale@std@@UAEXXZ 00469f10 f i u_ar_parse.obj
 0001:00068f20       ?_Init@?$numpunct@D@std@@IAEXABV_Locinfo@2@_N@Z 00469f20 f i u_ar_parse.obj
 0001:000690b0       ?_Iput@?$num_put@DV?$ostreambuf_iterator@DU?$char_traits@D@std@@@std@@@std@@ABA?AV?$ostreambuf_iterator@DU?$char_traits@D@std@@@2@V32@AAVios_base@2@DPADI@Z 0046a0b0 f i u_ar_parse.obj
 0001:000695a0       ?_Osfx@?$basic_ostream@DU?$char_traits@D@std@@@std@@QAEXXZ 0046a5a0 f i u_ar_parse.obj
 0001:00069670       ?_Pnavail@?$basic_streambuf@DU?$char_traits@D@std@@@std@@IBE_JXZ 0046a670 f i u_ar_parse.obj
 0001:00069690       ?_Put@?$num_put@DV?$ostreambuf_iterator@DU?$char_traits@D@std@@@std@@@std@@ABA?AV?$ostreambuf_iterator@DU?$char_traits@D@std@@@2@V32@PBDI@Z 0046a690 f i u_ar_parse.obj
 0001:00069710       ?_Rep@?$num_put@DV?$ostreambuf_iterator@DU?$char_traits@D@std@@@std@@@std@@ABA?AV?$ostreambuf_iterator@DU?$char_traits@D@std@@@2@V32@DI@Z 0046a710 f i u_ar_parse.obj
 0001:00069780       ?_Tidy@?$numpunct@D@std@@AAEXXZ 0046a780 f i u_ar_parse.obj
 0001:000697a0       ?_Tidy@?$vector@Utile@penrose@@V?$allocator@Utile@penrose@@@std@@@std@@AAEXXZ 0046a7a0 f i u_s_penrose.obj
 0001:000697a0       ?_Tidy@?$vector@UIDX3@@V?$allocator@UIDX3@@@std@@@std@@AAEXXZ 0046a7a0 f i engq:m_chunk.obj
 0001:000697a0       ??1?$vector@UcircleScan@@V?$allocator@UcircleScan@@@std@@@std@@QAE@XZ 0046a7a0 f i u_ar_scan.obj
 0001:000697a0       ?_Tidy@?$vector@Uptile@jelly@@V?$allocator@Uptile@jelly@@@std@@@std@@AAEXXZ 0046a7a0 f i u_s_jelly.obj
 0001:000697a0       ?_Tidy@?$vector@Usquarei@@V?$allocator@Usquarei@@@std@@@std@@AAEXXZ 0046a7a0 f i u_qr_code2scan.obj
 0001:000697a0       ?_Tidy@?$vector@UcircleScan@@V?$allocator@UcircleScan@@@std@@@std@@AAEXXZ 0046a7a0 f i u_ar_parse.obj
 0001:000697a0       ??1?$vector@Ums@wriggler@@V?$allocator@Ums@wriggler@@@std@@@std@@QAE@XZ 0046a7a0 f i u_s_wriggler.obj
 0001:000697a0       ??1?$vector@Ums@slider@@V?$allocator@Ums@slider@@@std@@@std@@QAE@XZ 0046a7a0 f i u_s_slider.obj
 0001:000697a0       ?_Tidy@?$vector@UVC3@@V?$allocator@UVC3@@@std@@@std@@AAEXXZ 0046a7a0 f i engq:d2_bwo.obj
 0001:00069810       ?_Xran@?$_String_val@U?$_Simple_types@D@std@@@std@@SAXXZ 0046a810 f i u_ar_parse.obj
 0001:00069820       ?calcmatchstep@doar@@QAEXXZ 0046a820 f   u_ar_parse.obj
 0001:000699d0       ?clear@ios_base@std@@QAEXH_N@Z 0046a9d0 f i u_ar_parse.obj
 0001:00069a50       ?deallocate@?$allocator@D@std@@QAEXQADI@Z 0046aa50 f i u_ar_parse.obj
 0001:00069a90       ?default_error_condition@error_category@std@@UBE?AVerror_condition@2@H@Z 0046aa90 f i u_ar_parse.obj
 0001:00069ab0       ?do_decimal_point@?$numpunct@D@std@@MBEDXZ 0046aab0 f i u_ar_parse.obj
 0001:00069ac0       ?do_falsename@?$numpunct@D@std@@MBE?AV?$basic_string@DU?$char_traits@D@std@@V?$allocator@D@2@@2@XZ 0046aac0 f i u_ar_parse.obj
 0001:00069b00       ?do_grouping@?$numpunct@D@std@@MBE?AV?$basic_string@DU?$char_traits@D@std@@V?$allocator@D@2@@2@XZ 0046ab00 f i u_ar_parse.obj
 0001:00069b40       ?do_narrow@?$ctype@D@std@@MBEDDD@Z 0046ab40 f i u_ar_parse.obj
 0001:00069b50       ?do_narrow@?$ctype@D@std@@MBEPBDPBD0DPAD@Z 0046ab50 f i u_ar_parse.obj
 0001:00069b70       ?do_put@?$num_put@DV?$ostreambuf_iterator@DU?$char_traits@D@std@@@std@@@std@@MBE?AV?$ostreambuf_iterator@DU?$char_traits@D@std@@@2@V32@AAVios_base@2@DJ@Z 0046ab70 f i u_ar_parse.obj
 0001:00069bd0       ?do_put@?$num_put@DV?$ostreambuf_iterator@DU?$char_traits@D@std@@@std@@@std@@MBE?AV?$ostreambuf_iterator@DU?$char_traits@D@std@@@2@V32@AAVios_base@2@DK@Z 0046abd0 f i u_ar_parse.obj
 0001:00069c30       ?do_put@?$num_put@DV?$ostreambuf_iterator@DU?$char_traits@D@std@@@std@@@std@@MBE?AV?$ostreambuf_iterator@DU?$char_traits@D@std@@@2@V32@AAVios_base@2@DN@Z 0046ac30 f i u_ar_parse.obj
 0001:00069dd0       ?do_put@?$num_put@DV?$ostreambuf_iterator@DU?$char_traits@D@std@@@std@@@std@@MBE?AV?$ostreambuf_iterator@DU?$char_traits@D@std@@@2@V32@AAVios_base@2@DO@Z 0046add0 f i u_ar_parse.obj
 0001:00069f70       ?do_put@?$num_put@DV?$ostreambuf_iterator@DU?$char_traits@D@std@@@std@@@std@@MBE?AV?$ostreambuf_iterator@DU?$char_traits@D@std@@@2@V32@AAVios_base@2@DPBX@Z 0046af70 f i u_ar_parse.obj
 0001:00069fc0       ?do_put@?$num_put@DV?$ostreambuf_iterator@DU?$char_traits@D@std@@@std@@@std@@MBE?AV?$ostreambuf_iterator@DU?$char_traits@D@std@@@2@V32@AAVios_base@2@D_J@Z 0046afc0 f i u_ar_parse.obj
 0001:0006a020       ?do_put@?$num_put@DV?$ostreambuf_iterator@DU?$char_traits@D@std@@@std@@@std@@MBE?AV?$ostreambuf_iterator@DU?$char_traits@D@std@@@2@V32@AAVios_base@2@D_K@Z 0046b020 f i u_ar_parse.obj
 0001:0006a080       ?do_put@?$num_put@DV?$ostreambuf_iterator@DU?$char_traits@D@std@@@std@@@std@@MBE?AV?$ostreambuf_iterator@DU?$char_traits@D@std@@@2@V32@AAVios_base@2@D_N@Z 0046b080 f i u_ar_parse.obj
 0001:0006a280       ?do_thousands_sep@?$numpunct@D@std@@MBEDXZ 0046b280 f i u_ar_parse.obj
 0001:0006a290       ?do_tolower@?$ctype@D@std@@MBEDD@Z 0046b290 f i u_ar_parse.obj
 0001:0006a2b0       ?do_tolower@?$ctype@D@std@@MBEPBDPADPBD@Z 0046b2b0 f i u_ar_parse.obj
 0001:0006a300       ?do_toupper@?$ctype@D@std@@MBEDD@Z 0046b300 f i u_ar_parse.obj
 0001:0006a320       ?do_toupper@?$ctype@D@std@@MBEPBDPADPBD@Z 0046b320 f i u_ar_parse.obj
 0001:0006a370       ?do_truename@?$numpunct@D@std@@MBE?AV?$basic_string@DU?$char_traits@D@std@@V?$allocator@D@2@@2@XZ 0046b370 f i u_ar_parse.obj
 0001:0006a3b0       ?do_widen@?$ctype@D@std@@MBEDD@Z 0046b3b0 f i u_ar_parse.obj
 0001:0006a3c0       ?do_widen@?$ctype@D@std@@MBEPBDPBD0PAD@Z 0046b3c0 f i u_ar_parse.obj
 0001:0006a3e0       ?doresetrottrans@doar@@QAEXXZ 0046b3e0 f   u_ar_parse.obj
 0001:0006a430       ?equivalent@error_category@std@@UBE_NABVerror_code@2@H@Z 0046b430 f i u_ar_parse.obj
 0001:0006a460       ?equivalent@error_category@std@@UBE_NHABVerror_condition@2@@Z 0046b460 f i u_ar_parse.obj
 0001:0006a4a0       ?getarparseinfo@doar@@QAEXAAUarparseinfo@@@Z 0046b4a0 f   u_ar_parse.obj
 0001:0006a600       ?imbue@?$basic_streambuf@DU?$char_traits@D@std@@@std@@MAEXABVlocale@2@@Z 0046b600 f i u_ar_parse.obj
 0001:0006a610       ?isdone@doar@@QAE_NXZ      0046b610 f   u_ar_parse.obj
 0001:0006a620       ?make_error_code@std@@YA?AVerror_code@1@W4io_errc@1@@Z 0046b620 f i u_ar_parse.obj
 0001:0006a660       ?message@_Iostream_error_category@std@@UBE?AV?$basic_string@DU?$char_traits@D@std@@V?$allocator@D@2@@2@H@Z 0046b660 f i u_ar_parse.obj
 0001:0006a6e0       ?name@_Iostream_error_category@std@@UBEPBDXZ 0046b6e0 f i u_ar_parse.obj
 0001:0006a6f0       ?pbackfail@?$basic_streambuf@DU?$char_traits@D@std@@@std@@MAEHH@Z 0046b6f0 f i u_ar_parse.obj
 0001:0006a6f0       ?overflow@?$basic_streambuf@DU?$char_traits@D@std@@@std@@MAEHH@Z 0046b6f0 f i u_ar_parse.obj
 0001:0006a700       ?overflow@?$basic_stringbuf@DU?$char_traits@D@std@@V?$allocator@D@2@@std@@MAEHH@Z 0046b700 f i u_ar_parse.obj
 0001:0006a860       ?pbackfail@?$basic_stringbuf@DU?$char_traits@D@std@@V?$allocator@D@2@@std@@MAEHH@Z 0046b860 f i u_ar_parse.obj
 0001:0006a8c0       ?pipeline@doar@@AAE_NXZ    0046b8c0 f   u_ar_parse.obj
 0001:0006abe0       ?pipelinecheckmatch@doar@@AAEMXZ 0046bbe0 f   u_ar_parse.obj
 0001:0006ac90       ?readarcode@@YA?AV?$basic_string@DU?$char_traits@D@std@@V?$allocator@D@2@@std@@ABV12@PBUbitmap32@@AAV?$vector@UcircleScan@@V?$allocator@UcircleScan@@@std@@@2@PAPAU3@@Z 0046bc90 f   u_ar_parse.obj
 0001:0006afa0       ?seekoff@?$basic_streambuf@DU?$char_traits@D@std@@@std@@MAE?AV?$fpos@U_Mbstatet@@@2@_JHH@Z 0046bfa0 f i u_ar_parse.obj
 0001:0006afd0       ?seekoff@?$basic_stringbuf@DU?$char_traits@D@std@@V?$allocator@D@2@@std@@MAE?AV?$fpos@U_Mbstatet@@@2@_JHH@Z 0046bfd0 f i u_ar_parse.obj
 0001:0006b130       ?seekpos@?$basic_streambuf@DU?$char_traits@D@std@@@std@@MAE?AV?$fpos@U_Mbstatet@@@2@V32@H@Z 0046c130 f i u_ar_parse.obj
 0001:0006b160       ?seekpos@?$basic_stringbuf@DU?$char_traits@D@std@@V?$allocator@D@2@@std@@MAE?AV?$fpos@U_Mbstatet@@@2@V32@H@Z 0046c160 f i u_ar_parse.obj
 0001:0006b250       ?setbuf@?$basic_streambuf@DU?$char_traits@D@std@@@std@@MAEPAV12@PAD_J@Z 0046c250 f i u_ar_parse.obj
 0001:0006b260       ?setscanpoints@doar@@QAEXPBUpointf2@@@Z 0046c260 f   u_ar_parse.obj
 0001:0006b6b0       ?setstate@?$basic_ios@DU?$char_traits@D@std@@@std@@QAEXH_N@Z 0046c6b0 f i u_ar_parse.obj
 0001:0006b6e0       ?showmanyc@?$basic_streambuf@DU?$char_traits@D@std@@@std@@MAE_JXZ 0046c6e0 f i u_ar_parse.obj
 0001:0006b6f0       ?str@?$basic_stringstream@DU?$char_traits@D@std@@V?$allocator@D@2@@std@@QBE?AV?$basic_string@DU?$char_traits@D@std@@V?$allocator@D@2@@2@XZ 0046c6f0 f i u_ar_parse.obj
 0001:0006b7a0       ?uflow@?$basic_streambuf@DU?$char_traits@D@std@@@std@@MAEHXZ 0046c7a0 f i u_ar_parse.obj
 0001:0006b7d0       ?underflow@?$basic_streambuf@DU?$char_traits@D@std@@@std@@MAEHXZ 0046c7d0 f i u_ar_parse.obj
 0001:0006b7d0       ?procfocus@shape@res3d@@UAEHXZ 0046c7d0 f i misclibq:l_res3d.obj
 0001:0006b7d0       ?proc@shape@res2d@@UAEHXZ  0046c7d0 f i misclibq:l_res.obj
 0001:0006b7e0       ?underflow@?$basic_stringbuf@DU?$char_traits@D@std@@V?$allocator@D@2@@std@@MAEHXZ 0046c7e0 f i u_ar_parse.obj
 0001:0006b840       ?what@exception@std@@UBEPBDXZ 0046c840 f i u_ar_parse.obj
 0001:0006b850       ?xsgetn@?$basic_streambuf@DU?$char_traits@D@std@@@std@@MAE_JPAD_J@Z 0046c850 f i u_ar_parse.obj
 0001:0006b920       ?xsputn@?$basic_streambuf@DU?$char_traits@D@std@@@std@@MAE_JPBD_J@Z 0046c920 f i u_ar_parse.obj
 0001:0006b9e0       _sprintf_s                 0046c9e0 f i u_ar_parse.obj
 0001:0006ba10       ??$_Destroy_range@V?$allocator@V?$vector@Vzee2@@V?$allocator@Vzee2@@@std@@@std@@@std@@@std@@YAXPAV?$vector@Vzee2@@V?$allocator@Vzee2@@@std@@@0@0AAV?$allocator@V?$vector@Vzee2@@V?$allocator@Vzee2@@@std@@@std@@@0@@Z 0046ca10 f i engq:augmatz.obj
 0001:0006ba10       ??$_Destroy_range@V?$allocator@V?$vector@V?$complex@M@std@@V?$allocator@V?$complex@M@std@@@2@@std@@@std@@@std@@YAXPAV?$vector@V?$complex@M@std@@V?$allocator@V?$complex@M@std@@@2@@0@0AAV?$allocator@V?$vector@V?$complex@M@std@@V?$allocator@V?$complex@M@std@@@2@@std@@@0@@Z 0046ca10 f i u_qcolumn.obj
 0001:0006ba10       ??$_Destroy_range@V?$allocator@V?$vector@Upointi2@@V?$allocator@Upointi2@@@std@@@std@@@std@@@std@@YAXPAV?$vector@Upointi2@@V?$allocator@Upointi2@@@std@@@0@0AAV?$allocator@V?$vector@Upointi2@@V?$allocator@Upointi2@@@std@@@std@@@0@@Z 0046ca10 f i u_ar_scan.obj
 0001:0006ba10       ??$_Destroy_range@V?$allocator@V?$vector@Upointf2@@V?$allocator@Upointf2@@@std@@@std@@@std@@@std@@YAXPAV?$vector@Upointf2@@V?$allocator@Upointf2@@@std@@@0@0AAV?$allocator@V?$vector@Upointf2@@V?$allocator@Upointf2@@@std@@@std@@@0@@Z 0046ca10 f i u_pointcloudkdtree.obj
 0001:0006ba80       ??$_Emplace_reallocate@ABUIDX3@@@?$vector@UIDX3@@V?$allocator@UIDX3@@@std@@@std@@QAEPAUIDX3@@QAU2@ABU2@@Z 0046ca80 f i engq:m_chunk.obj
 0001:0006ba80       ??$_Emplace_reallocate@ABUcircleScan@@@?$vector@UcircleScan@@V?$allocator@UcircleScan@@@std@@@std@@QAEPAUcircleScan@@QAU2@ABU2@@Z 0046ca80 f i u_ar_scan.obj
 0001:0006ba80       ??$_Emplace_reallocate@ABUVC3@@@?$vector@UVC3@@V?$allocator@UVC3@@@std@@@std@@QAEPAUVC3@@QAU2@ABU2@@Z 0046ca80 f i engq:m_chunk.obj
 0001:0006ba80       ??$_Emplace_reallocate@ABUms@slider@@@?$vector@Ums@slider@@V?$allocator@Ums@slider@@@std@@@std@@QAEPAUms@slider@@QAU23@ABU23@@Z 0046ca80 f i u_s_slider.obj
 0001:0006ba80       ??$_Emplace_reallocate@ABUms@wriggler@@@?$vector@Ums@wriggler@@V?$allocator@Ums@wriggler@@@std@@@std@@QAEPAUms@wriggler@@QAU23@ABU23@@Z 0046ca80 f i u_s_wriggler.obj
 0001:0006bc20       ??$use_facet@V?$num_put@DV?$ostreambuf_iterator@DU?$char_traits@D@std@@@std@@@std@@@std@@YAABV?$num_put@DV?$ostreambuf_iterator@DU?$char_traits@D@std@@@std@@@0@ABVlocale@0@@Z 0046cc20 f i u_ar_scan.obj
 0001:0006bd70       ??0?$vector@V?$vector@Upointi2@@V?$allocator@Upointi2@@@std@@@std@@V?$allocator@V?$vector@Upointi2@@V?$allocator@Upointi2@@@std@@@std@@@2@@std@@QAE@IABV?$allocator@V?$vector@Upointi2@@V?$allocator@Upointi2@@@std@@@std@@@1@@Z 0046cd70 f i u_ar_scan.obj
 0001:0006be40       ??6?$basic_ostream@DU?$char_traits@D@std@@@std@@QAEAAV01@H@Z 0046ce40 f i u_ar_scan.obj
 0001:0006bfe0       ??6?$basic_ostream@DU?$char_traits@D@std@@@std@@QAEAAV01@M@Z 0046cfe0 f i u_ar_scan.obj
 0001:0006c190       ?_Tidy@?$vector@V?$vector@V?$complex@M@std@@V?$allocator@V?$complex@M@std@@@2@@std@@V?$allocator@V?$vector@V?$complex@M@std@@V?$allocator@V?$complex@M@std@@@2@@std@@@2@@std@@AAEXXZ 0046d190 f i u_qcolumn.obj
 0001:0006c190       ??1?$vector@V?$vector@Upointf2@@V?$allocator@Upointf2@@@std@@@std@@V?$allocator@V?$vector@Upointf2@@V?$allocator@Upointf2@@@std@@@std@@@2@@std@@QAE@XZ 0046d190 f i u_pointcloudkdtree.obj
 0001:0006c190       ?_Tidy@?$vector@V?$vector@Upointi2@@V?$allocator@Upointi2@@@std@@@std@@V?$allocator@V?$vector@Upointi2@@V?$allocator@Upointi2@@@std@@@std@@@2@@std@@AAEXXZ 0046d190 f i u_ar_scan.obj
 0001:0006c190       ?_Tidy@?$vector@V?$vector@Vzee2@@V?$allocator@Vzee2@@@std@@@std@@V?$allocator@V?$vector@Vzee2@@V?$allocator@Vzee2@@@std@@@std@@@2@@std@@AAEXXZ 0046d190 f i engq:augmatz.obj
 0001:0006c210       ?ar_test_wider_neighbor1D@@YAXXZ 0046d210 f   u_ar_scan.obj
 0001:0006c270       ?doscanar@@YA?AV?$vector@UcircleScan@@V?$allocator@UcircleScan@@@std@@@std@@PAUbitmap32@@AAV?$basic_string@DU?$char_traits@D@std@@V?$allocator@D@2@@2@@Z 0046d270 f   u_ar_scan.obj
 0001:0006cb40       ??$fill@PAIH@std@@YAXPAI0ABH@Z 0046db40 f i engq:m_wh.obj
 0001:0006cb40       ??$fill@PAHH@std@@YAXPAH0ABH@Z 0046db40 f i u_group_field.obj
 0001:0006cb40       ??$_Fill_unchecked@PAHH@std@@YAXPAH0ABH@Z 0046db40 f i u_ply.obj
 0001:0006cb40       ??$_Fill_unchecked@PAII@std@@YAXPAI0ABI@Z 0046db40 f i u_bch.obj
 0001:0006cbc0       ??$_Insert_range@PAI@?$vector@IV?$allocator@I@std@@@std@@AAEXV?$_Vector_const_iterator@V?$_Vector_val@U?$_Simple_types@I@std@@@std@@@1@PAI1Uforward_iterator_tag@1@@Z 0046dbc0 f i u_bch.obj
 0001:0006cd80       ??0?$vector@V?$vector@EV?$allocator@E@std@@@std@@V?$allocator@V?$vector@EV?$allocator@E@std@@@std@@@2@@std@@QAE@$$QAV01@@Z 0046dd80 f i u_qr_code2scan.obj
 0001:0006cd80       ??0?$vector@EV?$allocator@E@std@@@std@@QAE@$$QAV01@@Z 0046dd80 f i u_qr_code2parse.obj
 0001:0006cd80       ??0?$vector@Vply@@V?$allocator@Vply@@@std@@@std@@QAE@$$QAV01@@Z 0046dd80 f i u_ply.obj
 0001:0006cd80       ??0?$vector@IV?$allocator@I@std@@@std@@QAE@$$QAV01@@Z 0046dd80 f i u_bch.obj
 0001:0006cdd0       ?_Buy@?$vector@Vpiece2@@V?$allocator@Vpiece2@@@std@@@std@@AAE_NI@Z 0046ddd0 f i u_game2.obj
 0001:0006cdd0       ?_Buy@?$vector@IV?$allocator@I@std@@@std@@AAE_NI@Z 0046ddd0 f i u_bch.obj
 0001:0006cdd0       ?_Buy@?$vector@HV?$allocator@H@std@@@std@@AAE_NI@Z 0046ddd0 f i u_ply.obj
 0001:0006ce30       ?_Change_array@?$vector@PAVqgatebase@@V?$allocator@PAVqgatebase@@@std@@@std@@AAEXQAPAVqgatebase@@II@Z 0046de30 f i u_qcolumn.obj
 0001:0006ce30       ?_Change_array@?$vector@PAUwavehandle@@V?$allocator@PAUwavehandle@@@std@@@std@@AAEXQAPAUwavehandle@@II@Z 0046de30 f i u_s_arena1.obj
 0001:0006ce30       ?_Change_array@?$vector@HV?$allocator@H@std@@@std@@AAEXQAHII@Z 0046de30 f i u_ply.obj
 0001:0006ce30       ?_Change_array@?$vector@IV?$allocator@I@std@@@std@@AAEXQAIII@Z 0046de30 f i u_bch.obj
 0001:0006ce30       ?_Change_array@?$vector@PAVshape@@V?$allocator@PAVshape@@@std@@@std@@AAEXQAPAVshape@@II@Z 0046de30 f i u_s_physics2d.obj
 0001:0006cf00       ?decoder15_5@@YAIIIPAH0@Z  0046df00 f   u_bch.obj
 0001:0006cf30       ?decoder18_6@@YAIIIPAH0@Z  0046df30 f   u_bch.obj
 0001:0006d080       ?encoder15_5@@YAII@Z       0046e080 f   u_bch.obj
 0001:0006d0f0       ?encoder18_6@@YAII@Z       0046e0f0 f   u_bch.obj
 0001:0006d3a0       ?rs_calc_syndromes@@YA?AV?$vector@IV?$allocator@I@std@@@std@@ABV12@I@Z 0046e3a0 f   u_bch.obj
 0001:0006d400       ?rs_correct_errata@@YAXAAV?$vector@IV?$allocator@I@std@@@std@@ABV12@1@Z 0046e400 f   u_bch.obj
 0001:0006d8c0       ?rs_correct_msg@@YA?AV?$vector@IV?$allocator@I@std@@@std@@V12@IPAH1@Z 0046e8c0 f   u_bch.obj
 0001:0006ddc0       ?rs_encode_msg@@YA?AV?$vector@IV?$allocator@I@std@@@std@@ABV12@I@Z 0046edc0 f   u_bch.obj
 0001:0006df30       ?rs_find_errors@@YA?AV?$vector@IV?$allocator@I@std@@@std@@ABV12@IPAH@Z 0046ef30 f   u_bch.obj
 0001:0006e880       ??0fplot3d@@QAE@HHHHMMMMMMPBUbitmap32@@PBD11MM@Z 0046f880 f   u_fplot.obj
 0001:0006ea00       ??0fplot@@QAE@HHHHMMMMPBUbitmap32@@PBD1PBUC32@@@Z 0046fa00 f   u_fplot.obj
 0001:0006eaf0       ?drawaxis@fplot3d@@QAEXXZ  0046faf0 f   u_fplot.obj
 0001:0006ec30       ?drawaxis@fplot@@QAEXXZ    0046fc30 f   u_fplot.obj
 0001:0006ed20       ?drawlabels@fplot3d@@QAEXXZ 0046fd20 f   u_fplot.obj
 0001:0006eed0       ?drawlabels@fplot@@QAEXXZ  0046fed0 f   u_fplot.obj
 0001:0006efe0       ?fline@fplot3d@@QAEXMMMMMMUC32@@M@Z 0046ffe0 f   u_fplot.obj
 0001:0006f190       ?flinev@fplot3d@@QAEXMMMUC32@@M@Z 00470190 f   u_fplot.obj
 0001:0006f220       ?flinev@fplot@@QAEXMMUC32@@@Z 00470220 f   u_fplot.obj
 0001:0006f2b0       ?startlinev@fplot3d@@QAEXXZ 004702b0 f   u_fplot.obj
 0001:0006f2c0       ?startlinev@fplot@@QAEXXZ  004702c0 f   u_fplot.obj
 0001:0006f2d0       ??$_Emplace_reallocate@ABVpiece2@@@?$vector@Vpiece2@@V?$allocator@Vpiece2@@@std@@@std@@QAEPAVpiece2@@QAV2@ABV2@@Z 004702d0 f i u_game2.obj
 0001:0006f440       ??$_Fill_unchecked1@PAV?$vector@Vpiece2@@V?$allocator@Vpiece2@@@std@@@std@@V12@@std@@YAXPAV?$vector@Vpiece2@@V?$allocator@Vpiece2@@@std@@@0@0ABV10@U?$integral_constant@_N$0A@@0@@Z 00470440 f i u_game2.obj
 0001:0006f5c0       ??$_Make_heap_unchecked@PAVpiece2@@U?$less@X@std@@@std@@YAXPAVpiece2@@0U?$less@X@0@@Z 004705c0 f i u_game2.obj
 0001:0006f6e0       ??$_Med3_unchecked@PAVpiece2@@U?$less@X@std@@@std@@YAXPAVpiece2@@00U?$less@X@0@@Z 004706e0 f i u_game2.obj
 0001:0006f7a0       ??$_Partition_by_median_guess_unchecked@PAVpiece2@@U?$less@X@std@@@std@@YA?AU?$pair@PAVpiece2@@PAV1@@0@PAVpiece2@@0U?$less@X@0@@Z 004707a0 f i u_game2.obj
 0001:0006faa0       ??$_Pop_heap_hole_by_index@PAVpiece2@@V1@U?$less@X@std@@@std@@YAXPAVpiece2@@HH$$QAV1@U?$less@X@0@@Z 00470aa0 f i u_game2.obj
 0001:0006fb90       ??$_Sort_unchecked@PAVpiece2@@U?$less@X@std@@@std@@YAXPAVpiece2@@0HU?$less@X@0@@Z 00470b90 f i u_game2.obj
 0001:0006fd50       ??0?$vector@Vpiece2@@V?$allocator@Vpiece2@@@std@@@std@@QAE@ABV01@@Z 00470d50 f i u_game2.obj
 0001:0006fde0       ??0?$vector@HV?$allocator@H@std@@@std@@QAE@IABHABV?$allocator@H@1@@Z 00470de0 f i u_s_ifield.obj
 0001:0006fde0       ??0?$vector@Vpiece2@@V?$allocator@Vpiece2@@@std@@@std@@QAE@IABVpiece2@@ABV?$allocator@Vpiece2@@@1@@Z 00470de0 f i u_game2.obj
 0001:0006fe50       ??0board@@QAE@PAU_iobuf@@_N@Z 00470e50 f   u_game2.obj
 0001:0006ffd0       ??0board@@QAE@V?$basic_string@DU?$char_traits@D@std@@V?$allocator@D@2@@std@@@Z 00470fd0 f   u_game2.obj
 0001:000704e0       ??1?$_Uninitialized_backout_al@PAV?$vector@MV?$allocator@M@std@@@std@@V?$allocator@V?$vector@MV?$allocator@M@std@@@std@@@2@@std@@QAE@XZ 004714e0 f i quant3.obj
 0001:000704e0       ??1?$_Uninitialized_backout_al@PAV?$vector@Vpiece2@@V?$allocator@Vpiece2@@@std@@@std@@V?$allocator@V?$vector@Vpiece2@@V?$allocator@Vpiece2@@@std@@@std@@@2@@std@@QAE@XZ 004714e0 f i u_game2.obj
 0001:000704e0       ??1?$_Uninitialized_backout_al@PAVperm@smallgroups@@V?$allocator@Vperm@smallgroups@@@std@@@std@@QAE@XZ 004714e0 f i u_smallgroups.obj
 0001:000704e0       ??1?$_Uninitialized_backout_al@PAV?$vector@IV?$allocator@I@std@@@std@@V?$allocator@V?$vector@IV?$allocator@I@std@@@std@@@2@@std@@QAE@XZ 004714e0 f i u_s_game2_endgame.obj
 0001:00070500       ??8board@@QBE_NABV0@@Z     00471500 f   u_game2.obj
 0001:00070570       ??Mboard@@QBE_NABV0@@Z     00471570 f   u_game2.obj
 0001:00070610       ?_Ufill@?$vector@V?$vector@Vpiece2@@V?$allocator@Vpiece2@@@std@@@std@@V?$allocator@V?$vector@Vpiece2@@V?$allocator@Vpiece2@@@std@@@std@@@2@@std@@AAEPAV?$vector@Vpiece2@@V?$allocator@Vpiece2@@@std@@@2@PAV32@IABV32@@Z 00471610 f i u_game2.obj
 0001:00070690       ?assign@?$vector@V?$vector@Vpiece2@@V?$allocator@Vpiece2@@@std@@@std@@V?$allocator@V?$vector@Vpiece2@@V?$allocator@Vpiece2@@@std@@@std@@@2@@std@@QAEXIABV?$vector@Vpiece2@@V?$allocator@Vpiece2@@@std@@@2@@Z 00471690 f i u_game2.obj
 0001:00070820       ?board2screen@board@@SA?AUpointi2@@ABUpointi2b8@@@Z 00471820 f   u_game2.obj
 0001:00070850       ?canmoveto_whos@board@@QBE_NHH@Z 00471850 f   u_game2.obj
 0001:00070890       ?checkmove@board@@QBE_NHABUpointi2b8@@@Z 00471890 f   u_game2.obj
 0001:000708f0       ?draw@board@@QBEXHABVpiece2@@_NPBUpointi2@@@Z 004718f0 f   u_game2.obj
 0001:000709b0       ?drawpieces@board@@QBEXHABVpiece2@@_NPBUpointi2@@@Z 004719b0 f   u_game2.obj
 0001:00070b80       ?findcloseemptypos@board@@QBE_NPAUpointi2b8@@_N@Z 00471b80 f   u_game2.obj
 0001:00070c40       ?findcloseidx@board@@QBEH_N@Z 00471c40 f   u_game2.obj
 0001:00070ce0       ?flipcolor@board@@SADD@Z   00471ce0 f   u_game2.obj
 0001:00070d00       ?flipturn@board@@QAEXXZ    00471d00 f   u_game2.obj
 0001:00070d60       ?flipx@board@@QAEXXZ       00471d60 f   u_game2.obj
 0001:00070d90       ?getfuture@board@@QBE?AUgamestatus@@XZ 00471d90 f   u_game2.obj
 0001:00070db0       ?gethash@board@@QBEIXZ     00471db0 f   u_game2.obj
 0001:00070e10       ?getpiecepos@board@@QBE?AUpointi2b8@@H@Z 00471e10 f   u_game2.obj
 0001:00070e30       ?make_whos@board@@QBEXXZ   00471e30 f   u_game2.obj
 0001:00070fa0       ?movepiece@board@@QAEXHABUpointi2b8@@@Z 00471fa0 f   u_game2.obj
 0001:00070fe0       ?rot90@board@@QAEXXZ       00471fe0 f   u_game2.obj
 0001:00071020       ?write@board@@QBEXPAU_iobuf@@_N@Z 00472020 f   u_game2.obj
 0001:00071130       ??$_Resize@V<lambda_ac46504d121956be4d19caa267422eef>@@@?$vector@IV?$allocator@I@std@@@std@@AAEXIV<lambda_ac46504d121956be4d19caa267422eef>@@@Z 00472130 f i u_goldbach.obj
 0001:000712b0       ??H?$_Vb_iterator@U?$_Wrap_alloc@V?$allocator@I@std@@@std@@@std@@QBE?AV01@H@Z 004722b0 f i u_goldbach.obj
 0001:00071310       ??Y?$_Vb_iterator@U?$_Wrap_alloc@V?$allocator@I@std@@@std@@@std@@QAEAAV01@H@Z 00472310 f i u_goldbach.obj
 0001:00071370       ?_Insert_n@?$vector@_NV?$allocator@_N@std@@@std@@QAE?AV?$_Vb_iterator@U?$_Wrap_alloc@V?$allocator@I@std@@@std@@@2@V?$_Vb_const_iterator@U?$_Wrap_alloc@V?$allocator@I@std@@@std@@@2@IAB_N@Z 00472370 f i u_goldbach.obj
 0001:00071520       ?end@?$vector@_NV?$allocator@_N@std@@@std@@QAE?AV?$_Vb_iterator@U?$_Wrap_alloc@V?$allocator@I@std@@@std@@@2@XZ 00472520 f i u_goldbach.obj
 0001:00071570       ?erase@?$vector@_NV?$allocator@_N@std@@@std@@QAE?AV?$_Vb_iterator@U?$_Wrap_alloc@V?$allocator@I@std@@@std@@@2@V?$_Vb_const_iterator@U?$_Wrap_alloc@V?$allocator@I@std@@@std@@@2@0@Z 00472570 f i u_goldbach.obj
 0001:00071720       ??$_Emplace_reallocate@ABE@?$vector@EV?$allocator@E@std@@@std@@QAEPAEQAEABE@Z 00472720 f i u_groupanalyze.obj
 0001:00071820       ??$_Emplace_reallocate@ABVcycle@ga@@@?$vector@Vcycle@ga@@V?$allocator@Vcycle@ga@@@std@@@std@@QAEPAVcycle@ga@@QAV23@ABV23@@Z 00472820 f i u_groupanalyze.obj
 0001:00071a20       ??$_Emplace_reallocate@ABVpermute@ga@@@?$vector@Vpermute@ga@@V?$allocator@Vpermute@ga@@@std@@@std@@QAEPAVpermute@ga@@QAV23@ABV23@@Z 00472a20 f i u_groupanalyze.obj
 0001:00071ca0       ??$_Uninitialized_move@PAVcycle@ga@@PAV12@V?$allocator@Vcycle@ga@@@std@@@std@@YAPAVcycle@ga@@QAV12@0PAV12@AAV?$allocator@Vcycle@ga@@@0@@Z 00472ca0 f i u_groupanalyze.obj
 0001:00071ca0       ??$_Uninitialized_move@PAVperm@smallgroups@@PAV12@V?$allocator@Vperm@smallgroups@@@std@@@std@@YAPAVperm@smallgroups@@QAV12@0PAV12@AAV?$allocator@Vperm@smallgroups@@@0@@Z 00472ca0 f i u_smallgroups.obj
 0001:00071d20       ??0?$vector@EV?$allocator@E@std@@@std@@QAE@ABV01@@Z 00472d20 f i u_groupanalyze.obj
 0001:00071d90       ??0?$vector@V?$vector@IV?$allocator@I@std@@@std@@V?$allocator@V?$vector@IV?$allocator@I@std@@@std@@@2@@std@@QAE@IABV?$allocator@V?$vector@IV?$allocator@I@std@@@std@@@1@@Z 00472d90 f i u_groupanalyze.obj
 0001:00071e20       ??0permute@ga@@QAE@$$QAV01@@Z 00472e20 f i u_groupanalyze.obj
 0001:00071eb0       ??0permute@ga@@QAE@IPBHV?$basic_string@DU?$char_traits@D@std@@V?$allocator@D@2@@std@@@Z 00472eb0 f i u_groupanalyze.obj
 0001:00071fc0       ??0permute@ga@@QAE@IV?$basic_string@DU?$char_traits@D@std@@V?$allocator@D@2@@std@@@Z 00472fc0 f i u_groupanalyze.obj
 0001:000720a0       ??1?$vector@EV?$allocator@E@std@@@std@@QAE@XZ 004730a0 f i u_groupanalyze.obj
 0001:000720a0       ?_Tidy@?$vector@EV?$allocator@E@std@@@std@@AAEXXZ 004730a0 f i u_qr_code2parse.obj
 0001:000720a0       ??1?$vector@UpointS82@sokoban2@@V?$allocator@UpointS82@sokoban2@@@std@@@std@@QAE@XZ 004730a0 f i u_s_sokoban2.obj
 0001:000720f0       ??1?$vector@Vpermute@ga@@V?$allocator@Vpermute@ga@@@std@@@std@@QAE@XZ 004730f0 f i u_groupanalyze.obj
 0001:00072170       ??1permute@ga@@QAE@XZ      00473170 f i u_groupanalyze.obj
 0001:00072200       ??Dpermute@ga@@QBE?AV01@V01@@Z 00473200 f   u_groupanalyze.obj
 0001:00072490       ?_Destroy@?$vector@Vcycle@ga@@V?$allocator@Vcycle@ga@@@std@@@std@@AAEXPAVcycle@ga@@0@Z 00473490 f i u_groupanalyze.obj
 0001:00072490       ?_Destroy@?$vector@Vperm@smallgroups@@V?$allocator@Vperm@smallgroups@@@std@@@std@@AAEXPAVperm@smallgroups@@0@Z 00473490 f i u_smallgroups.obj
 0001:000724b0       ?_Destroy@?$vector@Vpermute@ga@@V?$allocator@Vpermute@ga@@@std@@@std@@AAEXPAVpermute@ga@@0@Z 004734b0 f i u_groupanalyze.obj
 0001:000724e0       ?addpermute@group@ga@@QAE_NABVpermute@2@@Z 004734e0 f i u_groupanalyze.obj
 0001:00072710       ?allocate@?$allocator@V?$vector@IV?$allocator@I@std@@@std@@@std@@QAEPAV?$vector@IV?$allocator@I@std@@@2@I@Z 00473710 f i u_groupanalyze.obj
 0001:00072710       ?allocate@?$allocator@V?$vector@Vzee2@@V?$allocator@Vzee2@@@std@@@std@@@std@@QAEPAV?$vector@Vzee2@@V?$allocator@Vzee2@@@std@@@2@I@Z 00473710 f i engq:augmatz.obj
 0001:00072710       ?allocate@?$allocator@V?$vector@V?$complex@M@std@@V?$allocator@V?$complex@M@std@@@2@@std@@@std@@QAEPAV?$vector@V?$complex@M@std@@V?$allocator@V?$complex@M@std@@@2@@2@I@Z 00473710 f i u_qmat.obj
 0001:00072710       ?allocate@?$allocator@Utile@penrose@@@std@@QAEPAUtile@penrose@@I@Z 00473710 f i u_s_penrose.obj
 0001:00072710       ?allocate@?$allocator@Usquarei@@@std@@QAEPAUsquarei@@I@Z 00473710 f i u_qr_code2scan.obj
 0001:00072710       ?allocate@?$allocator@Vperm@smallgroups@@@std@@QAEPAVperm@smallgroups@@I@Z 00473710 f i u_smallgroups.obj
 0001:00072710       ?allocate@?$allocator@Uptile@jelly@@@std@@QAEPAUptile@jelly@@I@Z 00473710 f i u_s_jelly.obj
 0001:00072780       ?build_cs@permute@ga@@QBE?AV?$vector@Vcycle@ga@@V?$allocator@Vcycle@ga@@@std@@@std@@XZ 00473780 f i u_groupanalyze.obj
 0001:00072960       ?calcgroup@group@ga@@QAEXXZ 00473960 f i u_groupanalyze.obj
 0001:00072ff0       ?calchash@permute@ga@@AAEXXZ 00473ff0 f   u_groupanalyze.obj
 0001:000730b0       ?checkfilter@permute@ga@@QBE_NV?$vector@IV?$allocator@I@std@@@std@@@Z 004740b0 f i u_groupanalyze.obj
 0001:00073120       ?deallocate@?$allocator@Vpermute@ga@@@std@@QAEXQAVpermute@ga@@I@Z 00474120 f i u_groupanalyze.obj
 0001:00073160       ?groupanalyze@@YAXXZ       00474160 f   u_groupanalyze.obj
 0001:00073410       ?groupanalyzedraw@@YAXXZ   00474410 f   u_groupanalyze.obj
 0001:00073470       ?print@group@ga@@QBEXXZ    00474470 f i u_groupanalyze.obj
 0001:00073780       ?reserve@?$basic_string@DU?$char_traits@D@std@@V?$allocator@D@2@@std@@QAEXI@Z 00474780 f i u_groupanalyze.obj
 0001:000738a0       ?setdelimit@permute@ga@@SAXV?$basic_string@DU?$char_traits@D@std@@V?$allocator@D@2@@std@@@Z 004748a0 f i u_groupanalyze.obj
 0001:00073920       ?backupgroup@group@@QAEXXZ 00474920 f   u_group_field.obj
 0001:00073990       ?checkfield@@YA?AUfielderror@@PBVgroup@@0@Z 00474990 f   u_group_field.obj
 0001:00073cb0       ?checkgroup@group@@QAE_NXZ 00474cb0 f   u_group_field.obj
 0001:000740d0       ?drawboard@group@@QAEXXZ   004750d0 f   u_group_field.obj
 0001:00074630       ?drawbuttons@group@@QAEXXZ 00475630 f   u_group_field.obj
 0001:00074730       ?drawerror@group@@QAEXXZ   00475730 f   u_group_field.obj
 0001:000749f0       ?hexchar@@YADH@Z           004759f0 f   u_group_field.obj
 0001:00074a20       ?op@group@@QBEHHH@Z        00475a20 f   u_group_field.obj
 0001:00074a50       ?opm@group@@QBEHHH@Z       00475a50 f   u_group_field.obj
 0001:00074a80       ?procbuttons@group@@QAEXPAV1@@Z 00475a80 f   u_group_field.obj
 0001:00074d80       ?resetge@group@@QAEXXZ     00475d80 f   u_group_field.obj
 0001:00074da0       ?resetgroup@group@@QAEXXZ  00475da0 f   u_group_field.obj
 0001:00074e10       ?setboard@group@@QAEXHHH@Z 00475e10 f   u_group_field.obj
 0001:00074e40       ??$?0V?$allocator@U?$_Tree_node@U?$pair@$$CBV?$basic_string@DU?$char_traits@D@std@@V?$allocator@D@2@@std@@Vjson@@@std@@PAX@std@@@std@@@?$_Tree@V?$_Tmap_traits@V?$basic_string@DU?$char_traits@D@std@@V?$allocator@D@2@@std@@Vjson@@U?$less@V?$basic_string@DU?$char_traits@D@std@@V?$allocator@D@2@@std@@@2@V?$allocator@U?$pair@$$CBV?$basic_string@DU?$char_traits@D@std@@V?$allocator@D@2@@std@@Vjson@@@std@@@2@$0A@@std@@@std@@QAE@ABV01@$$QAV?$allocator@U?$_Tree_node@U?$pair@$$CBV?$basic_string@DU?$char_traits@D@std@@V?$allocator@D@2@@std@@Vjson@@@std@@PAX@std@@@1@@Z 00475e40 f i u_json.obj
 0001:00074ec0       ??$?6U?$char_traits@D@std@@@std@@YAAAV?$basic_ostream@DU?$char_traits@D@std@@@0@AAV10@D@Z 00475ec0 f i u_json.obj
 0001:00075150       ??$?9DU?$char_traits@D@std@@V?$allocator@D@1@@std@@YA_NABV?$basic_string@DU?$char_traits@D@std@@V?$allocator@D@2@@0@QBD@Z 00476150 f i u_json.obj
 0001:000751e0       ??$_Assign_range@PAVjson@@@?$vector@Vjson@@V?$allocator@Vjson@@@std@@@std@@AAEXPAVjson@@0Uforward_iterator_tag@1@@Z 004761e0 f i u_json.obj
 0001:000753f0       ??$_Buynode@AAU?$pair@$$CBV?$basic_string@DU?$char_traits@D@std@@V?$allocator@D@2@@std@@Vjson@@@std@@@?$_Tree_comp_alloc@V?$_Tmap_traits@V?$basic_string@DU?$char_traits@D@std@@V?$allocator@D@2@@std@@Vjson@@U?$less@V?$basic_string@DU?$char_traits@D@std@@V?$allocator@D@2@@std@@@2@V?$allocator@U?$pair@$$CBV?$basic_string@DU?$char_traits@D@std@@V?$allocator@D@2@@std@@Vjson@@@std@@@2@$0A@@std@@@std@@QAEPAU?$_Tree_node@U?$pair@$$CBV?$basic_string@DU?$char_traits@D@std@@V?$allocator@D@2@@std@@Vjson@@@std@@PAX@1@AAU?$pair@$$CBV?$basic_string@DU?$char_traits@D@std@@V?$allocator@D@2@@std@@Vjson@@@1@@Z 004763f0 f i u_json.obj
 0001:00075480       ??$_Buynode@ABUpiecewise_construct_t@std@@V?$tuple@ABV?$basic_string@DU?$char_traits@D@std@@V?$allocator@D@2@@std@@@2@V?$tuple@$$V@2@@?$_Tree_comp_alloc@V?$_Tmap_traits@V?$basic_string@DU?$char_traits@D@std@@V?$allocator@D@2@@std@@Vjson@@U?$less@V?$basic_string@DU?$char_traits@D@std@@V?$allocator@D@2@@std@@@2@V?$allocator@U?$pair@$$CBV?$basic_string@DU?$char_traits@D@std@@V?$allocator@D@2@@std@@Vjson@@@std@@@2@$0A@@std@@@std@@QAEPAU?$_Tree_node@U?$pair@$$CBV?$basic_string@DU?$char_traits@D@std@@V?$allocator@D@2@@std@@Vjson@@@std@@PAX@1@ABUpiecewise_construct_t@1@$$QAV?$tuple@ABV?$basic_string@DU?$char_traits@D@std@@V?$allocator@D@2@@std@@@1@$$QAV?$tuple@$$V@1@@Z 00476480 f i u_json.obj
 0001:00075550       ??$_Copy@U_Copy_tag@?$_Tree@V?$_Tmap_traits@V?$basic_string@DU?$char_traits@D@std@@V?$allocator@D@2@@std@@Vjson@@U?$less@V?$basic_string@DU?$char_traits@D@std@@V?$allocator@D@2@@std@@@2@V?$allocator@U?$pair@$$CBV?$basic_string@DU?$char_traits@D@std@@V?$allocator@D@2@@std@@Vjson@@@std@@@2@$0A@@std@@@std@@@?$_Tree@V?$_Tmap_traits@V?$basic_string@DU?$char_traits@D@std@@V?$allocator@D@2@@std@@Vjson@@U?$less@V?$basic_string@DU?$char_traits@D@std@@V?$allocator@D@2@@std@@@2@V?$allocator@U?$pair@$$CBV?$basic_string@DU?$char_traits@D@std@@V?$allocator@D@2@@std@@Vjson@@@std@@@2@$0A@@std@@@std@@IAEXABV01@U_Copy_tag@01@@Z 00476550 f i u_json.obj
 0001:000755d0       ??$_Copy_nodes@U_Copy_tag@?$_Tree@V?$_Tmap_traits@V?$basic_string@DU?$char_traits@D@std@@V?$allocator@D@2@@std@@Vjson@@U?$less@V?$basic_string@DU?$char_traits@D@std@@V?$allocator@D@2@@std@@@2@V?$allocator@U?$pair@$$CBV?$basic_string@DU?$char_traits@D@std@@V?$allocator@D@2@@std@@Vjson@@@std@@@2@$0A@@std@@@std@@@?$_Tree@V?$_Tmap_traits@V?$basic_string@DU?$char_traits@D@std@@V?$allocator@D@2@@std@@Vjson@@U?$less@V?$basic_string@DU?$char_traits@D@std@@V?$allocator@D@2@@std@@@2@V?$allocator@U?$pair@$$CBV?$basic_string@DU?$char_traits@D@std@@V?$allocator@D@2@@std@@Vjson@@@std@@@2@$0A@@std@@@std@@IAEPAU?$_Tree_node@U?$pair@$$CBV?$basic_string@DU?$char_traits@D@std@@V?$allocator@D@2@@std@@Vjson@@@std@@PAX@1@PAU21@0U_Copy_tag@01@@Z 004765d0 f i u_json.obj
 0001:00075680       ??$_Emplace_back_with_unused_capacity@ABVjson@@@?$vector@Vjson@@V?$allocator@Vjson@@@std@@@std@@AAEXABVjson@@@Z 00476680 f i u_json.obj
 0001:00075700       ??$_Emplace_reallocate@ABVjson@@@?$vector@Vjson@@V?$allocator@Vjson@@@std@@@std@@QAEPAVjson@@QAV2@ABV2@@Z 00476700 f i u_json.obj
 0001:00075960       ??$_Emplace_reallocate@ABVpointf3log@@@?$vector@Vpointf3log@@V?$allocator@Vpointf3log@@@std@@@std@@QAEPAVpointf3log@@QAV2@ABV2@@Z 00476960 f i u_json.obj
 0001:00075af0       ??$_Insert_at@AAU?$pair@$$CBV?$basic_string@DU?$char_traits@D@std@@V?$allocator@D@2@@std@@Vjson@@@std@@PAU?$_Tree_node@U?$pair@$$CBV?$basic_string@DU?$char_traits@D@std@@V?$allocator@D@2@@std@@Vjson@@@std@@PAX@2@@?$_Tree@V?$_Tmap_traits@V?$basic_string@DU?$char_traits@D@std@@V?$allocator@D@2@@std@@Vjson@@U?$less@V?$basic_string@DU?$char_traits@D@std@@V?$allocator@D@2@@std@@@2@V?$allocator@U?$pair@$$CBV?$basic_string@DU?$char_traits@D@std@@V?$allocator@D@2@@std@@Vjson@@@std@@@2@$0A@@std@@@std@@IAE?AV?$_Tree_iterator@V?$_Tree_val@U?$_Tree_simple_types@U?$pair@$$CBV?$basic_string@DU?$char_traits@D@std@@V?$allocator@D@2@@std@@Vjson@@@std@@@std@@@std@@@1@_NPAU?$_Tree_node@U?$pair@$$CBV?$basic_string@DU?$char_traits@D@std@@V?$allocator@D@2@@std@@Vjson@@@std@@PAX@1@AAU?$pair@$$CBV?$basic_string@DU?$char_traits@D@std@@V?$allocator@D@2@@std@@Vjson@@@1@1@Z 00476af0 f i u_json.obj
 0001:00075c50       ??$_Insert_hint@AAU?$pair@$$CBV?$basic_string@DU?$char_traits@D@std@@V?$allocator@D@2@@std@@Vjson@@@std@@PAU?$_Tree_node@U?$pair@$$CBV?$basic_string@DU?$char_traits@D@std@@V?$allocator@D@2@@std@@Vjson@@@std@@PAX@2@@?$_Tree@V?$_Tmap_traits@V?$basic_string@DU?$char_traits@D@std@@V?$allocator@D@2@@std@@Vjson@@U?$less@V?$basic_string@DU?$char_traits@D@std@@V?$allocator@D@2@@std@@@2@V?$allocator@U?$pair@$$CBV?$basic_string@DU?$char_traits@D@std@@V?$allocator@D@2@@std@@Vjson@@@std@@@2@$0A@@std@@@std@@IAE?AV?$_Tree_iterator@V?$_Tree_val@U?$_Tree_simple_types@U?$pair@$$CBV?$basic_string@DU?$char_traits@D@std@@V?$allocator@D@2@@std@@Vjson@@@std@@@std@@@std@@@1@V?$_Tree_const_iterator@V?$_Tree_val@U?$_Tree_simple_types@U?$pair@$$CBV?$basic_string@DU?$char_traits@D@std@@V?$allocator@D@2@@std@@Vjson@@@std@@@std@@@std@@@1@AAU?$pair@$$CBV?$basic_string@DU?$char_traits@D@std@@V?$allocator@D@2@@std@@Vjson@@@1@PAU?$_Tree_node@U?$pair@$$CBV?$basic_string@DU?$char_traits@D@std@@V?$allocator@D@2@@std@@Vjson@@@std@@PAX@1@@Z 00476c50 f i u_json.obj
 0001:00075e90       ??$_Insert_nohint@AAU?$pair@$$CBV?$basic_string@DU?$char_traits@D@std@@V?$allocator@D@2@@std@@Vjson@@@std@@PAU?$_Tree_node@U?$pair@$$CBV?$basic_string@DU?$char_traits@D@std@@V?$allocator@D@2@@std@@Vjson@@@std@@PAX@2@@?$_Tree@V?$_Tmap_traits@V?$basic_string@DU?$char_traits@D@std@@V?$allocator@D@2@@std@@Vjson@@U?$less@V?$basic_string@DU?$char_traits@D@std@@V?$allocator@D@2@@std@@@2@V?$allocator@U?$pair@$$CBV?$basic_string@DU?$char_traits@D@std@@V?$allocator@D@2@@std@@Vjson@@@std@@@2@$0A@@std@@@std@@IAE?AU?$pair@V?$_Tree_iterator@V?$_Tree_val@U?$_Tree_simple_types@U?$pair@$$CBV?$basic_string@DU?$char_traits@D@std@@V?$allocator@D@2@@std@@Vjson@@@std@@@std@@@std@@@std@@_N@1@_NAAU?$pair@$$CBV?$basic_string@DU?$char_traits@D@std@@V?$allocator@D@2@@std@@Vjson@@@1@PAU?$_Tree_node@U?$pair@$$CBV?$basic_string@DU?$char_traits@D@std@@V?$allocator@D@2@@std@@Vjson@@@std@@PAX@1@@Z 00476e90 f i u_json.obj
 0001:00076020       ??$_Ucopy@PAVjson@@@?$vector@Vjson@@V?$allocator@Vjson@@@std@@@std@@AAEPAVjson@@PAV2@00@Z 00477020 f i u_json.obj
 0001:00076090       ??$destroy@U?$pair@$$CBV?$basic_string@DU?$char_traits@D@std@@V?$allocator@D@2@@std@@Vjson@@@std@@@?$_Default_allocator_traits@V?$allocator@U?$_Tree_node@U?$pair@$$CBV?$basic_string@DU?$char_traits@D@std@@V?$allocator@D@2@@std@@Vjson@@@std@@PAX@std@@@std@@@std@@SAXAAV?$allocator@U?$_Tree_node@U?$pair@$$CBV?$basic_string@DU?$char_traits@D@std@@V?$allocator@D@2@@std@@Vjson@@@std@@PAX@std@@@1@QAU?$pair@$$CBV?$basic_string@DU?$char_traits@D@std@@V?$allocator@D@2@@std@@Vjson@@@1@@Z 00477090 f i u_json.obj
 0001:000760f0       ??$get_object_array_object@Vpointf3log@@Vpointf3j@@@json@@QAE_NV?$basic_string@DU?$char_traits@D@std@@V?$allocator@D@2@@std@@0AAV?$vector@Vpointf3log@@V?$allocator@Vpointf3log@@@std@@@2@@Z 004770f0 f i u_json.obj
 0001:00076270       ??$get_object_object@Upointf3@@Vpointf3j@@@json@@QAE_NV?$basic_string@DU?$char_traits@D@std@@V?$allocator@D@2@@std@@0AAUpointf3@@@Z 00477270 f i u_json.obj
 0001:00076370       ??$insert_array_object@Vpointf3log@@Vpointf3j@@@json@@QAEXV?$basic_string@DU?$char_traits@D@std@@V?$allocator@D@2@@std@@0AAV?$vector@Vpointf3log@@V?$allocator@Vpointf3log@@@std@@@2@@Z 00477370 f i u_json.obj
 0001:000765c0       ??$insert_object_object@Upointf3@@Vpointf3j@@@json@@QAEXV?$basic_string@DU?$char_traits@D@std@@V?$allocator@D@2@@std@@0Vpointf3j@@@Z 004775c0 f i u_json.obj
 0001:00076790       ??0?$vector@Vjson@@V?$allocator@Vjson@@@std@@@std@@QAE@ABV01@@Z 00477790 f i u_json.obj
 0001:00076870       ??0json@@QAE@$$QAV0@@Z     00477870 f i u_json.obj
 0001:00076960       ??0json@@QAE@ABV0@@Z       00477960 f i u_json.obj
 0001:000769e0       ??0json@@QAE@PBD@Z         004779e0 f   u_json.obj
 0001:00076a80       ??0pointf3j@@QAE@AAVjson@@@Z 00477a80 f   u_json.obj
 0001:00076b70       ??0rectf3j@@QAE@AAVjson@@@Z 00477b70 f   u_json.obj
 0001:00077160       ??1?$_Tree@V?$_Tmap_traits@V?$basic_string@DU?$char_traits@D@std@@V?$allocator@D@2@@std@@Vjson@@U?$less@V?$basic_string@DU?$char_traits@D@std@@V?$allocator@D@2@@std@@@2@V?$allocator@U?$pair@$$CBV?$basic_string@DU?$char_traits@D@std@@V?$allocator@D@2@@std@@Vjson@@@std@@@2@$0A@@std@@@std@@QAE@XZ 00478160 f i u_json.obj
 0001:000771b0       ??1?$_Tree_comp_alloc@V?$_Tmap_traits@V?$basic_string@DU?$char_traits@D@std@@V?$allocator@D@2@@std@@Vjson@@U?$less@V?$basic_string@DU?$char_traits@D@std@@V?$allocator@D@2@@std@@@2@V?$allocator@U?$pair@$$CBV?$basic_string@DU?$char_traits@D@std@@V?$allocator@D@2@@std@@Vjson@@@std@@@2@$0A@@std@@@std@@QAE@XZ 004781b0 f i u_json.obj
 0001:000771c0       ??1?$_Uninitialized_backout_al@PAVjson@@V?$allocator@Vjson@@@std@@@std@@QAE@XZ 004781c0 f i u_json.obj
 0001:000771f0       ??1?$map@V?$basic_string@DU?$char_traits@D@std@@V?$allocator@D@2@@std@@Vjson@@U?$less@V?$basic_string@DU?$char_traits@D@std@@V?$allocator@D@2@@std@@@2@V?$allocator@U?$pair@$$CBV?$basic_string@DU?$char_traits@D@std@@V?$allocator@D@2@@std@@Vjson@@@std@@@2@@std@@QAE@XZ 004781f0 f i u_json.obj
 0001:00077240       ??1?$vector@Vjson@@V?$allocator@Vjson@@@std@@@std@@QAE@XZ 00478240 f i u_json.obj
 0001:00077250       ??1json@@QAE@XZ            00478250 f i u_json.obj
 0001:00077300       ??1rectf3@@QAE@XZ          00478300 f i u_json.obj
 0001:00077440       ??1rectf3j@@QAE@XZ         00478440 f i u_json.obj
 0001:00077450       ??4json@@QAEAAV0@$$QAV0@@Z 00478450 f i u_json.obj
 0001:00077560       ??4json@@QAEAAV0@ABV0@@Z   00478560 f i u_json.obj
 0001:00077620       ??A?$map@V?$basic_string@DU?$char_traits@D@std@@V?$allocator@D@2@@std@@Vjson@@U?$less@V?$basic_string@DU?$char_traits@D@std@@V?$allocator@D@2@@std@@@2@V?$allocator@U?$pair@$$CBV?$basic_string@DU?$char_traits@D@std@@V?$allocator@D@2@@std@@Vjson@@@std@@@2@@std@@QAEAAVjson@@ABV?$basic_string@DU?$char_traits@D@std@@V?$allocator@D@2@@1@@Z 00478620 f i u_json.obj
 0001:000776b0       ??E?$_Tree_const_iterator@V?$_Tree_val@U?$_Tree_simple_types@U?$pair@$$CBV?$basic_string@DU?$char_traits@D@std@@V?$allocator@D@2@@std@@P6APAXAAVscript@@@Z@std@@@std@@@std@@@std@@QAEAAV01@XZ 004786b0 f i u_uiclass.obj
 0001:000776b0       ??E?$_Tree_const_iterator@V?$_Tree_val@U?$_Tree_simple_types@U?$pair@$$CBIH@std@@@std@@@std@@@std@@QAEAAV01@XZ 004786b0 f i engq:m_bitmap32.obj
 0001:000776b0       ??E?$_Tree_const_iterator@V?$_Tree_val@U?$_Tree_simple_types@V?$basic_string@DU?$char_traits@D@std@@V?$allocator@D@2@@std@@@std@@@std@@@std@@QAEAAV01@XZ 004786b0 f i u_searcher_mandle_thread.obj
 0001:000776b0       ??E?$_Tree_const_iterator@V?$_Tree_val@U?$_Tree_simple_types@U?$pair@$$CBV?$basic_string@DU?$char_traits@D@std@@V?$allocator@D@2@@std@@Vjson@@@std@@@std@@@std@@@std@@QAEAAV01@XZ 004786b0 f i u_json.obj
 0001:000776b0       ??E?$_Tree_const_iterator@V?$_Tree_val@U?$_Tree_simple_types@U?$pair@$$CBV?$basic_string@DU?$char_traits@D@std@@V?$allocator@D@2@@std@@P6APAXXZ@std@@@std@@@std@@@std@@QAEAAV01@XZ 004786b0 f i u_s_arena2.obj
 0001:00077710       ??F?$_Tree_const_iterator@V?$_Tree_val@U?$_Tree_simple_types@U?$pair@$$CBIH@std@@@std@@@std@@@std@@QAEAAV01@XZ 00478710 f i engq:m_bitmap32.obj
 0001:00077710       ??F?$_Tree_const_iterator@V?$_Tree_val@U?$_Tree_simple_types@U?$pair@$$CBV?$basic_string@DU?$char_traits@D@std@@V?$allocator@D@2@@std@@P6APAXXZ@std@@@std@@@std@@@std@@QAEAAV01@XZ 00478710 f i u_s_arena2.obj
 0001:00077710       ??F?$_Tree_const_iterator@V?$_Tree_val@U?$_Tree_simple_types@U?$pair@$$CBV?$basic_string@DU?$char_traits@D@std@@V?$allocator@D@2@@std@@P6APAXAAVscript@@@Z@std@@@std@@@std@@@std@@QAEAAV01@XZ 00478710 f i u_uiclass.obj
 0001:00077710       ??F?$_Tree_const_iterator@V?$_Tree_val@U?$_Tree_simple_types@U?$pair@$$CBV?$basic_string@DU?$char_traits@D@std@@V?$allocator@D@2@@std@@Vjson@@@std@@@std@@@std@@@std@@QAEAAV01@XZ 00478710 f i u_json.obj
 0001:000777a0       ??R?$less@V?$basic_string@DU?$char_traits@D@std@@V?$allocator@D@2@@std@@@std@@QBE_NABV?$basic_string@DU?$char_traits@D@std@@V?$allocator@D@2@@1@0@Z 004787a0 f i u_json.obj
 0001:000777e0       ??Y?$basic_string@DU?$char_traits@D@std@@V?$allocator@D@2@@std@@QAEAAV01@ABV01@@Z 004787e0 f i u_json.obj
 0001:00077800       ??Y?$basic_string@DU?$char_traits@D@std@@V?$allocator@D@2@@std@@QAEAAV01@D@Z 00478800 f i u_json.obj
 0001:00077920       ?_Buy@?$vector@Vjson@@V?$allocator@Vjson@@@std@@@std@@AAE_NI@Z 00478920 f i u_json.obj
 0001:00077980       ?_Buyheadnode@?$_Tree_comp_alloc@V?$_Tmap_traits@V?$basic_string@DU?$char_traits@D@std@@V?$allocator@D@2@@std@@Vjson@@U?$less@V?$basic_string@DU?$char_traits@D@std@@V?$allocator@D@2@@std@@@2@V?$allocator@U?$pair@$$CBV?$basic_string@DU?$char_traits@D@std@@V?$allocator@D@2@@std@@Vjson@@@std@@@2@$0A@@std@@@std@@QAEPAU?$_Tree_node@U?$pair@$$CBV?$basic_string@DU?$char_traits@D@std@@V?$allocator@D@2@@std@@Vjson@@@std@@PAX@2@XZ 00478980 f i u_json.obj
 0001:000779a0       ?_Buynode0@?$_Tree_comp_alloc@V?$_Tmap_traits@V?$basic_string@DU?$char_traits@D@std@@V?$allocator@D@2@@std@@Vjson@@U?$less@V?$basic_string@DU?$char_traits@D@std@@V?$allocator@D@2@@std@@@2@V?$allocator@U?$pair@$$CBV?$basic_string@DU?$char_traits@D@std@@V?$allocator@D@2@@std@@Vjson@@@std@@@2@$0A@@std@@@std@@QAEPAU?$_Tree_node@U?$pair@$$CBV?$basic_string@DU?$char_traits@D@std@@V?$allocator@D@2@@std@@Vjson@@@std@@PAX@2@XZ 004789a0 f i u_json.obj
 0001:000779c0       ?_Destroy@?$vector@Vjson@@V?$allocator@Vjson@@@std@@@std@@AAEXPAVjson@@0@Z 004789c0 f i u_json.obj
 0001:000779f0       ?_Destroy_if_node@?$_Tree@V?$_Tmap_traits@V?$basic_string@DU?$char_traits@D@std@@V?$allocator@D@2@@std@@Vjson@@U?$less@V?$basic_string@DU?$char_traits@D@std@@V?$allocator@D@2@@std@@@2@V?$allocator@U?$pair@$$CBV?$basic_string@DU?$char_traits@D@std@@V?$allocator@D@2@@std@@Vjson@@@std@@@2@$0A@@std@@@std@@IAEXPAU?$_Tree_node@U?$pair@$$CBV?$basic_string@DU?$char_traits@D@std@@V?$allocator@D@2@@std@@Vjson@@@std@@PAX@2@@Z 004789f0 f i u_json.obj
 0001:00077a20       ?_Erase@?$_Tree@V?$_Tmap_traits@V?$basic_string@DU?$char_traits@D@std@@V?$allocator@D@2@@std@@Vjson@@U?$less@V?$basic_string@DU?$char_traits@D@std@@V?$allocator@D@2@@std@@@2@V?$allocator@U?$pair@$$CBV?$basic_string@DU?$char_traits@D@std@@V?$allocator@D@2@@std@@Vjson@@@std@@@2@$0A@@std@@@std@@IAEXPAU?$_Tree_node@U?$pair@$$CBV?$basic_string@DU?$char_traits@D@std@@V?$allocator@D@2@@std@@Vjson@@@std@@PAX@2@@Z 00478a20 f i u_json.obj
 0001:00077ab0       ?_Extract@?$_Tree_val@U?$_Tree_simple_types@U?$pair@$$CBV?$basic_string@DU?$char_traits@D@std@@V?$allocator@D@2@@std@@Vjson@@@std@@@std@@@std@@QAEPAU?$_Tree_node@U?$pair@$$CBV?$basic_string@DU?$char_traits@D@std@@V?$allocator@D@2@@std@@Vjson@@@std@@PAX@2@V?$_Tree_const_iterator@V?$_Tree_val@U?$_Tree_simple_types@U?$pair@$$CBV?$basic_string@DU?$char_traits@D@std@@V?$allocator@D@2@@std@@Vjson@@@std@@@std@@@std@@@2@@Z 00478ab0 f i u_json.obj
 0001:00077ab0       ?_Extract@?$_Tree_val@U?$_Tree_simple_types@V?$basic_string@DU?$char_traits@D@std@@V?$allocator@D@2@@std@@@std@@@std@@QAEPAU?$_Tree_node@V?$basic_string@DU?$char_traits@D@std@@V?$allocator@D@2@@std@@PAX@2@V?$_Tree_const_iterator@V?$_Tree_val@U?$_Tree_simple_types@V?$basic_string@DU?$char_traits@D@std@@V?$allocator@D@2@@std@@@std@@@std@@@2@@Z 00478ab0 f i u_searcher_mandle_thread.obj
 0001:00077d20       ?_Freenode0@?$_Tree_comp_alloc@V?$_Tmap_traits@V?$basic_string@DU?$char_traits@D@std@@V?$allocator@D@2@@std@@Vjson@@U?$less@V?$basic_string@DU?$char_traits@D@std@@V?$allocator@D@2@@std@@@2@V?$allocator@U?$pair@$$CBV?$basic_string@DU?$char_traits@D@std@@V?$allocator@D@2@@std@@Vjson@@@std@@@2@$0A@@std@@@std@@QAEXPAU?$_Tree_node@U?$pair@$$CBV?$basic_string@DU?$char_traits@D@std@@V?$allocator@D@2@@std@@Vjson@@@std@@PAX@2@@Z 00478d20 f i u_json.obj
 0001:00077d40       ?_Lrotate@?$_Tree_val@U?$_Tree_simple_types@V?$basic_string@DU?$char_traits@D@std@@V?$allocator@D@2@@std@@@std@@@std@@QAEXPAU?$_Tree_node@V?$basic_string@DU?$char_traits@D@std@@V?$allocator@D@2@@std@@PAX@2@@Z 00478d40 f i u_searcher_mandle_thread.obj
 0001:00077d40       ?_Lrotate@?$_Tree_val@U?$_Tree_simple_types@U?$pair@$$CBV?$basic_string@DU?$char_traits@D@std@@V?$allocator@D@2@@std@@Vjson@@@std@@@std@@@std@@QAEXPAU?$_Tree_node@U?$pair@$$CBV?$basic_string@DU?$char_traits@D@std@@V?$allocator@D@2@@std@@Vjson@@@std@@PAX@2@@Z 00478d40 f i u_json.obj
 0001:00077d40       ?_Lrotate@?$_Tree_val@U?$_Tree_simple_types@U?$pair@$$CBV?$basic_string@DU?$char_traits@D@std@@V?$allocator@D@2@@std@@P6APAXXZ@std@@@std@@@std@@QAEXPAU?$_Tree_node@U?$pair@$$CBV?$basic_string@DU?$char_traits@D@std@@V?$allocator@D@2@@std@@P6APAXXZ@std@@PAX@2@@Z 00478d40 f i u_s_arena2.obj
 0001:00077d40       ?_Lrotate@?$_Tree_val@U?$_Tree_simple_types@U?$pair@$$CBV?$basic_string@DU?$char_traits@D@std@@V?$allocator@D@2@@std@@P6APAXAAVscript@@@Z@std@@@std@@@std@@QAEXPAU?$_Tree_node@U?$pair@$$CBV?$basic_string@DU?$char_traits@D@std@@V?$allocator@D@2@@std@@P6APAXAAVscript@@@Z@std@@PAX@2@@Z 00478d40 f i u_uiclass.obj
 0001:00077d40       ?_Lrotate@?$_Tree_val@U?$_Tree_simple_types@U?$pair@$$CBIH@std@@@std@@@std@@QAEXPAU?$_Tree_node@U?$pair@$$CBIH@std@@PAX@2@@Z 00478d40 f i engq:m_bitmap32.obj
 0001:00077da0       ?_Rrotate@?$_Tree_val@U?$_Tree_simple_types@U?$pair@$$CBV?$basic_string@DU?$char_traits@D@std@@V?$allocator@D@2@@std@@P6APAXAAVscript@@@Z@std@@@std@@@std@@QAEXPAU?$_Tree_node@U?$pair@$$CBV?$basic_string@DU?$char_traits@D@std@@V?$allocator@D@2@@std@@P6APAXAAVscript@@@Z@std@@PAX@2@@Z 00478da0 f i u_uiclass.obj
 0001:00077da0       ?_Rrotate@?$_Tree_val@U?$_Tree_simple_types@V?$basic_string@DU?$char_traits@D@std@@V?$allocator@D@2@@std@@@std@@@std@@QAEXPAU?$_Tree_node@V?$basic_string@DU?$char_traits@D@std@@V?$allocator@D@2@@std@@PAX@2@@Z 00478da0 f i u_searcher_mandle_thread.obj
 0001:00077da0       ?_Rrotate@?$_Tree_val@U?$_Tree_simple_types@U?$pair@$$CBV?$basic_string@DU?$char_traits@D@std@@V?$allocator@D@2@@std@@P6APAXXZ@std@@@std@@@std@@QAEXPAU?$_Tree_node@U?$pair@$$CBV?$basic_string@DU?$char_traits@D@std@@V?$allocator@D@2@@std@@P6APAXXZ@std@@PAX@2@@Z 00478da0 f i u_s_arena2.obj
 0001:00077da0       ?_Rrotate@?$_Tree_val@U?$_Tree_simple_types@U?$pair@$$CBV?$basic_string@DU?$char_traits@D@std@@V?$allocator@D@2@@std@@Vjson@@@std@@@std@@@std@@QAEXPAU?$_Tree_node@U?$pair@$$CBV?$basic_string@DU?$char_traits@D@std@@V?$allocator@D@2@@std@@Vjson@@@std@@PAX@2@@Z 00478da0 f i u_json.obj
 0001:00077da0       ?_Rrotate@?$_Tree_val@U?$_Tree_simple_types@U?$pair@$$CBIH@std@@@std@@@std@@QAEXPAU?$_Tree_node@U?$pair@$$CBIH@std@@PAX@2@@Z 00478da0 f i engq:m_bitmap32.obj
 0001:00077e00       ?_Tidy@?$_Tree@V?$_Tmap_traits@V?$basic_string@DU?$char_traits@D@std@@V?$allocator@D@2@@std@@Vjson@@U?$less@V?$basic_string@DU?$char_traits@D@std@@V?$allocator@D@2@@std@@@2@V?$allocator@U?$pair@$$CBV?$basic_string@DU?$char_traits@D@std@@V?$allocator@D@2@@std@@Vjson@@@std@@@2@$0A@@std@@@std@@IAEXXZ 00478e00 f i u_json.obj
 0001:00077e20       ?_Tidy@?$vector@Vjson@@V?$allocator@Vjson@@@std@@@std@@AAEXXZ 00478e20 f i u_json.obj
 0001:00077ea0       ?_Umove@?$vector@Vjson@@V?$allocator@Vjson@@@std@@@std@@AAEPAVjson@@PAV3@00@Z 00478ea0 f i u_json.obj
 0001:00077f10       ?allocate@?$allocator@Vjson@@@std@@QAEPAVjson@@I@Z 00478f10 f i u_json.obj
 0001:00077f80       ?create_string@json@@SA?AV1@V?$basic_string@DU?$char_traits@D@std@@V?$allocator@D@2@@std@@@Z 00478f80 f i u_json.obj
 0001:00078070       ?deallocate@?$allocator@Vjson@@@std@@QAEXQAVjson@@I@Z 00479070 f i u_json.obj
 0001:000780b0       ?erase@?$_Tree@V?$_Tmap_traits@V?$basic_string@DU?$char_traits@D@std@@V?$allocator@D@2@@std@@Vjson@@U?$less@V?$basic_string@DU?$char_traits@D@std@@V?$allocator@D@2@@std@@@2@V?$allocator@U?$pair@$$CBV?$basic_string@DU?$char_traits@D@std@@V?$allocator@D@2@@std@@Vjson@@@std@@@2@$0A@@std@@@std@@QAE?AV?$_Tree_iterator@V?$_Tree_val@U?$_Tree_simple_types@U?$pair@$$CBV?$basic_string@DU?$char_traits@D@std@@V?$allocator@D@2@@std@@Vjson@@@std@@@std@@@std@@@2@V?$_Tree_const_iterator@V?$_Tree_val@U?$_Tree_simple_types@U?$pair@$$CBV?$basic_string@DU?$char_traits@D@std@@V?$allocator@D@2@@std@@Vjson@@@std@@@std@@@std@@@2@0@Z 004790b0 f i u_json.obj
 0001:00078180       ?find_object@json@@QAEAAV1@V?$basic_string@DU?$char_traits@D@std@@V?$allocator@D@2@@std@@@Z 00479180 f   u_json.obj
 0001:00078220       ?find_object_object@json@@QAEAAV1@V?$basic_string@DU?$char_traits@D@std@@V?$allocator@D@2@@std@@0@Z 00479220 f   u_json.obj
 0001:00078310       ?get_object_array_string@json@@QAE_NV?$basic_string@DU?$char_traits@D@std@@V?$allocator@D@2@@std@@AAV?$vector@V?$basic_string@DU?$char_traits@D@std@@V?$allocator@D@2@@std@@V?$allocator@V?$basic_string@DU?$char_traits@D@std@@V?$allocator@D@2@@std@@@2@@3@@Z 00479310 f   u_json.obj
 0001:00078470       ?get_object_float@json@@QAE_NV?$basic_string@DU?$char_traits@D@std@@V?$allocator@D@2@@std@@AAM@Z 00479470 f   u_json.obj
 0001:00078510       ?get_object_int@json@@QAE_NV?$basic_string@DU?$char_traits@D@std@@V?$allocator@D@2@@std@@AAH@Z 00479510 f   u_json.obj
 0001:000785d0       ?get_rest@json@@ABE?AV?$basic_string@DU?$char_traits@D@std@@V?$allocator@D@2@@std@@XZ 004795d0 f   u_json.obj
 0001:00078630       ?get_token@json@@ABE?AV?$basic_string@DU?$char_traits@D@std@@V?$allocator@D@2@@std@@XZ 00479630 f   u_json.obj
 0001:000786a0       ?insert_array_float@json@@QAEXV?$basic_string@DU?$char_traits@D@std@@V?$allocator@D@2@@std@@AAV?$vector@MV?$allocator@M@std@@@3@@Z 004796a0 f   u_json.obj
 0001:00078860       ?insert_array_int@json@@QAEXV?$basic_string@DU?$char_traits@D@std@@V?$allocator@D@2@@std@@AAV?$vector@HV?$allocator@H@std@@@3@@Z 00479860 f   u_json.obj
 0001:00078a20       ?insert_array_string@json@@QAEXV?$basic_string@DU?$char_traits@D@std@@V?$allocator@D@2@@std@@AAV?$vector@V?$basic_string@DU?$char_traits@D@std@@V?$allocator@D@2@@std@@V?$allocator@V?$basic_string@DU?$char_traits@D@std@@V?$allocator@D@2@@std@@@2@@3@@Z 00479a20 f   u_json.obj
 0001:00078c70       ?insert_object@json@@QAEXV?$basic_string@DU?$char_traits@D@std@@V?$allocator@D@2@@std@@V1@@Z 00479c70 f   u_json.obj
 0001:00078d20       ?json_test@@YAXXZ          00479d20 f   u_json.obj
 0001:00079540       ?load_value@json@@AAEXPBD@Z 0047a540 f   u_json.obj
 0001:00079810       ?log@pointf3log@@QBE?AV?$basic_string@DU?$char_traits@D@std@@V?$allocator@D@2@@std@@XZ 0047a810 f   u_json.obj
 0001:00079910       ?log@rectf3@@QBE?AV?$basic_string@DU?$char_traits@D@std@@V?$allocator@D@2@@std@@XZ 0047a910 f   u_json.obj
 0001:00079d90       ?lower_bound@?$_Tree@V?$_Tmap_traits@V?$basic_string@DU?$char_traits@D@std@@V?$allocator@D@2@@std@@P6APAXAAVscript@@@ZU?$less@V?$basic_string@DU?$char_traits@D@std@@V?$allocator@D@2@@std@@@2@V?$allocator@U?$pair@$$CBV?$basic_string@DU?$char_traits@D@std@@V?$allocator@D@2@@std@@P6APAXAAVscript@@@Z@std@@@2@$0A@@std@@@std@@QAE?AV?$_Tree_iterator@V?$_Tree_val@U?$_Tree_simple_types@U?$pair@$$CBV?$basic_string@DU?$char_traits@D@std@@V?$allocator@D@2@@std@@P6APAXAAVscript@@@Z@std@@@std@@@std@@@2@ABV?$basic_string@DU?$char_traits@D@std@@V?$allocator@D@2@@2@@Z 0047ad90 f i u_uiclass.obj
 0001:00079d90       ?lower_bound@?$_Tree@V?$_Tmap_traits@V?$basic_string@DU?$char_traits@D@std@@V?$allocator@D@2@@std@@P6APAXXZU?$less@V?$basic_string@DU?$char_traits@D@std@@V?$allocator@D@2@@std@@@2@V?$allocator@U?$pair@$$CBV?$basic_string@DU?$char_traits@D@std@@V?$allocator@D@2@@std@@P6APAXXZ@std@@@2@$0A@@std@@@std@@QAE?AV?$_Tree_iterator@V?$_Tree_val@U?$_Tree_simple_types@U?$pair@$$CBV?$basic_string@DU?$char_traits@D@std@@V?$allocator@D@2@@std@@P6APAXXZ@std@@@std@@@std@@@2@ABV?$basic_string@DU?$char_traits@D@std@@V?$allocator@D@2@@2@@Z 0047ad90 f i u_s_arena2.obj
 0001:00079d90       ?lower_bound@?$_Tree@V?$_Tmap_traits@V?$basic_string@DU?$char_traits@D@std@@V?$allocator@D@2@@std@@Vjson@@U?$less@V?$basic_string@DU?$char_traits@D@std@@V?$allocator@D@2@@std@@@2@V?$allocator@U?$pair@$$CBV?$basic_string@DU?$char_traits@D@std@@V?$allocator@D@2@@std@@Vjson@@@std@@@2@$0A@@std@@@std@@QAE?AV?$_Tree_iterator@V?$_Tree_val@U?$_Tree_simple_types@U?$pair@$$CBV?$basic_string@DU?$char_traits@D@std@@V?$allocator@D@2@@std@@Vjson@@@std@@@std@@@std@@@2@ABV?$basic_string@DU?$char_traits@D@std@@V?$allocator@D@2@@2@@Z 0047ad90 f i u_json.obj
 0001:00079df0       ?parse_array@json@@AAEXXZ  0047adf0 f   u_json.obj
 0001:00079ff0       ?parse_number@json@@AAEXXZ 0047aff0 f   u_json.obj
 0001:0007a080       ?parse_object@json@@AAEXXZ 0047b080 f   u_json.obj
 0001:0007a420       ?parse_string@json@@AAEXXZ 0047b420 f   u_json.obj
 0001:0007a760       ?save@json@@QBE?AV?$basic_string@DU?$char_traits@D@std@@V?$allocator@D@2@@std@@_N@Z 0047b760 f   u_json.obj
 0001:0007abf0       ?save@json@@QBEXPBD@Z      0047bbf0 f   u_json.obj
 0001:0007ac80       ?save@pointf3j@@QAE?AVjson@@XZ 0047bc80 f   u_json.obj
 0001:0007af90       ?save@rectf3j@@QAE?AVjson@@XZ 0047bf90 f   u_json.obj
 0001:0007b2e0       ?size@json@@QAEHXZ         0047c2e0 f   u_json.obj
 0001:0007b340       ?skip_whitespace@json@@ABEXXZ 0047c340 f   u_json.obj
 0001:0007b380       ?str_to_backslash_str@json@@ABE?AV?$basic_string@DU?$char_traits@D@std@@V?$allocator@D@2@@std@@V23@@Z 0047c380 f   u_json.obj
 0001:0007b540       ?list_insert_after_this@@YAXPAUheader@@PAUnode@@1@Z 0047c540 f   u_list.obj
 0001:0007b590       ?list_remove_this@@YAXPAUheader@@PAX@Z 0047c590 f   u_list.obj
 0001:0007b5d0       ?initdac0@mandlb@@YAXPAUC32@@H@Z 0047c5d0 f   u_mandl.obj
 0001:0007b650       ?initdac1@mandlb@@YAXPAUC32@@H@Z 0047c650 f   u_mandl.obj
 0001:0007b6a0       ?initdac2@mandlb@@YAXPAUC32@@H@Z 0047c6a0 f   u_mandl.obj
 0001:0007b7c0       ?initdac3@mandlb@@YAXPAUC32@@H@Z 0047c7c0 f   u_mandl.obj
 0001:0007b8e0       ?initdac4@mandlb@@YAXPAUC32@@H@Z 0047c8e0 f   u_mandl.obj
 0001:0007ba00       ?initdac5@mandlb@@YAXPAUC32@@H@Z 0047ca00 f   u_mandl.obj
 0001:0007bb90       ??0mandl@mandlb@@QAE@XZ    0047cb90 f   u_mandl.obj
 0001:0007bc30       ??1mandl@mandlb@@QAE@XZ    0047cc30 f   u_mandl.obj
 0001:0007bc80       ?ffastmand@mandl@mandlb@@AAEHHH@Z 0047cc80 f   u_mandl.obj
 0001:0007bd10       ?getpic@mandl@mandlb@@QAEPAUbitmap32@@HHHH@Z 0047cd10 f   u_mandl.obj
 0001:0007bdc0       ?getpicfromworkpic@mandl@mandlb@@QAEPAUbitmap32@@XZ 0047cdc0 f   u_mandl.obj
 0001:0007be20       ?getworkpicr@mandl@mandlb@@AAEXHHHHHH@Z 0047ce20 f   u_mandl.obj
 0001:0007c350       ?initdac@mandlb@@YAPAUC32@@HH@Z 0047d350 f   u_mandl.obj
 0001:0007c3d0       ?mandl_task@@YAXHPBD@Z     0047d3d0 f   u_mandl.obj
 0001:0007c690       ?rotatedac@mandl@mandlb@@QAEXH@Z 0047d690 f   u_mandl.obj
 0001:0007c780       ?setdepth@mandl@mandlb@@QAEHH@Z 0047d780 f   u_mandl.obj
 0001:0007c7d0       ?setpalette@mandl@mandlb@@QAEXH@Z 0047d7d0 f   u_mandl.obj
 0001:0007c800       ?setpicisize@mandl@mandlb@@QAEXH@Z 0047d800 f   u_mandl.obj
 0001:0007c840       ?setzoom@mandl@mandlb@@QAEXH@Z 0047d840 f   u_mandl.obj
 0001:0007c880       ??$buildpatch@Vcylinderxz_bot_surf@@@@YAXPAVmodelb@@HHMMVcylinderxz_bot_surf@@PBD2@Z 0047d880 f i u_modelutil.obj
 0001:0007cb70       ??$buildpatch@Vcylinderxz_mid_surf@@@@YAXPAVmodelb@@HHMMVcylinderxz_mid_surf@@PBD2@Z 0047db70 f i u_modelutil.obj
 0001:0007ce60       ??$buildpatch@Vcylinderxz_top_surf@@@@YAXPAVmodelb@@HHMMVcylinderxz_top_surf@@PBD2@Z 0047de60 f i u_modelutil.obj
 0001:0007d140       ??$buildpatch@Vplanexy_surf@@@@YAXPAVmodelb@@HHMMVplanexy_surf@@PBD2@Z 0047e140 f i u_modelutil.obj
 0001:0007d3d0       ??$buildpatch@Vtorusxzf_surf@@@@YAXPAVmodelb@@HHMMVtorusxzf_surf@@PBD2@Z 0047e3d0 f i u_modelutil.obj
 0001:0007d740       ??$buildpatchc@Vspotlightxy_surf@@@@YAXPAVmodelb@@HHMMVspotlightxy_surf@@PBD2@Z 0047e740 f i u_modelutil.obj
 0001:0007da40       ??0cubemap@@QAE@V?$basic_string@DU?$char_traits@D@std@@V?$allocator@D@2@@std@@@Z 0047ea40 f   u_modelutil.obj
 0001:0007dbf0       ??Rplanexy_surf0@@QAEXMMPAUpointf3@@0@Z 0047ebf0 f   u_modelutil.obj
 0001:0007dc40       ??Rplanexz_surf@@QAEXMMPAUpointf3@@0@Z 0047ec40 f   u_modelutil.obj
 0001:0007dc90       ?adjustnorm@@YA?AUpointf3@@AAU1@0@Z 0047ec90 f   u_modelutil.obj
 0001:0007dd00       ?buildcone_xy@@YAPAVtree2@@MMMPBDUpointf3@@@Z 0047ed00 f   u_modelutil.obj
 0001:0007deb0       ?buildcylinder_xz@@YAPAVtree2@@ABUpointf3@@PBD1@Z 0047eeb0 f   u_modelutil.obj
 0001:0007e140       ?buildcylinderc_xz@@YAPAVtree2@@ABUpointf3@@PBD1U2@22@Z 0047f140 f   u_modelutil.obj
 0001:0007e400       ?buildplane_xy@@YAPAVtree2@@ABUpointf2@@PBD11@Z 0047f400 f   u_modelutil.obj
 0001:0007e4e0       ?buildplane_xy_uv@@YAPAVtree2@@ABUpointf2@@0PBD11@Z 0047f4e0 f   u_modelutil.obj
 0001:0007e5f0       ?buildprism2t@@YAPAVtree2@@ABUpointf3@@PBD11@Z 0047f5f0 f   u_modelutil.obj
 0001:0007e7b0       ?buildprism6t@@YAPAVtree2@@ABUpointf3@@QAPBDPBD2@Z 0047f7b0 f   u_modelutil.obj
 0001:0007e9a0       ?buildprism@@YAPAVtree2@@ABUpointf3@@PBD11@Z 0047f9a0 f   u_modelutil.obj
 0001:0007eb70       ?buildprismuvs@@YAPAVtree2@@ABUpointf3@@PBD1ABUuv@@2@Z 0047fb70 f   u_modelutil.obj
 0001:0007ef00       ?buildpyramid@@YAPAVtree2@@PBD00@Z 0047ff00 f   u_modelutil.obj
 0001:0007f060       ?buildskybox@@YAPAVtree2@@ABUpointf3@@PBD1@Z 00480060 f   u_modelutil.obj
 0001:0007f220       ?buildsphere@@YAPAVtree2@@MPBD0@Z 00480220 f   u_modelutil.obj
 0001:0007f310       ?buildspotlight_xy@@YAPAVtree2@@MMMPBD@Z 00480310 f   u_modelutil.obj
 0001:0007f470       ?buildtorus_xz@@YAPAVtree2@@MMPBD0HH@Z 00480470 f   u_modelutil.obj
 0001:0007f570       ?findanorm@@YA?AUpointf3@@AAU1@@Z 00480570 f   u_modelutil.obj
 0001:0007f650       ?float2bitmap@cubemap@@SAHMH@Z 00480650 f   u_modelutil.obj
 0001:0007f690       ?hsv2rgb@@YAXHHHPAH00@Z    00480690 f   u_modelutil.obj
 0001:0007f7f0       ?rgb2hsv@@YAXHHHPAH00@Z    004807f0 f   u_modelutil.obj
 0001:0007f8b0       ?supersat@@YAHHHHHPAH00@Z  004808b0 f   u_modelutil.obj
 0001:0007f920       ?textureCube@cubemap@@QBE?AUC32@@ABUpointf3@@@Z 00480920 f   u_modelutil.obj
 0001:0007fab0       ?textureCubeFloat@cubemap@@QBE?AUpointf3@@ABU2@@Z 00480ab0 f   u_modelutil.obj
 0001:0007fc80       ??$_Guess_median_unchecked@PAPAUcorner@@P6A_NPAU1@0@Z@std@@YAXPAPAUcorner@@00P6A_NPAU1@1@Z@Z 00480c80 f i u_packer.obj
 0001:0007fc80       ??$_Guess_median_unchecked@PAPAVtree2@@P6A_NPAV1@0@Z@std@@YAXPAPAVtree2@@00P6A_NPAV1@1@Z@Z 00480c80 f i engq:d2_tree.obj
 0001:0007fe50       ??$_Partition_by_median_guess_unchecked@PAPAUcorner@@P6A_NPAU1@0@Z@std@@YA?AU?$pair@PAPAUcorner@@PAPAU1@@0@PAPAUcorner@@0P6A_NPAU2@1@Z@Z 00480e50 f i u_packer.obj
 0001:0007fe50       ??$_Partition_by_median_guess_unchecked@PAPAVtree2@@P6A_NPAV1@0@Z@std@@YA?AU?$pair@PAPAVtree2@@PAPAV1@@0@PAPAVtree2@@0P6A_NPAV2@1@Z@Z 00480e50 f i engq:d2_tree.obj
 0001:00080010       ??$_Pop_heap_hole_by_index@PAPAUcorner@@PAU1@P6A_NPAU1@0@Z@std@@YAXPAPAUcorner@@HH$$QAPAU1@P6A_NPAU1@2@Z@Z 00481010 f i u_packer.obj
 0001:00080010       ??$_Pop_heap_hole_by_index@PAPAVtree2@@PAV1@P6A_NPAV1@0@Z@std@@YAXPAPAVtree2@@HH$$QAPAV1@P6A_NPAV1@2@Z@Z 00481010 f i engq:d2_tree.obj
 0001:000800c0       ??$_Sort_unchecked@PAPAUcorner@@P6A_NPAU1@0@Z@std@@YAXPAPAUcorner@@0HP6A_NPAU1@1@Z@Z 004810c0 f i u_packer.obj
 0001:000800c0       ??$_Sort_unchecked@PAPAVtree2@@P6A_NPAV1@0@Z@std@@YAXPAPAVtree2@@0HP6A_NPAV1@1@Z@Z 004810c0 f i engq:d2_tree.obj
 0001:00080950       ?freelocfinder@@YAXXZ      00481950 f   u_packer.obj
 0001:00080a00       ?getnewloc@@YAXHHPAH0@Z    00481a00 f   u_packer.obj
 0001:00080c90       ?initlocfinder@@YAXXZ      00481c90 f   u_packer.obj
 0001:00080d20       ?builddodecahedron@@YAPAVtree2@@PBD00@Z 00481d20 f   u_platonic.obj
 0001:00080d50       ?buildhexahedron@@YAPAVtree2@@PBD00@Z 00481d50 f   u_platonic.obj
 0001:00080d80       ?buildicosahedron@@YAPAVtree2@@PBD00@Z 00481d80 f   u_platonic.obj
 0001:00080db0       ?buildmeshN@@YAPAVtree2@@PBD000PBHPBUpointf3@@@Z 00481db0 f   u_platonic.obj
 0001:00081040       ?buildoctahedron@@YAPAVtree2@@PBD00@Z 00482040 f   u_platonic.obj
 0001:00081070       ?buildrhombicuboctahedron@@YAPAVtree2@@PBD00@Z 00482070 f   u_platonic.obj
 0001:000810a0       ?buildtetrahedron@@YAPAVtree2@@PBD00@Z 004820a0 f   u_platonic.obj
 0001:000810d0       ?buildtruncatedhexahedron@@YAPAVtree2@@PBD00@Z 004820d0 f   u_platonic.obj
 0001:00081100       ?facesNtovertfaces@@YAXPBHPBUpointf3@@AAV?$vector@Uface@@V?$allocator@Uface@@@std@@@std@@AAV?$vector@Upointf3@@V?$allocator@Upointf3@@@std@@@3@AAV?$vector@Uuv@@V?$allocator@Uuv@@@std@@@3@@Z 00482100 f   u_platonic.obj
 0001:00081450       ??$dorungekutta@P6AXPAM0M@Z@@YAXPAMPAHHMMP6AX00M@Z@Z 00482450 f i u_plotter2.obj
 0001:00081a80       ?drawfcircle@u_plotter2@@YAXABUpointf2@@UC32@@H@Z 00482a80 f   u_plotter2.obj
 0001:00081b20       ?drawfcirclef@u_plotter2@@YAXABUpointf2@@UC32@@M@Z 00482b20 f   u_plotter2.obj
 0001:00081bd0       ?drawfline@u_plotter2@@YAXABUpointf2@@0UC32@@@Z 00482bd0 f   u_plotter2.obj
 0001:00081d00       ?drawflinec@u_plotter2@@YAXABUpointf2@@0UC32@@@Z 00482d00 f   u_plotter2.obj
 0001:00081f40       ?drawfpoint@u_plotter2@@YAXABUpointf2@@UC32@@M@Z 00482f40 f   u_plotter2.obj
 0001:00081fe0       ?drawfunction@u_plotter2@@YAXP6AMM@Z@Z 00482fe0 f   u_plotter2.obj
 0001:00082100       ?drawfunction_n@u_plotter2@@YAXP6AMMH@ZHUC32@@@Z 00483100 f   u_plotter2.obj
 0001:00082230       ?drawfunctionrange@u_plotter2@@YAXP6AMM@ZMMUC32@@@Z 00483230 f   u_plotter2.obj
 0001:00082370       ?getmaxvisxy@u_plotter2@@YA?AUpointf2@@XZ 00483370 f   u_plotter2.obj
 0001:000823d0       ?getminvisxy@u_plotter2@@YA?AUpointf2@@XZ 004833d0 f   u_plotter2.obj
 0001:00082440       ?math2screen@u_plotter2@@YA?AUpointi2@@ABUpointf2@@@Z 00483440 f   u_plotter2.obj
 0001:000824c0       ?math2screen@u_plotter2@@YAMM@Z 004834c0 f   u_plotter2.obj
 0001:00082500       ?plotter2draw2d@u_plotter2@@YAXXZ 00483500 f   u_plotter2.obj
 0001:00082730       ?plotter2exit@u_plotter2@@YAXXZ 00483730 f   u_plotter2.obj
 0001:00082800       ?plotter2init@u_plotter2@@YAXXZ 00483800 f   u_plotter2.obj
 0001:00082950       ?plotter2proc@u_plotter2@@YAXXZ 00483950 f   u_plotter2.obj
 0001:00082b30       ??$?RAAVply@@AAV0@@?$less@X@std@@QBE_NAAVply@@0@Z 00483b30 f i u_ply.obj
 0001:00082bd0       ??$_Destroy_range@V?$allocator@Vply@@@std@@@std@@YAXPAVply@@0AAV?$allocator@Vply@@@0@@Z 00483bd0 f i u_ply.obj
 0001:00082c40       ??$_Emplace_reallocate@ABVply@@@?$vector@Vply@@V?$allocator@Vply@@@std@@@std@@QAEPAVply@@QAV2@ABV2@@Z 00483c40 f i u_ply.obj
 0001:00082d70       ??$_Insert_range@PAVply@@@?$vector@Vply@@V?$allocator@Vply@@@std@@@std@@AAEXV?$_Vector_const_iterator@V?$_Vector_val@U?$_Simple_types@Vply@@@std@@@std@@@1@PAVply@@1Uforward_iterator_tag@1@@Z 00483d70 f i u_ply.obj
 0001:00083020       ??$_Insertion_sort_unchecked@PAVply@@U?$less@X@std@@@std@@YAPAVply@@PAV1@QAV1@U?$less@X@0@@Z 00484020 f i u_ply.obj
 0001:00083390       ??$_Med3_unchecked@PAVply@@U?$less@X@std@@@std@@YAXPAVply@@00U?$less@X@0@@Z 00484390 f i u_ply.obj
 0001:000833f0       ??$_Move_backward_unchecked@PAVply@@PAV1@@std@@YAPAVply@@PAV1@00@Z 004843f0 f i u_ply.obj
 0001:000834b0       ??$_Move_unchecked@PAVply@@PAV1@@std@@YAPAVply@@PAV1@00@Z 004844b0 f i u_ply.obj
 0001:00083570       ??$_Partition_by_median_guess_unchecked@PAVply@@U?$less@X@std@@@std@@YA?AU?$pair@PAVply@@PAV1@@0@PAVply@@0U?$less@X@0@@Z 00484570 f i u_ply.obj
 0001:00083e10       ??$_Pop_heap_hole_by_index@PAVply@@V1@U?$less@X@std@@@std@@YAXPAVply@@HH$$QAV1@U?$less@X@0@@Z 00484e10 f i u_ply.obj
 0001:00083ff0       ??$_Push_heap_by_index@PAVply@@V1@U?$less@X@std@@@std@@YAXPAVply@@HH$$QAV1@U?$less@X@0@@Z 00484ff0 f i u_ply.obj
 0001:00084180       ??$_Sort_unchecked@PAVply@@U?$less@X@std@@@std@@YAXPAVply@@0HU?$less@X@0@@Z 00485180 f i u_ply.obj
 0001:00084400       ??$_Ucopy@PAVply@@@?$vector@Vply@@V?$allocator@Vply@@@std@@@std@@AAEPAVply@@PAV2@00@Z 00485400 f i u_ply.obj
 0001:00084480       ??$_Uninitialized_move@PAVply@@PAV1@V?$allocator@Vply@@@std@@@std@@YAPAVply@@QAV1@0PAV1@AAV?$allocator@Vply@@@0@@Z 00485480 f i u_ply.obj
 0001:00084510       ??$iter_swap@PAVply@@PAV1@@std@@YAXPAVply@@0@Z 00485510 f i u_ply.obj
 0001:000845f0       ??$sort@V?$_Vector_iterator@V?$_Vector_val@U?$_Simple_types@Vply@@@std@@@std@@@std@@@std@@YAXV?$_Vector_iterator@V?$_Vector_val@U?$_Simple_types@Vply@@@std@@@std@@@0@0@Z 004855f0 f i u_ply.obj
 0001:00084610       ??0ply@@QAE@$$QAV0@@Z      00485610 f i u_ply.obj
 0001:00084660       ??0ply@@QAE@PBDH@Z         00485660 f   u_ply.obj
 0001:00084e30       ??0ply@@QAE@XZ             00485e30 f   u_ply.obj
 0001:00084e60       ??1?$_Uninitialized_backout_al@PAVply@@V?$allocator@Vply@@@std@@@std@@QAE@XZ 00485e60 f i u_ply.obj
 0001:00084e80       ??1?$vector@V?$vector@Vzee2@@V?$allocator@Vzee2@@@std@@@std@@V?$allocator@V?$vector@Vzee2@@V?$allocator@Vzee2@@@std@@@std@@@2@@std@@QAE@XZ 00485e80 f i u_ply.obj
 0001:00084f50       ?_Tidy@?$vector@Vply@@V?$allocator@Vply@@@std@@@std@@AAEXXZ 00485f50 f i u_s_ifield.obj
 0001:00084f50       ??1?$vector@Vply@@V?$allocator@Vply@@@std@@@std@@QAE@XZ 00485f50 f i u_ply.obj
 0001:00084fb0       ??1augmatz@@QAE@XZ         00485fb0 f i u_ply.obj
 0001:00085060       ??1ply@@QAE@XZ             00486060 f i u_ply.obj
 0001:000850c0       ??4?$vector@HV?$allocator@H@std@@@std@@QAEAAV01@ABV01@@Z 004860c0 f i u_ply.obj
 0001:000851d0       ??4ply@@QAEAAV0@$$QAV0@@Z  004861d0 f i u_ply.obj
 0001:00085220       ??Dply@@QBE?AV0@ABV0@@Z    00486220 f   u_ply.obj
 0001:00085350       ??Gply@@QBE?AV0@ABV0@@Z    00486350 f   u_ply.obj
 0001:00085420       ??Hply@@QBE?AV0@ABV0@@Z    00486420 f   u_ply.obj
 0001:00085500       ??Kply@@QBE?AV0@ABV0@@Z    00486500 f   u_ply.obj
 0001:00085590       ??Lply@@QBE?AV0@ABV0@@Z    00486590 f   u_ply.obj
 0001:00085640       ?_Change_array@?$vector@Vply@@V?$allocator@Vply@@@std@@@std@@AAEXQAVply@@II@Z 00486640 f i u_ply.obj
 0001:000856b0       ?_Destroy@?$vector@Vply@@V?$allocator@Vply@@@std@@@std@@AAEXPAVply@@0@Z 004866b0 f i u_ply.obj
 0001:000856d0       ?ToUnknown@TiXmlUnknown@@UBEPBV1@XZ 004866d0 f i tinyxmlSTL:tinyxml.obj
 0001:000856d0       ?ToElement@TiXmlElement@@UAEPAV1@XZ 004866d0 f i tinyxmlSTL:tinyxml.obj
 0001:000856d0       ?ToText@TiXmlText@@UAEPAV1@XZ 004866d0 f i tinyxmlSTL:tinyxml.obj
 0001:000856d0       ?_Getal@?$_Vector_alloc@U?$_Vec_base_types@Vply@@V?$allocator@Vply@@@std@@@std@@@std@@QAEAAV?$allocator@Vply@@@2@XZ 004866d0 f i u_ply.obj
 0001:000856d0       ?ToComment@TiXmlComment@@UBEPBV1@XZ 004866d0 f i tinyxmlSTL:tinyxml.obj
 0001:000856d0       ?ToDeclaration@TiXmlDeclaration@@UAEPAV1@XZ 004866d0 f i tinyxmlSTL:tinyxml.obj
 0001:000856d0       ?ToText@TiXmlText@@UBEPBV1@XZ 004866d0 f i tinyxmlSTL:tinyxml.obj
 0001:000856d0       ?_Getal@?$_Vector_alloc@U?$_Vec_base_types@Vzee2@@V?$allocator@Vzee2@@@std@@@std@@@std@@QAEAAV?$allocator@Vzee2@@@2@XZ 004866d0 f i engq:augmatz.obj
 0001:000856d0       ?ToElement@TiXmlElement@@UBEPBV1@XZ 004866d0 f i tinyxmlSTL:tinyxml.obj
 0001:000856d0       ?ToDocument@TiXmlDocument@@UBEPBV1@XZ 004866d0 f i u_s_scratch.obj
 0001:000856d0       ?snapshot@textureb@@UAEPAV1@XZ 004866d0 f i engq:d2_texman.obj
 0001:000856d0       ?ToComment@TiXmlComment@@UAEPAV1@XZ 004866d0 f i tinyxmlSTL:tinyxml.obj
 0001:000856d0       ?_Getal@?$_Vector_alloc@U?$_Vec_base_types@Vperm@smallgroups@@V?$allocator@Vperm@smallgroups@@@std@@@std@@@std@@QAEAAV?$allocator@Vperm@smallgroups@@@2@XZ 004866d0 f i u_smallgroups.obj
 0001:000856d0       ?ToDocument@TiXmlDocument@@UAEPAV1@XZ 004866d0 f i u_s_scratch.obj
 0001:000856d0       ?ToUnknown@TiXmlUnknown@@UAEPAV1@XZ 004866d0 f i tinyxmlSTL:tinyxml.obj
 0001:000856d0       ?_Getal@?$_Vector_alloc@U?$_Vec_base_types@Upiece@jelly@@V?$allocator@Upiece@jelly@@@std@@@std@@@std@@QAEAAV?$allocator@Upiece@jelly@@@2@XZ 004866d0 f i u_s_jelly.obj
 0001:000856d0       ?ToDeclaration@TiXmlDeclaration@@UBEPBV1@XZ 004866d0 f i tinyxmlSTL:tinyxml.obj
 0001:000856e0       ?_Mylast@?$_Vector_alloc@U?$_Vec_base_types@Vply@@V?$allocator@Vply@@@std@@@std@@@std@@QAEAAPAVply@@XZ 004866e0 f i u_ply.obj
 0001:000856e0       ?_Mylast@?$_Vector_alloc@U?$_Vec_base_types@Vperm@smallgroups@@V?$allocator@Vperm@smallgroups@@@std@@@std@@@std@@QAEAAPAVperm@smallgroups@@XZ 004866e0 f i u_smallgroups.obj
 0001:000856e0       ?_Mylast@?$_Vector_alloc@U?$_Vec_base_types@Upiece@jelly@@V?$allocator@Upiece@jelly@@@std@@@std@@@std@@QAEAAPAUpiece@jelly@@XZ 004866e0 f i u_s_jelly.obj
 0001:000856f0       ?_Umove@?$vector@Vply@@V?$allocator@Vply@@@std@@@std@@AAEPAVply@@PAV3@00@Z 004866f0 f i u_ply.obj
 0001:00085710       ?assign@?$vector@HV?$allocator@H@std@@@std@@QAEXIABH@Z 00486710 f i u_ply.obj
 0001:000857f0       ?berl@@YA?AVply@@ABV1@@Z   004867f0 f   u_ply.obj
 0001:00086000       ?cleanup@ply@@AAEXXZ       00487000 f   u_ply.obj
 0001:000860b0       ?compose@ply@@QBE?AV1@ABV1@@Z 004870b0 f   u_ply.obj
 0001:00086330       ?deriv@ply@@QBE?AV1@XZ     00487330 f   u_ply.obj
 0001:00086540       ?divmod@ply@@QBE?AV1@ABV1@AAV1@@Z 00487540 f   u_ply.obj
 0001:00086a00       ?factors@ply@@QBE?AV?$vector@Vply@@V?$allocator@Vply@@@std@@@std@@XZ 00487a00 f   u_ply.obj
 0001:000871e0       ?gcd@ply@@QBE?AV1@ABV1@@Z  004881e0 f   u_ply.obj
 0001:000874e0       ?getrep@ply@@QBEHXZ        004884e0 f   u_ply.obj
 0001:00087510       ?inc@ply@@QAEXXZ           00488510 f   u_ply.obj
 0001:000876b0       ?isprim@ply@@QBE_NH@Z      004886b0 f   u_ply.obj
 0001:000878b0       ?isprime@@YA_NH@Z          004888b0 f   u_ply.obj
 0001:000878f0       ?monomial@ply@@QAEXHH@Z    004888f0 f   u_ply.obj
 0001:00087930       ?pow@ply@@QBE?AV1@H@Z      00488930 f   u_ply.obj
 0001:00087ab0       ?print@ply@@QBE?AV?$basic_string@DU?$char_traits@D@std@@V?$allocator@D@2@@std@@XZ 00488ab0 f   u_ply.obj
 0001:00087d00       ?push_back@?$vector@Vply@@V?$allocator@Vply@@@std@@@std@@QAEXABVply@@@Z 00488d00 f i u_ply.obj
 0001:00087d40       ?setmod@ply@@SAXH@Z        00488d40 f   u_ply.obj
 0001:00087d90       ?setrep@ply@@QAEXH@Z       00488d90 f   u_ply.obj
 0001:00087f00       ??0pointcloudfile@@QAE@PBD@Z 00488f00 f   u_pointcloudfile.obj
 0001:00088000       ??1pointcloudfile@@QAE@XZ  00489000 f   u_pointcloudfile.obj
 0001:000881b0       ?getnextframe@pointcloudfile@@QAEIPAPBUpointf3@@0@Z 004891b0 f   u_pointcloudfile.obj
 0001:000884a0       ?getnexthilit@pointcloudfile@@QAEIPAPBUpointf3@@_N@Z 004894a0 f   u_pointcloudfile.obj
 0001:00088550       ?gettextnumber@pointcloudfile@@AAEIXZ 00489550 f   u_pointcloudfile.obj
 0001:00088660       ?studypoints@pointcloudfile@@QAEXXZ 00489660 f   u_pointcloudfile.obj
 0001:00088920       ??$_Emplace_reallocate@ABUpointf2@@@?$vector@Upointf2@@V?$allocator@Upointf2@@@std@@@std@@QAEPAUpointf2@@QAU2@ABU2@@Z 00489920 f i u_pointcloudkdtree.obj
 0001:00088a00       ??$_Emplace_reallocate@ABV?$vector@Upointf2@@V?$allocator@Upointf2@@@std@@@std@@@?$vector@V?$vector@Upointf2@@V?$allocator@Upointf2@@@std@@@std@@V?$allocator@V?$vector@Upointf2@@V?$allocator@Upointf2@@@std@@@std@@@2@@std@@QAEPAV?$vector@Upointf2@@V?$allocator@Upointf2@@@std@@@1@QAV21@ABV21@@Z 00489a00 f i u_pointcloudkdtree.obj
 0001:00088c00       ??$_Med3_unchecked@PAUpointi2@@P6A_NABU1@0@Z@std@@YAXPAUpointi2@@00P6A_NABU1@1@Z@Z 00489c00 f i u_qr_code2scan.obj
 0001:00088c00       ??$_Med3_unchecked@PAUpointf2@@P6A_NABU1@0@Z@std@@YAXPAUpointf2@@00P6A_NABU1@1@Z@Z 00489c00 f i u_pointcloudkdtree.obj
 0001:00088c80       ??$_Partition_by_median_guess_unchecked@PAUpointf2@@P6A_NABU1@0@Z@std@@YA?AU?$pair@PAUpointf2@@PAU1@@0@PAUpointf2@@0P6A_NABU2@1@Z@Z 00489c80 f i u_pointcloudkdtree.obj
 0001:00088f50       ??$_Pop_heap_hole_by_index@PAUpointf2@@U1@P6A_NABU1@0@Z@std@@YAXPAUpointf2@@HH$$QAU1@P6A_NABU1@2@Z@Z 00489f50 f i u_pointcloudkdtree.obj
 0001:00088f50       ??$_Pop_heap_hole_by_index@PAUpointi2@@U1@P6A_NABU1@0@Z@std@@YAXPAUpointi2@@HH$$QAU1@P6A_NABU1@2@Z@Z 00489f50 f i u_qr_code2scan.obj
 0001:00089020       ??$_Resize@V<lambda_ffadea3d5e4f568aafe9782f351c5d0f>@@@?$vector@Upointf2@@V?$allocator@Upointf2@@@std@@@std@@AAEXIV<lambda_ffadea3d5e4f568aafe9782f351c5d0f>@@@Z 0048a020 f i u_pointcloudkdtree.obj
 0001:00089110       ??$_Sort_unchecked@PAUpointf2@@P6A_NABU1@0@Z@std@@YAXPAUpointf2@@0HP6A_NABU1@1@Z@Z 0048a110 f i u_pointcloudkdtree.obj
 0001:000893c0       ??$_Uninitialized_move@PAV?$vector@Vzee2@@V?$allocator@Vzee2@@@std@@@std@@PAV12@V?$allocator@V?$vector@Vzee2@@V?$allocator@Vzee2@@@std@@@std@@@2@@std@@YAPAV?$vector@Vzee2@@V?$allocator@Vzee2@@@std@@@0@QAV10@0PAV10@AAV?$allocator@V?$vector@Vzee2@@V?$allocator@Vzee2@@@std@@@std@@@0@@Z 0048a3c0 f i engq:augmatz.obj
 0001:000893c0       ??$_Uninitialized_move@PAV?$vector@Upointi2@@V?$allocator@Upointi2@@@std@@@std@@PAV12@V?$allocator@V?$vector@Upointi2@@V?$allocator@Upointi2@@@std@@@std@@@2@@std@@YAPAV?$vector@Upointi2@@V?$allocator@Upointi2@@@std@@@0@QAV10@0PAV10@AAV?$allocator@V?$vector@Upointi2@@V?$allocator@Upointi2@@@std@@@std@@@0@@Z 0048a3c0 f i u_qr_code_layout_v2.obj
 0001:000893c0       ??$_Uninitialized_move@PAV?$vector@Upointf2@@V?$allocator@Upointf2@@@std@@@std@@PAV12@V?$allocator@V?$vector@Upointf2@@V?$allocator@Upointf2@@@std@@@std@@@2@@std@@YAPAV?$vector@Upointf2@@V?$allocator@Upointf2@@@std@@@0@QAV10@0PAV10@AAV?$allocator@V?$vector@Upointf2@@V?$allocator@Upointf2@@@std@@@std@@@0@@Z 0048a3c0 f i u_pointcloudkdtree.obj
 0001:00089440       ??0?$vector@Upointf2@@V?$allocator@Upointf2@@@std@@@std@@QAE@ABV01@@Z 0048a440 f i u_pointcloudkdtree.obj
 0001:000894c0       ??0pc_kdtree2d@@QAE@ABV?$vector@Upointf2@@V?$allocator@Upointf2@@@std@@@std@@I@Z 0048a4c0 f   u_pointcloudkdtree.obj
 0001:00089590       ??0pc_kdtree2d@@QAE@PBUpointf2@@II@Z 0048a590 f   u_pointcloudkdtree.obj
 0001:00089730       ??0pc_kdtree3d@@QAE@ABV?$vector@Upointf3@@V?$allocator@Upointf3@@@std@@@std@@@Z 0048a730 f   u_pointcloudkdtree.obj
 0001:000898c0       ??1?$median@Upointf2@@@@QAE@XZ 0048a8c0 f i u_pointcloudkdtree.obj
 0001:00089960       ??1?$vector@Vpc_kdtree3d@@V?$allocator@Vpc_kdtree3d@@@std@@@std@@QAE@XZ 0048a960 f i u_pointcloudkdtree.obj
 0001:00089a80       ??1pc_kdtree2d@@QAE@XZ     0048aa80 f   u_pointcloudkdtree.obj
 0001:00089bf0       ??1pc_kdtree3d@@QAE@XZ     0048abf0 f   u_pointcloudkdtree.obj
 0001:00089c90       ?_Destroy@?$vector@V?$vector@Upointf2@@V?$allocator@Upointf2@@@std@@@std@@V?$allocator@V?$vector@Upointf2@@V?$allocator@Upointf2@@@std@@@std@@@2@@std@@AAEXPAV?$vector@Upointf2@@V?$allocator@Upointf2@@@std@@@2@0@Z 0048ac90 f i u_pointcloudkdtree.obj
 0001:00089c90       ?_Destroy@?$vector@V?$vector@Upointi2@@V?$allocator@Upointi2@@@std@@@std@@V?$allocator@V?$vector@Upointi2@@V?$allocator@Upointi2@@@std@@@std@@@2@@std@@AAEXPAV?$vector@Upointi2@@V?$allocator@Upointi2@@@std@@@2@0@Z 0048ac90 f i u_qr_code_layout_v2.obj
 0001:00089c90       ?_Destroy@?$vector@V?$vector@Vzee2@@V?$allocator@Vzee2@@@std@@@std@@V?$allocator@V?$vector@Vzee2@@V?$allocator@Vzee2@@@std@@@std@@@2@@std@@AAEXPAV?$vector@Vzee2@@V?$allocator@Vzee2@@@std@@@2@0@Z 0048ac90 f i engq:augmatz.obj
 0001:00089cb0       ?_Tidy@?$vector@Vpc_kdtree3d@@V?$allocator@Vpc_kdtree3d@@@std@@@std@@AAEXXZ 0048acb0 f i u_pointcloudkdtree.obj
 0001:00089de0       ?build@pc_kdtree2d@@AAEXXZ 0048ade0 f   u_pointcloudkdtree.obj
 0001:0008a240       ?build@pc_kdtree3d@@AAEXXZ 0048b240 f   u_pointcloudkdtree.obj
 0001:0008a380       ?getvalue@?$median@Upointf2@@@@QBE?AUpointf2@@I@Z 0048b380 f i u_pointcloudkdtree.obj
 0001:0008a600       ?insidecircle@pc_kdtree2d@@QBE?AV?$vector@Upointf2@@V?$allocator@Upointf2@@@std@@@std@@ABUpointf2@@M@Z 0048b600 f   u_pointcloudkdtree.obj
 0001:0008a680       ?insidecirclebrute@pc_kdtree2d@@QBE?AV?$vector@Upointf2@@V?$allocator@Upointf2@@@std@@@std@@ABUpointf2@@M@Z 0048b680 f   u_pointcloudkdtree.obj
 0001:0008a770       ?insidecirclerec@pc_kdtree2d@@ABEXABUpointf2@@MAAV?$vector@Upointf2@@V?$allocator@Upointf2@@@std@@@std@@@Z 0048b770 f   u_pointcloudkdtree.obj
 0001:0008a850       ?medianofmedian@?$median@Upointf2@@@@ABE?AUpointf2@@XZ 0048b850 f i u_pointcloudkdtree.obj
 0001:0008ac90       ??$_Emplace_reallocate@PAVqgatebase@@@?$vector@PAVqgatebase@@V?$allocator@PAVqgatebase@@@std@@@std@@QAEPAPAVqgatebase@@QAPAV2@$$QAPAV2@@Z 0048bc90 f i u_qcolumn.obj
 0001:0008ac90       ??$_Emplace_reallocate@PAVshape@@@?$vector@PAVshape@@V?$allocator@PAVshape@@@std@@@std@@QAEPAPAVshape@@QAPAV2@$$QAPAV2@@Z 0048bc90 f i u_s_physics2d.obj
 0001:0008ac90       ??$_Emplace_reallocate@PAUwavehandle@@@?$vector@PAUwavehandle@@V?$allocator@PAUwavehandle@@@std@@@std@@QAEPAPAUwavehandle@@QAPAU2@$$QAPAU2@@Z 0048bc90 f i u_s_arena1.obj
 0001:0008ac90       ??$_Emplace_reallocate@ABQAUwavehandle@@@?$vector@PAUwavehandle@@V?$allocator@PAUwavehandle@@@std@@@std@@QAEPAPAUwavehandle@@QAPAU2@ABQAU2@@Z 0048bc90 f i u_s_arena1.obj
 0001:0008ad70       ??$_Resize@V<lambda_575107aacf4963eac930a3b7a4027120>@@@?$vector@PAVshape@@V?$allocator@PAVshape@@@std@@@std@@AAEXIV<lambda_575107aacf4963eac930a3b7a4027120>@@@Z 0048bd70 f i u_s_physics2d.obj
 0001:0008ad70       ??$_Resize@V<lambda_0286e23059275d966b69b5c6151faa0e>@@@?$vector@PAVqgatebase@@V?$allocator@PAVqgatebase@@@std@@@std@@AAEXIV<lambda_0286e23059275d966b69b5c6151faa0e>@@@Z 0048bd70 f i u_qcolumn.obj
 0001:0008ad70       ??$_Resize@V<lambda_4f2fd6a84b983411848f0e0333d0ea32>@@@?$vector@HV?$allocator@H@std@@@std@@AAEXIV<lambda_4f2fd6a84b983411848f0e0333d0ea32>@@@Z 0048bd70 f i u_s_game2_endgame.obj
 0001:0008ae50       ??0qcolumn@@QAE@ABV0@@Z    0048be50 f   u_qcolumn.obj
 0001:0008af40       ??0qcolumn@@QAE@I@Z        0048bf40 f   u_qcolumn.obj
 0001:0008b030       ??1qcolumn@@QAE@XZ         0048c030 f   u_qcolumn.obj
 0001:0008b0c0       ??1qmat@qcomp@@QAE@XZ      0048c0c0 f i u_qcolumn.obj
 0001:0008b0d0       ??4qcolumn@@QAE?AV0@ABV0@@Z 0048c0d0 f   u_qcolumn.obj
 0001:0008b250       ?calc@qcolumn@@QAEXXZ      0048c250 f   u_qcolumn.obj
 0001:0008b850       ?calcid@qcolumn@@QBEIW4qtype@qgatebase@@@Z 0048c850 f   u_qcolumn.obj
 0001:0008b9c0       ?changeqgatecol@qcolumn@@QAEXIABV?$basic_string@DU?$char_traits@D@std@@V?$allocator@D@2@@std@@I@Z 0048c9c0 f   u_qcolumn.obj
 0001:0008baa0       ?changeqgatecolautoid@qcolumn@@QAEXIW4qtype@qgatebase@@@Z 0048caa0 f   u_qcolumn.obj
 0001:0008bb00       ?copy@qgatebase@@UBEPAV1@XZ 0048cb00 f i u_qcolumn.obj
 0001:0008bb30       ?draw@qcolumn@@QBEXII_N@Z  0048cb30 f   u_qcolumn.obj
 0001:0008bce0       ?drawlinkback@qcolumn@@QBEXII@Z 0048cce0 f   u_qcolumn.obj
 0001:0008bd30       ?getid@qcolumn@@QBEII@Z    0048cd30 f   u_qcolumn.obj
 0001:0008bd50       ?getkind@qcolumn@@QBE?AW4qtype@qgatebase@@I@Z 0048cd50 f   u_qcolumn.obj
 0001:0008bd70       ?getcurpart@swapbot@@UBEIXZ 0048cd70 f i u_qgatebase.obj
 0001:0008bd70       ?getnumparts@qgatesplitter@@UBEIXZ 0048cd70 f i u_qgatebase.obj
 0001:0008bd70       ?getcurpart@toffoli4c1@@UBEIXZ 0048cd70 f i u_qgatebase.obj
 0001:0008bd70       ?getnumparts@qgatepm30@@UBEIXZ 0048cd70 f i u_qgatebase.obj
 0001:0008bd70       ?getnumparts@qgategm1over3@@UBEIXZ 0048cd70 f i u_qgatebase.obj
 0001:0008bd70       ?getcurpart@cstbot@@UBEIXZ 0048cd70 f i u_qgatebase.obj
 0001:0008bd70       ?getcurpart@cpm45bot@@UBEIXZ 0048cd70 f i u_qgatebase.obj
 0001:0008bd70       ?getcurpart@ctbot@@UBEIXZ  0048cd70 f i u_qgatebase.obj
 0001:0008bd70       ?getcurpart@czbot@@UBEIXZ  0048cd70 f i u_qgatebase.obj
 0001:0008bd70       ?getnumparts@qgates@@UBEIXZ 0048cd70 f i u_qgatebase.obj
 0001:0008bd70       ?getnumparts@qgatest@@UBEIXZ 0048cd70 f i u_qgatebase.obj
 0001:0008bd70       ?getnumparts@qgatepy@@UBEIXZ 0048cd70 f i u_qgatebase.obj
 0001:0008bd70       ?do_encoding@codecvt_base@std@@MBEHXZ 0048cd70 f i engq:m_file.obj
 0001:0008bd70       ?getcurpart@decbot@@UBEIXZ 0048cd70 f i u_qgatebase.obj
 0001:0008bd70       ?getnumparts@qgatemirror@@UBEIXZ 0048cd70 f i u_qgatebase.obj
 0001:0008bd70       ?getnumparts@qgatem0@@UBEIXZ 0048cd70 f i u_qgatebase.obj
 0001:0008bd70       ?getnumparts@qgatesnotwp@@UBEIXZ 0048cd70 f i u_qgatebase.obj
 0001:0008bd70       ?getcurpart@cnotbot@@UBEIXZ 0048cd70 f i u_qgatebase.obj
 0001:0008bd70       ?getnumparts@qgatett@@UBEIXZ 0048cd70 f i u_qgatebase.obj
 0001:0008bd70       ?getnumparts@qgatet@@UBEIXZ 0048cd70 f i u_qgatebase.obj
 0001:0008bd70       ?getcurpart@toffoli6c1@@UBEIXZ 0048cd70 f i u_qgatebase.obj
 0001:0008bd70       ?getnumparts@qgateg1over3@@UBEIXZ 0048cd70 f i u_qgatebase.obj
 0001:0008bd70       ?getnumparts@qgatem1@@UBEIXZ 0048cd70 f i u_qgatebase.obj
 0001:0008bd70       ?getcurpart@fredkinmid@@UBEIXZ 0048cd70 f i u_qgatebase.obj
 0001:0008bd70       ?getcurpart@toffoli5c1@@UBEIXZ 0048cd70 f i u_qgatebase.obj
 0001:0008bd70       ?getnumparts@qgatesnotto@@UBEIXZ 0048cd70 f i u_qgatebase.obj
 0001:0008bd70       ?getcurpart@cpm30bot@@UBEIXZ 0048cd70 f i u_qgatebase.obj
 0001:0008bd70       ?getcurpart@cttbot@@UBEIXZ 0048cd70 f i u_qgatebase.obj
 0001:0008bd70       ?getnumparts@qgatep30@@UBEIXZ 0048cd70 f i u_qgatebase.obj
 0001:0008bd70       ?getnumparts@qgatehadamard@@UBEIXZ 0048cd70 f i u_qgatebase.obj
 0001:0008bd70       ?getcurpart@chbot@@UBEIXZ  0048cd70 f i u_qgatebase.obj
 0001:0008bd70       ?getcurpart@cybot@@UBEIXZ  0048cd70 f i u_qgatebase.obj
 0001:0008bd70       ?getbasekind@qgatehadamard@@UBE?AW4qtype@qgatebase@@XZ 0048cd70 f i u_qgatebase.obj
 0001:0008bd70       ?getnumparts@qgatebase@@UBEIXZ 0048cd70 f i u_qcolumn.obj
 0001:0008bd70       ?getnumparts@qgatepz@@UBEIXZ 0048cd70 f i u_qgatebase.obj
 0001:0008bd70       ?getnumparts@qgatenot@@UBEIXZ 0048cd70 f i u_qgatebase.obj
 0001:0008bd70       ?getcurpart@cp30bot@@UBEIXZ 0048cd70 f i u_qgatebase.obj
 0001:0008bd70       ?getnumparts@qgatepm45@@UBEIXZ 0048cd70 f i u_qgatebase.obj
 0001:0008bd70       ?getcurpart@toffolimid@@UBEIXZ 0048cd70 f i u_qgatebase.obj
 0001:0008bd70       ?do_max_length@codecvt_base@std@@MBEHXZ 0048cd70 f i engq:m_file.obj
 0001:0008bd70       ?getcurpart@cp45bot@@UBEIXZ 0048cd70 f i u_qgatebase.obj
 0001:0008bd70       ?getnumparts@qgatepx@@UBEIXZ 0048cd70 f i u_qgatebase.obj
 0001:0008bd70       ?getcurpart@csbot@@UBEIXZ  0048cd70 f i u_qgatebase.obj
 0001:0008bd70       ?getnumparts@qgatep45@@UBEIXZ 0048cd70 f i u_qgatebase.obj
 0001:0008bd70       ?getkind@qgatehadamard@@UBE?AW4qtype@qgatebase@@XZ 0048cd70 f i u_qgatebase.obj
 0001:0008bd80       ?getqgatecol@qcolumn@@QBEPBVqgatebase@@I@Z 0048cd80 f   u_qcolumn.obj
 0001:0008bd90       ?hasmultibox@qgatebase@@UBE_NXZ 0048cd90 f i u_qcolumn.obj
 0001:0008bd90       ?wall2wall@@YA_NPAVshape@@0@Z 0048cd90 f i u_s_physics2d.obj
 0001:0008bd90       ?software_rendertargetshadowmapfunc@@YA_NXZ 0048cd90 f i engq:d2_software.obj
 0001:0008bd90       ?focustofrontenabled@tabs@@UAE_NXZ 0048cd90 f i u_uiclass.obj
 0001:0008bda0       ?lessqubits@qcolumn@@QAEXXZ 0048cda0 f   u_qcolumn.obj
 0001:0008bdd0       ?morequbits@qcolumn@@QAEXXZ 0048cdd0 f   u_qcolumn.obj
 0001:0008be70       ??$_Emplace_reallocate@ABVqcolumn@@@?$vector@Vqcolumn@@V?$allocator@Vqcolumn@@@std@@@std@@QAEPAVqcolumn@@QAV2@ABV2@@Z 0048ce70 f i u_qfieldui.obj
 0001:0008c0c0       ??$abs@M@std@@YAMABV?$complex@M@0@@Z 0048d0c0 f i u_qfieldui.obj
 0001:0008c310       ??0?$vector@V?$complex@M@std@@V?$allocator@V?$complex@M@std@@@2@@std@@QAE@ABV01@@Z 0048d310 f i u_qfieldui.obj
 0001:0008c3d0       ??0?$vector@V?$vector@V?$complex@M@std@@V?$allocator@V?$complex@M@std@@@2@@std@@V?$allocator@V?$vector@V?$complex@M@std@@V?$allocator@V?$complex@M@std@@@2@@std@@@2@@std@@QAE@ABV01@@Z 0048d3d0 f i u_qfieldui.obj
 0001:0008c500       ??0qfield@@QAE@ABV?$basic_string@DU?$char_traits@D@std@@V?$allocator@D@2@@std@@H@Z 0048d500 f   u_qfieldui.obj
 0001:0008c910       ??0qfield@@QAE@I@Z         0048d910 f   u_qfieldui.obj
 0001:0008c970       ??1?$_Uninitialized_backout_al@PAV?$vector@V?$complex@M@std@@V?$allocator@V?$complex@M@std@@@2@@std@@V?$allocator@V?$vector@V?$complex@M@std@@V?$allocator@V?$complex@M@std@@@2@@std@@@2@@std@@QAE@XZ 0048d970 f i u_qfieldui.obj
 0001:0008c990       ??1?$_Uninitialized_backout_al@PAVqcolumn@@V?$allocator@Vqcolumn@@@std@@@std@@QAE@XZ 0048d990 f i u_qfieldui.obj
 0001:0008c9c0       ??1?$vector@Vqcolumn@@V?$allocator@Vqcolumn@@@std@@@std@@QAE@XZ 0048d9c0 f i u_qfieldui.obj
 0001:0008ca40       ??1qstate@qcomp@@QAE@XZ    0048da40 f   u_qfieldui.obj
 0001:0008caa0       ??1qfield@@QAE@XZ          0048daa0 f   u_qfieldui.obj
 0001:0008caf0       ?_Destroy@?$vector@Vqcolumn@@V?$allocator@Vqcolumn@@@std@@@std@@AAEXPAVqcolumn@@0@Z 0048daf0 f i u_qfieldui.obj
 0001:0008cb20       ?_Umove@?$vector@Vqcolumn@@V?$allocator@Vqcolumn@@@std@@@std@@AAEPAVqcolumn@@PAV3@00@Z 0048db20 f i u_qfieldui.obj
 0001:0008cb90       ?basic@qfield@@AAEXI@Z     0048db90 f   u_qfieldui.obj
 0001:0008cef0       ?calclinks@qfield@@QAEXXZ  0048def0 f   u_qfieldui.obj
 0001:0008cfa0       ?changeqgate@qfield@@QAEXIIW4qtype@qgatebase@@@Z 0048dfa0 f   u_qfieldui.obj
 0001:0008d000       ?draw@qfield@@QBEXPBVqgatebase@@@Z 0048e000 f   u_qfieldui.obj
 0001:0008d2e0       ?drawbloch@qfield@@QBEXXZ  0048e2e0 f   u_qfieldui.obj
 0001:0008dd10       ?fcalc@qfield@@QAEXXZ      0048ed10 f   u_qfieldui.obj
 0001:0008de50       ?freelink@qfield@@QAEXH@Z  0048ee50 f   u_qfieldui.obj
 0001:0008de70       ?getaccumcursor@qfield@@QBE_NIIPAH@Z 0048ee70 f   u_qfieldui.obj
 0001:0008ded0       ?getcolumncursor@qfield@@QBE_NIIPAHPAM@Z 0048eed0 f   u_qfieldui.obj
 0001:0008df70       ?getnumqubits@qfield@@QBEIXZ 0048ef70 f   u_qfieldui.obj
 0001:0008dfa0       ?getqgate@qfield@@QBEPBVqgatebase@@II@Z 0048efa0 f   u_qfieldui.obj
 0001:0008e000       ?getqmatacc@qfield@@QBE?BVqmat@qcomp@@H@Z 0048f000 f   u_qfieldui.obj
 0001:0008e070       ?getqmatcol@qfield@@QBE?BVqmat@qcomp@@H@Z 0048f070 f   u_qfieldui.obj
 0001:0008e0e0       ?getrowcolumncursor@qfield@@QBE_NIIPAUpointi2@@@Z 0048f0e0 f   u_qfieldui.obj
 0001:0008e190       ?lessqubits@qfield@@QAEXXZ 0048f190 f   u_qfieldui.obj
 0001:0008e1e0       ?makelink@qfield@@QAEXHH@Z 0048f1e0 f   u_qfieldui.obj
 0001:0008e230       ?morequbits@qfield@@QAEXXZ 0048f230 f   u_qfieldui.obj
 0001:0008e280       ?save@qfield@@QBEXABV?$basic_string@DU?$char_traits@D@std@@V?$allocator@D@2@@std@@@Z 0048f280 f   u_qfieldui.obj
 0001:0008e370       ?toBlochQuatMat@qfield@@SAXABVqmat@qcomp@@PAUpointf3@@PAM@Z 0048f370 f   u_qfieldui.obj
 0001:0008e6e0       ?create@qgatebase@@SAPAV1@I@Z 0048f6e0 f i u_qgatebase.obj
 0001:0008e720       ?draw@qgatebase@@UBEXPAUbitmap32@@II@Z 0048f720 f   u_qgatebase.obj
 0001:0008e730       ?getqmat@qgatebase@@UBE?AVqmat@qcomp@@XZ 0048f730 f   u_qgatebase.obj
 0001:0008e790       ?create@qgatehadamard@@SAPAVqgatebase@@I@Z 0048f790 f i u_qgatebase.obj
 0001:0008e7d0       ?copy@qgatehadamard@@UBEPAVqgatebase@@XZ 0048f7d0 f i u_qgatebase.obj
 0001:0008e810       ?create@qgatem0@@SAPAVqgatebase@@I@Z 0048f810 f i u_qgatebase.obj
 0001:0008e850       ?copy@qgatem0@@UBEPAVqgatebase@@XZ 0048f850 f i u_qgatebase.obj
 0001:0008e890       ?getkind@qgatem0@@UBE?AW4qtype@qgatebase@@XZ 0048f890 f i u_qgatebase.obj
 0001:0008e890       ?getbasekind@qgatem0@@UBE?AW4qtype@qgatebase@@XZ 0048f890 f i u_qgatebase.obj
 0001:0008e8a0       ?create@qgatem1@@SAPAVqgatebase@@I@Z 0048f8a0 f i u_qgatebase.obj
 0001:0008e8e0       ?copy@qgatem1@@UBEPAVqgatebase@@XZ 0048f8e0 f i u_qgatebase.obj
 0001:0008e920       ?getbasekind@qgatem1@@UBE?AW4qtype@qgatebase@@XZ 0048f920 f i u_qgatebase.obj
 0001:0008e920       ?getkind@qgatem1@@UBE?AW4qtype@qgatebase@@XZ 0048f920 f i u_qgatebase.obj
 0001:0008e930       ?create@qgatesplitter@@SAPAVqgatebase@@I@Z 0048f930 f i u_qgatebase.obj
 0001:0008e970       ?copy@qgatesplitter@@UBEPAVqgatebase@@XZ 0048f970 f i u_qgatebase.obj
 0001:0008e9b0       ?getbasekind@qgatesplitter@@UBE?AW4qtype@qgatebase@@XZ 0048f9b0 f i u_qgatebase.obj
 0001:0008e9b0       ?getkind@qgatesplitter@@UBE?AW4qtype@qgatebase@@XZ 0048f9b0 f i u_qgatebase.obj
 0001:0008e9c0       ?create@qgatemirror@@SAPAVqgatebase@@I@Z 0048f9c0 f i u_qgatebase.obj
 0001:0008ea00       ?copy@qgatemirror@@UBEPAVqgatebase@@XZ 0048fa00 f i u_qgatebase.obj
 0001:0008ea40       ?getkind@qgatemirror@@UBE?AW4qtype@qgatebase@@XZ 0048fa40 f i u_qgatebase.obj
 0001:0008ea40       ?getbasekind@qgatemirror@@UBE?AW4qtype@qgatebase@@XZ 0048fa40 f i u_qgatebase.obj
 0001:0008ea50       ?create@qgatesnotto@@SAPAVqgatebase@@I@Z 0048fa50 f i u_qgatebase.obj
 0001:0008ea90       ?copy@qgatesnotto@@UBEPAVqgatebase@@XZ 0048fa90 f i u_qgatebase.obj
 0001:0008ead0       ?getbasekind@qgatesnotto@@UBE?AW4qtype@qgatebase@@XZ 0048fad0 f i u_qgatebase.obj
 0001:0008ead0       ?getkind@qgatesnotto@@UBE?AW4qtype@qgatebase@@XZ 0048fad0 f i u_qgatebase.obj
 0001:0008eae0       ?create@qgatesnotwp@@SAPAVqgatebase@@I@Z 0048fae0 f i u_qgatebase.obj
 0001:0008eb20       ?copy@qgatesnotwp@@UBEPAVqgatebase@@XZ 0048fb20 f i u_qgatebase.obj
 0001:0008eb60       ?getkind@qgatesnotwp@@UBE?AW4qtype@qgatebase@@XZ 0048fb60 f i u_qgatebase.obj
 0001:0008eb60       ?getbasekind@qgatesnotwp@@UBE?AW4qtype@qgatebase@@XZ 0048fb60 f i u_qgatebase.obj
 0001:0008eb70       ?create@qgatenot@@SAPAVqgatebase@@I@Z 0048fb70 f i u_qgatebase.obj
 0001:0008ebb0       ?copy@qgatenot@@UBEPAVqgatebase@@XZ 0048fbb0 f i u_qgatebase.obj
 0001:0008ebf0       ?create@qgatepx@@SAPAVqgatebase@@I@Z 0048fbf0 f i u_qgatebase.obj
 0001:0008ec30       ?copy@qgatepx@@UBEPAVqgatebase@@XZ 0048fc30 f i u_qgatebase.obj
 0001:0008ec70       ?getkind@qgatepx@@UBE?AW4qtype@qgatebase@@XZ 0048fc70 f i u_qgatebase.obj
 0001:0008ec70       ?getnumparts@toffolitop@@UBEIXZ 0048fc70 f i u_qgatebase.obj
 0001:0008ec70       ?getnumparts@toffolimid@@UBEIXZ 0048fc70 f i u_qgatebase.obj
 0001:0008ec70       ?getcurpart@toffoli6c3@@UBEIXZ 0048fc70 f i u_qgatebase.obj
 0001:0008ec70       ?getnumparts@fredkinmid@@UBEIXZ 0048fc70 f i u_qgatebase.obj
 0001:0008ec70       ?getcurpart@toffoli4t@@UBEIXZ 0048fc70 f i u_qgatebase.obj
 0001:0008ec70       ?getnumparts@fredkinbot@@UBEIXZ 0048fc70 f i u_qgatebase.obj
 0001:0008ec70       ?getbasekind@qgatepx@@UBE?AW4qtype@qgatebase@@XZ 0048fc70 f i u_qgatebase.obj
 0001:0008ec70       ?getnumparts@fredkintop@@UBEIXZ 0048fc70 f i u_qgatebase.obj
 0001:0008ec70       ?getnumparts@toffolibot@@UBEIXZ 0048fc70 f i u_qgatebase.obj
 0001:0008ec70       ?getcurpart@toffoli5c3@@UBEIXZ 0048fc70 f i u_qgatebase.obj
 0001:0008ec80       ?create@qgatepy@@SAPAVqgatebase@@I@Z 0048fc80 f i u_qgatebase.obj
 0001:0008ecc0       ?copy@qgatepy@@UBEPAVqgatebase@@XZ 0048fcc0 f i u_qgatebase.obj
 0001:0008ed00       ?getcurpart@toffoli5t@@UBEIXZ 0048fd00 f i u_qgatebase.obj
 0001:0008ed00       ?getkind@qgatepy@@UBE?AW4qtype@qgatebase@@XZ 0048fd00 f i u_qgatebase.obj
 0001:0008ed00       ?getnumparts@toffoli4c0@@UBEIXZ 0048fd00 f i u_qgatebase.obj
 0001:0008ed00       ?getbasekind@qgatepy@@UBE?AW4qtype@qgatebase@@XZ 0048fd00 f i u_qgatebase.obj
 0001:0008ed00       ?getnumparts@toffoli4c2@@UBEIXZ 0048fd00 f i u_qgatebase.obj
 0001:0008ed00       ?getnumparts@toffoli4c1@@UBEIXZ 0048fd00 f i u_qgatebase.obj
 0001:0008ed00       ?getcurpart@toffoli6c4@@UBEIXZ 0048fd00 f i u_qgatebase.obj
 0001:0008ed00       ?getnumparts@toffoli4t@@UBEIXZ 0048fd00 f i u_qgatebase.obj
 0001:0008ed10       ?create@qgatepz@@SAPAVqgatebase@@I@Z 0048fd10 f i u_qgatebase.obj
 0001:0008ed50       ?copy@qgatepz@@UBEPAVqgatebase@@XZ 0048fd50 f i u_qgatebase.obj
 0001:0008ed90       ?getnumparts@toffoli5c2@@UBEIXZ 0048fd90 f i u_qgatebase.obj
 0001:0008ed90       ?getnumparts@toffoli5c3@@UBEIXZ 0048fd90 f i u_qgatebase.obj
 0001:0008ed90       ?getnumparts@toffoli5c1@@UBEIXZ 0048fd90 f i u_qgatebase.obj
 0001:0008ed90       ?getnumparts@toffoli5c0@@UBEIXZ 0048fd90 f i u_qgatebase.obj
 0001:0008ed90       ?getkind@qgatepz@@UBE?AW4qtype@qgatebase@@XZ 0048fd90 f i u_qgatebase.obj
 0001:0008ed90       ?getnumparts@toffoli5t@@UBEIXZ 0048fd90 f i u_qgatebase.obj
 0001:0008ed90       ?getbasekind@qgatepz@@UBE?AW4qtype@qgatebase@@XZ 0048fd90 f i u_qgatebase.obj
 0001:0008ed90       ?getcurpart@toffoli6t@@UBEIXZ 0048fd90 f i u_qgatebase.obj
 0001:0008eda0       ?create@qgates@@SAPAVqgatebase@@I@Z 0048fda0 f i u_qgatebase.obj
 0001:0008ede0       ?copy@qgates@@UBEPAVqgatebase@@XZ 0048fde0 f i u_qgatebase.obj
 0001:0008ee20       ?getnumparts@toffoli6c1@@UBEIXZ 0048fe20 f i u_qgatebase.obj
 0001:0008ee20       ?getnumparts@toffoli6c3@@UBEIXZ 0048fe20 f i u_qgatebase.obj
 0001:0008ee20       ?getnumparts@toffoli6c4@@UBEIXZ 0048fe20 f i u_qgatebase.obj
 0001:0008ee20       ?getnumparts@toffoli6c0@@UBEIXZ 0048fe20 f i u_qgatebase.obj
 0001:0008ee20       ?getbasekind@qgates@@UBE?AW4qtype@qgatebase@@XZ 0048fe20 f i u_qgatebase.obj
 0001:0008ee20       ?getkind@qgates@@UBE?AW4qtype@qgatebase@@XZ 0048fe20 f i u_qgatebase.obj
 0001:0008ee20       ?getnumparts@toffoli6c2@@UBEIXZ 0048fe20 f i u_qgatebase.obj
 0001:0008ee20       ?getnumparts@toffoli6t@@UBEIXZ 0048fe20 f i u_qgatebase.obj
 0001:0008ee30       ?create@qgatest@@SAPAVqgatebase@@I@Z 0048fe30 f i u_qgatebase.obj
 0001:0008ee70       ?copy@qgatest@@UBEPAVqgatebase@@XZ 0048fe70 f i u_qgatebase.obj
 0001:0008eeb0       ?getbasekind@qgatest@@UBE?AW4qtype@qgatebase@@XZ 0048feb0 f i u_qgatebase.obj
 0001:0008eeb0       ?getkind@qgatest@@UBE?AW4qtype@qgatebase@@XZ 0048feb0 f i u_qgatebase.obj
 0001:0008eec0       ?create@qgatet@@SAPAVqgatebase@@I@Z 0048fec0 f i u_qgatebase.obj
 0001:0008ef00       ?copy@qgatet@@UBEPAVqgatebase@@XZ 0048ff00 f i u_qgatebase.obj
 0001:0008ef40       ?getkind@qgatet@@UBE?AW4qtype@qgatebase@@XZ 0048ff40 f i u_qgatebase.obj
 0001:0008ef40       ?getbasekind@qgatet@@UBE?AW4qtype@qgatebase@@XZ 0048ff40 f i u_qgatebase.obj
 0001:0008ef50       ?create@qgatett@@SAPAVqgatebase@@I@Z 0048ff50 f i u_qgatebase.obj
 0001:0008ef90       ?copy@qgatett@@UBEPAVqgatebase@@XZ 0048ff90 f i u_qgatebase.obj
 0001:0008efd0       ?getkind@qgatett@@UBE?AW4qtype@qgatebase@@XZ 0048ffd0 f i u_qgatebase.obj
 0001:0008efd0       ?getbasekind@qgatett@@UBE?AW4qtype@qgatebase@@XZ 0048ffd0 f i u_qgatebase.obj
 0001:0008efe0       ?create@qgateg1over3@@SAPAVqgatebase@@I@Z 0048ffe0 f i u_qgatebase.obj
 0001:0008f020       ?copy@qgateg1over3@@UBEPAVqgatebase@@XZ 00490020 f i u_qgatebase.obj
 0001:0008f060       ?getkind@qgateg1over3@@UBE?AW4qtype@qgatebase@@XZ 00490060 f i u_qgatebase.obj
 0001:0008f060       ?getbasekind@qgateg1over3@@UBE?AW4qtype@qgatebase@@XZ 00490060 f i u_qgatebase.obj
 0001:0008f070       ?create@qgategm1over3@@SAPAVqgatebase@@I@Z 00490070 f i u_qgatebase.obj
 0001:0008f0b0       ?copy@qgategm1over3@@UBEPAVqgatebase@@XZ 004900b0 f i u_qgatebase.obj
 0001:0008f0f0       ?getbasekind@qgategm1over3@@UBE?AW4qtype@qgatebase@@XZ 004900f0 f i u_qgatebase.obj
 0001:0008f0f0       ?getkind@qgategm1over3@@UBE?AW4qtype@qgatebase@@XZ 004900f0 f i u_qgatebase.obj
 0001:0008f100       ?create@qgatep45@@SAPAVqgatebase@@I@Z 00490100 f i u_qgatebase.obj
 0001:0008f140       ?copy@qgatep45@@UBEPAVqgatebase@@XZ 00490140 f i u_qgatebase.obj
 0001:0008f180       ?getbasekind@qgatep45@@UBE?AW4qtype@qgatebase@@XZ 00490180 f i u_qgatebase.obj
 0001:0008f180       ?getkind@qgatep45@@UBE?AW4qtype@qgatebase@@XZ 00490180 f i u_qgatebase.obj
 0001:0008f190       ?create@qgatepm45@@SAPAVqgatebase@@I@Z 00490190 f i u_qgatebase.obj
 0001:0008f1d0       ?copy@qgatepm45@@UBEPAVqgatebase@@XZ 004901d0 f i u_qgatebase.obj
 0001:0008f210       ?getkind@qgatepm45@@UBE?AW4qtype@qgatebase@@XZ 00490210 f i u_qgatebase.obj
 0001:0008f210       ?getbasekind@qgatepm45@@UBE?AW4qtype@qgatebase@@XZ 00490210 f i u_qgatebase.obj
 0001:0008f220       ?create@qgatep30@@SAPAVqgatebase@@I@Z 00490220 f i u_qgatebase.obj
 0001:0008f260       ?copy@qgatep30@@UBEPAVqgatebase@@XZ 00490260 f i u_qgatebase.obj
 0001:0008f2a0       ?getbasekind@qgatep30@@UBE?AW4qtype@qgatebase@@XZ 004902a0 f i u_qgatebase.obj
 0001:0008f2a0       ?getkind@qgatep30@@UBE?AW4qtype@qgatebase@@XZ 004902a0 f i u_qgatebase.obj
 0001:0008f2b0       ?create@qgatepm30@@SAPAVqgatebase@@I@Z 004902b0 f i u_qgatebase.obj
 0001:0008f2f0       ?copy@qgatepm30@@UBEPAVqgatebase@@XZ 004902f0 f i u_qgatebase.obj
 0001:0008f330       ?getbasekind@qgatepm30@@UBE?AW4qtype@qgatebase@@XZ 00490330 f i u_qgatebase.obj
 0001:0008f330       ?getkind@qgatepm30@@UBE?AW4qtype@qgatebase@@XZ 00490330 f i u_qgatebase.obj
 0001:0008f340       ?create@swaptop@@SAPAVqgatebase@@I@Z 00490340 f i u_qgatebase.obj
 0001:0008f380       ?copy@swaptop@@UBEPAVqgatebase@@XZ 00490380 f i u_qgatebase.obj
 0001:0008f3c0       ?getbasekind@swaptop@@UBE?AW4qtype@qgatebase@@XZ 004903c0 f i u_qgatebase.obj
 0001:0008f3c0       ?getbasekind@swapbot@@UBE?AW4qtype@qgatebase@@XZ 004903c0 f i u_qgatebase.obj
 0001:0008f3c0       ?getkind@swaptop@@UBE?AW4qtype@qgatebase@@XZ 004903c0 f i u_qgatebase.obj
 0001:0008f3d0       ?create@swapbot@@SAPAVqgatebase@@I@Z 004903d0 f i u_qgatebase.obj
 0001:0008f410       ?copy@swapbot@@UBEPAVqgatebase@@XZ 00490410 f i u_qgatebase.obj
 0001:0008f450       ?getkind@swapbot@@UBE?AW4qtype@qgatebase@@XZ 00490450 f i u_qgatebase.obj
 0001:0008f460       ?create@cnottop@@SAPAVqgatebase@@I@Z 00490460 f i u_qgatebase.obj
 0001:0008f4a0       ?copy@cnottop@@UBEPAVqgatebase@@XZ 004904a0 f i u_qgatebase.obj
 0001:0008f4e0       ?getbasekind@cnottop@@UBE?AW4qtype@qgatebase@@XZ 004904e0 f i u_qgatebase.obj
 0001:0008f4e0       ?getkind@cnottop@@UBE?AW4qtype@qgatebase@@XZ 004904e0 f i u_qgatebase.obj
 0001:0008f4e0       ?getbasekind@cnotbot@@UBE?AW4qtype@qgatebase@@XZ 004904e0 f i u_qgatebase.obj
 0001:0008f4f0       ?create@cnotbot@@SAPAVqgatebase@@I@Z 004904f0 f i u_qgatebase.obj
 0001:0008f530       ?copy@cnotbot@@UBEPAVqgatebase@@XZ 00490530 f i u_qgatebase.obj
 0001:0008f570       ?getkind@cnotbot@@UBE?AW4qtype@qgatebase@@XZ 00490570 f i u_qgatebase.obj
 0001:0008f580       ?create@cztop@@SAPAVqgatebase@@I@Z 00490580 f i u_qgatebase.obj
 0001:0008f5c0       ?copy@cztop@@UBEPAVqgatebase@@XZ 004905c0 f i u_qgatebase.obj
 0001:0008f600       ?getkind@cztop@@UBE?AW4qtype@qgatebase@@XZ 00490600 f i u_qgatebase.obj
 0001:0008f600       ?getbasekind@czbot@@UBE?AW4qtype@qgatebase@@XZ 00490600 f i u_qgatebase.obj
 0001:0008f600       ?getbasekind@cztop@@UBE?AW4qtype@qgatebase@@XZ 00490600 f i u_qgatebase.obj
 0001:0008f610       ?create@czbot@@SAPAVqgatebase@@I@Z 00490610 f i u_qgatebase.obj
 0001:0008f650       ?copy@czbot@@UBEPAVqgatebase@@XZ 00490650 f i u_qgatebase.obj
 0001:0008f690       ?getkind@czbot@@UBE?AW4qtype@qgatebase@@XZ 00490690 f i u_qgatebase.obj
 0001:0008f6a0       ?create@cytop@@SAPAVqgatebase@@I@Z 004906a0 f i u_qgatebase.obj
 0001:0008f6e0       ?copy@cytop@@UBEPAVqgatebase@@XZ 004906e0 f i u_qgatebase.obj
 0001:0008f720       ?getkind@cytop@@UBE?AW4qtype@qgatebase@@XZ 00490720 f i u_qgatebase.obj
 0001:0008f720       ?getbasekind@cytop@@UBE?AW4qtype@qgatebase@@XZ 00490720 f i u_qgatebase.obj
 0001:0008f720       ?getbasekind@cybot@@UBE?AW4qtype@qgatebase@@XZ 00490720 f i u_qgatebase.obj
 0001:0008f730       ?create@cybot@@SAPAVqgatebase@@I@Z 00490730 f i u_qgatebase.obj
 0001:0008f770       ?copy@cybot@@UBEPAVqgatebase@@XZ 00490770 f i u_qgatebase.obj
 0001:0008f7b0       ?getkind@cybot@@UBE?AW4qtype@qgatebase@@XZ 004907b0 f i u_qgatebase.obj
 0001:0008f7c0       ?create@chtop@@SAPAVqgatebase@@I@Z 004907c0 f i u_qgatebase.obj
 0001:0008f800       ?copy@chtop@@UBEPAVqgatebase@@XZ 00490800 f i u_qgatebase.obj
 0001:0008f840       ?getbasekind@chtop@@UBE?AW4qtype@qgatebase@@XZ 00490840 f i u_qgatebase.obj
 0001:0008f840       ?getbasekind@chbot@@UBE?AW4qtype@qgatebase@@XZ 00490840 f i u_qgatebase.obj
 0001:0008f840       ?getkind@chtop@@UBE?AW4qtype@qgatebase@@XZ 00490840 f i u_qgatebase.obj
 0001:0008f850       ?create@chbot@@SAPAVqgatebase@@I@Z 00490850 f i u_qgatebase.obj
 0001:0008f890       ?copy@chbot@@UBEPAVqgatebase@@XZ 00490890 f i u_qgatebase.obj
 0001:0008f8d0       ?getkind@chbot@@UBE?AW4qtype@qgatebase@@XZ 004908d0 f i u_qgatebase.obj
 0001:0008f8e0       ?create@cstop@@SAPAVqgatebase@@I@Z 004908e0 f i u_qgatebase.obj
 0001:0008f920       ?copy@cstop@@UBEPAVqgatebase@@XZ 00490920 f i u_qgatebase.obj
 0001:0008f960       ?getbasekind@cstop@@UBE?AW4qtype@qgatebase@@XZ 00490960 f i u_qgatebase.obj
 0001:0008f960       ?getkind@cstop@@UBE?AW4qtype@qgatebase@@XZ 00490960 f i u_qgatebase.obj
 0001:0008f960       ?getbasekind@csbot@@UBE?AW4qtype@qgatebase@@XZ 00490960 f i u_qgatebase.obj
 0001:0008f970       ?create@csbot@@SAPAVqgatebase@@I@Z 00490970 f i u_qgatebase.obj
 0001:0008f9b0       ?copy@csbot@@UBEPAVqgatebase@@XZ 004909b0 f i u_qgatebase.obj
 0001:0008f9f0       ?getkind@csbot@@UBE?AW4qtype@qgatebase@@XZ 004909f0 f i u_qgatebase.obj
 0001:0008fa00       ?create@csttop@@SAPAVqgatebase@@I@Z 00490a00 f i u_qgatebase.obj
 0001:0008fa40       ?copy@csttop@@UBEPAVqgatebase@@XZ 00490a40 f i u_qgatebase.obj
 0001:0008fa80       ?getbasekind@cstbot@@UBE?AW4qtype@qgatebase@@XZ 00490a80 f i u_qgatebase.obj
 0001:0008fa80       ?getbasekind@csttop@@UBE?AW4qtype@qgatebase@@XZ 00490a80 f i u_qgatebase.obj
 0001:0008fa80       ?getkind@csttop@@UBE?AW4qtype@qgatebase@@XZ 00490a80 f i u_qgatebase.obj
 0001:0008fa90       ?create@cstbot@@SAPAVqgatebase@@I@Z 00490a90 f i u_qgatebase.obj
 0001:0008fad0       ?copy@cstbot@@UBEPAVqgatebase@@XZ 00490ad0 f i u_qgatebase.obj
 0001:0008fb10       ?getkind@cstbot@@UBE?AW4qtype@qgatebase@@XZ 00490b10 f i u_qgatebase.obj
 0001:0008fb20       ?create@cttop@@SAPAVqgatebase@@I@Z 00490b20 f i u_qgatebase.obj
 0001:0008fb60       ?copy@cttop@@UBEPAVqgatebase@@XZ 00490b60 f i u_qgatebase.obj
 0001:0008fba0       ?getbasekind@ctbot@@UBE?AW4qtype@qgatebase@@XZ 00490ba0 f i u_qgatebase.obj
 0001:0008fba0       ?getkind@cttop@@UBE?AW4qtype@qgatebase@@XZ 00490ba0 f i u_qgatebase.obj
 0001:0008fba0       ?getbasekind@cttop@@UBE?AW4qtype@qgatebase@@XZ 00490ba0 f i u_qgatebase.obj
 0001:0008fbb0       ?create@ctbot@@SAPAVqgatebase@@I@Z 00490bb0 f i u_qgatebase.obj
 0001:0008fbf0       ?copy@ctbot@@UBEPAVqgatebase@@XZ 00490bf0 f i u_qgatebase.obj
 0001:0008fc30       ?getkind@ctbot@@UBE?AW4qtype@qgatebase@@XZ 00490c30 f i u_qgatebase.obj
 0001:0008fc40       ?create@ctttop@@SAPAVqgatebase@@I@Z 00490c40 f i u_qgatebase.obj
 0001:0008fc80       ?copy@ctttop@@UBEPAVqgatebase@@XZ 00490c80 f i u_qgatebase.obj
 0001:0008fcc0       ?getbasekind@cttbot@@UBE?AW4qtype@qgatebase@@XZ 00490cc0 f i u_qgatebase.obj
 0001:0008fcc0       ?getkind@ctttop@@UBE?AW4qtype@qgatebase@@XZ 00490cc0 f i u_qgatebase.obj
 0001:0008fcc0       ?getbasekind@ctttop@@UBE?AW4qtype@qgatebase@@XZ 00490cc0 f i u_qgatebase.obj
 0001:0008fcd0       ?create@cttbot@@SAPAVqgatebase@@I@Z 00490cd0 f i u_qgatebase.obj
 0001:0008fd10       ?copy@cttbot@@UBEPAVqgatebase@@XZ 00490d10 f i u_qgatebase.obj
 0001:0008fd50       ?getkind@cttbot@@UBE?AW4qtype@qgatebase@@XZ 00490d50 f i u_qgatebase.obj
 0001:0008fd60       ?create@cp45top@@SAPAVqgatebase@@I@Z 00490d60 f i u_qgatebase.obj
 0001:0008fda0       ?copy@cp45top@@UBEPAVqgatebase@@XZ 00490da0 f i u_qgatebase.obj
 0001:0008fde0       ?getbasekind@cp45bot@@UBE?AW4qtype@qgatebase@@XZ 00490de0 f i u_qgatebase.obj
 0001:0008fde0       ?getbasekind@cp45top@@UBE?AW4qtype@qgatebase@@XZ 00490de0 f i u_qgatebase.obj
 0001:0008fde0       ?getkind@cp45top@@UBE?AW4qtype@qgatebase@@XZ 00490de0 f i u_qgatebase.obj
 0001:0008fdf0       ?create@cp45bot@@SAPAVqgatebase@@I@Z 00490df0 f i u_qgatebase.obj
 0001:0008fe30       ?copy@cp45bot@@UBEPAVqgatebase@@XZ 00490e30 f i u_qgatebase.obj
 0001:0008fe70       ?getkind@cp45bot@@UBE?AW4qtype@qgatebase@@XZ 00490e70 f i u_qgatebase.obj
 0001:0008fe80       ?create@cpm45top@@SAPAVqgatebase@@I@Z 00490e80 f i u_qgatebase.obj
 0001:0008fec0       ?copy@cpm45top@@UBEPAVqgatebase@@XZ 00490ec0 f i u_qgatebase.obj
 0001:0008ff00       ?getkind@cpm45top@@UBE?AW4qtype@qgatebase@@XZ 00490f00 f i u_qgatebase.obj
 0001:0008ff00       ?getbasekind@cpm45top@@UBE?AW4qtype@qgatebase@@XZ 00490f00 f i u_qgatebase.obj
 0001:0008ff00       ?getbasekind@cpm45bot@@UBE?AW4qtype@qgatebase@@XZ 00490f00 f i u_qgatebase.obj
 0001:0008ff10       ?create@cpm45bot@@SAPAVqgatebase@@I@Z 00490f10 f i u_qgatebase.obj
 0001:0008ff50       ?copy@cpm45bot@@UBEPAVqgatebase@@XZ 00490f50 f i u_qgatebase.obj
 0001:0008ff90       ?getkind@cpm45bot@@UBE?AW4qtype@qgatebase@@XZ 00490f90 f i u_qgatebase.obj
 0001:0008ffa0       ?create@cp30top@@SAPAVqgatebase@@I@Z 00490fa0 f i u_qgatebase.obj
 0001:0008ffe0       ?copy@cp30top@@UBEPAVqgatebase@@XZ 00490fe0 f i u_qgatebase.obj
 0001:00090020       ?getkind@cp30top@@UBE?AW4qtype@qgatebase@@XZ 00491020 f i u_qgatebase.obj
 0001:00090020       ?getbasekind@cp30bot@@UBE?AW4qtype@qgatebase@@XZ 00491020 f i u_qgatebase.obj
 0001:00090020       ?getbasekind@cp30top@@UBE?AW4qtype@qgatebase@@XZ 00491020 f i u_qgatebase.obj
 0001:00090030       ?create@cp30bot@@SAPAVqgatebase@@I@Z 00491030 f i u_qgatebase.obj
 0001:00090070       ?copy@cp30bot@@UBEPAVqgatebase@@XZ 00491070 f i u_qgatebase.obj
 0001:000900b0       ?getkind@cp30bot@@UBE?AW4qtype@qgatebase@@XZ 004910b0 f i u_qgatebase.obj
 0001:000900c0       ?create@cpm30top@@SAPAVqgatebase@@I@Z 004910c0 f i u_qgatebase.obj
 0001:00090100       ?copy@cpm30top@@UBEPAVqgatebase@@XZ 00491100 f i u_qgatebase.obj
 0001:00090140       ?getbasekind@cpm30bot@@UBE?AW4qtype@qgatebase@@XZ 00491140 f i u_qgatebase.obj
 0001:00090140       ?getbasekind@cpm30top@@UBE?AW4qtype@qgatebase@@XZ 00491140 f i u_qgatebase.obj
 0001:00090140       ?getkind@cpm30top@@UBE?AW4qtype@qgatebase@@XZ 00491140 f i u_qgatebase.obj
 0001:00090150       ?create@cpm30bot@@SAPAVqgatebase@@I@Z 00491150 f i u_qgatebase.obj
 0001:00090190       ?copy@cpm30bot@@UBEPAVqgatebase@@XZ 00491190 f i u_qgatebase.obj
 0001:000901d0       ?getkind@cpm30bot@@UBE?AW4qtype@qgatebase@@XZ 004911d0 f i u_qgatebase.obj
 0001:000901e0       ?create@dectop@@SAPAVqgatebase@@I@Z 004911e0 f i u_qgatebase.obj
 0001:00090220       ?copy@dectop@@UBEPAVqgatebase@@XZ 00491220 f i u_qgatebase.obj
 0001:00090260       ?getbasekind@dectop@@UBE?AW4qtype@qgatebase@@XZ 00491260 f i u_qgatebase.obj
 0001:00090260       ?getbasekind@decbot@@UBE?AW4qtype@qgatebase@@XZ 00491260 f i u_qgatebase.obj
 0001:00090260       ?getkind@dectop@@UBE?AW4qtype@qgatebase@@XZ 00491260 f i u_qgatebase.obj
 0001:00090270       ?create@decbot@@SAPAVqgatebase@@I@Z 00491270 f i u_qgatebase.obj
 0001:000902b0       ?copy@decbot@@UBEPAVqgatebase@@XZ 004912b0 f i u_qgatebase.obj
 0001:000902f0       ?getkind@decbot@@UBE?AW4qtype@qgatebase@@XZ 004912f0 f i u_qgatebase.obj
 0001:00090300       ?create@fredkintop@@SAPAVqgatebase@@I@Z 00491300 f i u_qgatebase.obj
 0001:00090340       ?copy@fredkintop@@UBEPAVqgatebase@@XZ 00491340 f i u_qgatebase.obj
 0001:00090380       ?getbasekind@fredkinmid@@UBE?AW4qtype@qgatebase@@XZ 00491380 f i u_qgatebase.obj
 0001:00090380       ?getbasekind@fredkintop@@UBE?AW4qtype@qgatebase@@XZ 00491380 f i u_qgatebase.obj
 0001:00090380       ?getbasekind@fredkinbot@@UBE?AW4qtype@qgatebase@@XZ 00491380 f i u_qgatebase.obj
 0001:00090380       ?getkind@fredkintop@@UBE?AW4qtype@qgatebase@@XZ 00491380 f i u_qgatebase.obj
 0001:00090390       ?create@fredkinmid@@SAPAVqgatebase@@I@Z 00491390 f i u_qgatebase.obj
 0001:000903d0       ?copy@fredkinmid@@UBEPAVqgatebase@@XZ 004913d0 f i u_qgatebase.obj
 0001:00090410       ?getkind@fredkinmid@@UBE?AW4qtype@qgatebase@@XZ 00491410 f i u_qgatebase.obj
 0001:00090420       ?create@fredkinbot@@SAPAVqgatebase@@I@Z 00491420 f i u_qgatebase.obj
 0001:00090460       ?copy@fredkinbot@@UBEPAVqgatebase@@XZ 00491460 f i u_qgatebase.obj
 0001:000904a0       ?getkind@fredkinbot@@UBE?AW4qtype@qgatebase@@XZ 004914a0 f i u_qgatebase.obj
 0001:000904b0       ?create@toffolitop@@SAPAVqgatebase@@I@Z 004914b0 f i u_qgatebase.obj
 0001:000904f0       ?copy@toffolitop@@UBEPAVqgatebase@@XZ 004914f0 f i u_qgatebase.obj
 0001:00090530       ?getbasekind@toffolitop@@UBE?AW4qtype@qgatebase@@XZ 00491530 f i u_qgatebase.obj
 0001:00090530       ?getbasekind@toffolimid@@UBE?AW4qtype@qgatebase@@XZ 00491530 f i u_qgatebase.obj
 0001:00090530       ?getkind@toffolitop@@UBE?AW4qtype@qgatebase@@XZ 00491530 f i u_qgatebase.obj
 0001:00090530       ?getbasekind@toffolibot@@UBE?AW4qtype@qgatebase@@XZ 00491530 f i u_qgatebase.obj
 0001:00090540       ?create@toffolimid@@SAPAVqgatebase@@I@Z 00491540 f i u_qgatebase.obj
 0001:00090580       ?copy@toffolimid@@UBEPAVqgatebase@@XZ 00491580 f i u_qgatebase.obj
 0001:000905c0       ?getkind@toffolimid@@UBE?AW4qtype@qgatebase@@XZ 004915c0 f i u_qgatebase.obj
 0001:000905d0       ?create@toffolibot@@SAPAVqgatebase@@I@Z 004915d0 f i u_qgatebase.obj
 0001:00090610       ?copy@toffolibot@@UBEPAVqgatebase@@XZ 00491610 f i u_qgatebase.obj
 0001:00090650       ?getkind@toffolibot@@UBE?AW4qtype@qgatebase@@XZ 00491650 f i u_qgatebase.obj
 0001:00090660       ?create@toffoli4c0@@SAPAVqgatebase@@I@Z 00491660 f i u_qgatebase.obj
 0001:000906a0       ?copy@toffoli4c0@@UBEPAVqgatebase@@XZ 004916a0 f i u_qgatebase.obj
 0001:000906e0       ?getbasekind@toffoli4c2@@UBE?AW4qtype@qgatebase@@XZ 004916e0 f i u_qgatebase.obj
 0001:000906e0       ?getbasekind@toffoli4t@@UBE?AW4qtype@qgatebase@@XZ 004916e0 f i u_qgatebase.obj
 0001:000906e0       ?getkind@toffoli4c0@@UBE?AW4qtype@qgatebase@@XZ 004916e0 f i u_qgatebase.obj
 0001:000906e0       ?getbasekind@toffoli4c0@@UBE?AW4qtype@qgatebase@@XZ 004916e0 f i u_qgatebase.obj
 0001:000906e0       ?getbasekind@toffoli4c1@@UBE?AW4qtype@qgatebase@@XZ 004916e0 f i u_qgatebase.obj
 0001:000906f0       ?create@toffoli4c1@@SAPAVqgatebase@@I@Z 004916f0 f i u_qgatebase.obj
 0001:00090730       ?copy@toffoli4c1@@UBEPAVqgatebase@@XZ 00491730 f i u_qgatebase.obj
 0001:00090770       ?getkind@toffoli4c1@@UBE?AW4qtype@qgatebase@@XZ 00491770 f i u_qgatebase.obj
 0001:00090780       ?create@toffoli4c2@@SAPAVqgatebase@@I@Z 00491780 f i u_qgatebase.obj
 0001:000907c0       ?copy@toffoli4c2@@UBEPAVqgatebase@@XZ 004917c0 f i u_qgatebase.obj
 0001:00090800       ?getkind@toffoli4c2@@UBE?AW4qtype@qgatebase@@XZ 00491800 f i u_qgatebase.obj
 0001:00090810       ?create@toffoli4t@@SAPAVqgatebase@@I@Z 00491810 f i u_qgatebase.obj
 0001:00090850       ?copy@toffoli4t@@UBEPAVqgatebase@@XZ 00491850 f i u_qgatebase.obj
 0001:00090890       ?getkind@toffoli4t@@UBE?AW4qtype@qgatebase@@XZ 00491890 f i u_qgatebase.obj
 0001:000908a0       ?create@toffoli5c0@@SAPAVqgatebase@@I@Z 004918a0 f i u_qgatebase.obj
 0001:000908e0       ?copy@toffoli5c0@@UBEPAVqgatebase@@XZ 004918e0 f i u_qgatebase.obj
 0001:00090920       ?getbasekind@toffoli5c0@@UBE?AW4qtype@qgatebase@@XZ 00491920 f i u_qgatebase.obj
 0001:00090920       ?getbasekind@toffoli5c2@@UBE?AW4qtype@qgatebase@@XZ 00491920 f i u_qgatebase.obj
 0001:00090920       ?getbasekind@toffoli5c1@@UBE?AW4qtype@qgatebase@@XZ 00491920 f i u_qgatebase.obj
 0001:00090920       ?getbasekind@toffoli5c3@@UBE?AW4qtype@qgatebase@@XZ 00491920 f i u_qgatebase.obj
 0001:00090920       ?getkind@toffoli5c0@@UBE?AW4qtype@qgatebase@@XZ 00491920 f i u_qgatebase.obj
 0001:00090920       ?getbasekind@toffoli5t@@UBE?AW4qtype@qgatebase@@XZ 00491920 f i u_qgatebase.obj
 0001:00090930       ?create@toffoli5c1@@SAPAVqgatebase@@I@Z 00491930 f i u_qgatebase.obj
 0001:00090970       ?copy@toffoli5c1@@UBEPAVqgatebase@@XZ 00491970 f i u_qgatebase.obj
 0001:000909b0       ?getkind@toffoli5c1@@UBE?AW4qtype@qgatebase@@XZ 004919b0 f i u_qgatebase.obj
 0001:000909c0       ?create@toffoli5c2@@SAPAVqgatebase@@I@Z 004919c0 f i u_qgatebase.obj
 0001:00090a00       ?copy@toffoli5c2@@UBEPAVqgatebase@@XZ 00491a00 f i u_qgatebase.obj
 0001:00090a40       ?getkind@toffoli5c2@@UBE?AW4qtype@qgatebase@@XZ 00491a40 f i u_qgatebase.obj
 0001:00090a50       ?create@toffoli5c3@@SAPAVqgatebase@@I@Z 00491a50 f i u_qgatebase.obj
 0001:00090a90       ?copy@toffoli5c3@@UBEPAVqgatebase@@XZ 00491a90 f i u_qgatebase.obj
 0001:00090ad0       ?getkind@toffoli5c3@@UBE?AW4qtype@qgatebase@@XZ 00491ad0 f i u_qgatebase.obj
 0001:00090ae0       ?create@toffoli5t@@SAPAVqgatebase@@I@Z 00491ae0 f i u_qgatebase.obj
 0001:00090b20       ?copy@toffoli5t@@UBEPAVqgatebase@@XZ 00491b20 f i u_qgatebase.obj
 0001:00090b60       ?getkind@toffoli5t@@UBE?AW4qtype@qgatebase@@XZ 00491b60 f i u_qgatebase.obj
 0001:00090b70       ?create@toffoli6c0@@SAPAVqgatebase@@I@Z 00491b70 f i u_qgatebase.obj
 0001:00090bb0       ?copy@toffoli6c0@@UBEPAVqgatebase@@XZ 00491bb0 f i u_qgatebase.obj
 0001:00090bf0       ?getbasekind@toffoli6c3@@UBE?AW4qtype@qgatebase@@XZ 00491bf0 f i u_qgatebase.obj
 0001:00090bf0       ?getbasekind@toffoli6c1@@UBE?AW4qtype@qgatebase@@XZ 00491bf0 f i u_qgatebase.obj
 0001:00090bf0       ?getkind@toffoli6c0@@UBE?AW4qtype@qgatebase@@XZ 00491bf0 f i u_qgatebase.obj
 0001:00090bf0       ?getbasekind@toffoli6t@@UBE?AW4qtype@qgatebase@@XZ 00491bf0 f i u_qgatebase.obj
 0001:00090bf0       ?getbasekind@toffoli6c4@@UBE?AW4qtype@qgatebase@@XZ 00491bf0 f i u_qgatebase.obj
 0001:00090bf0       ?getbasekind@toffoli6c2@@UBE?AW4qtype@qgatebase@@XZ 00491bf0 f i u_qgatebase.obj
 0001:00090bf0       ?getbasekind@toffoli6c0@@UBE?AW4qtype@qgatebase@@XZ 00491bf0 f i u_qgatebase.obj
 0001:00090c00       ?create@toffoli6c1@@SAPAVqgatebase@@I@Z 00491c00 f i u_qgatebase.obj
 0001:00090c40       ?copy@toffoli6c1@@UBEPAVqgatebase@@XZ 00491c40 f i u_qgatebase.obj
 0001:00090c80       ?getkind@toffoli6c1@@UBE?AW4qtype@qgatebase@@XZ 00491c80 f i u_qgatebase.obj
 0001:00090c90       ?create@toffoli6c2@@SAPAVqgatebase@@I@Z 00491c90 f i u_qgatebase.obj
 0001:00090cd0       ?copy@toffoli6c2@@UBEPAVqgatebase@@XZ 00491cd0 f i u_qgatebase.obj
 0001:00090d10       ?getkind@toffoli6c2@@UBE?AW4qtype@qgatebase@@XZ 00491d10 f i u_qgatebase.obj
 0001:00090d20       ?create@toffoli6c3@@SAPAVqgatebase@@I@Z 00491d20 f i u_qgatebase.obj
 0001:00090d60       ?copy@toffoli6c3@@UBEPAVqgatebase@@XZ 00491d60 f i u_qgatebase.obj
 0001:00090da0       ?getkind@toffoli6c3@@UBE?AW4qtype@qgatebase@@XZ 00491da0 f i u_qgatebase.obj
 0001:00090db0       ?create@toffoli6c4@@SAPAVqgatebase@@I@Z 00491db0 f i u_qgatebase.obj
 0001:00090df0       ?copy@toffoli6c4@@UBEPAVqgatebase@@XZ 00491df0 f i u_qgatebase.obj
 0001:00090e30       ?getkind@toffoli6c4@@UBE?AW4qtype@qgatebase@@XZ 00491e30 f i u_qgatebase.obj
 0001:00090e40       ?create@toffoli6t@@SAPAVqgatebase@@I@Z 00491e40 f i u_qgatebase.obj
 0001:00090e80       ?copy@toffoli6t@@UBEPAVqgatebase@@XZ 00491e80 f i u_qgatebase.obj
 0001:00090ec0       ?getkind@toffoli6t@@UBE?AW4qtype@qgatebase@@XZ 00491ec0 f i u_qgatebase.obj
 0001:00090ed0       ?drawbox@qgatebase@@QBEXPAUbitmap32@@II@Z 00491ed0 f   u_qgatebase.obj
 0001:00090f40       ?drawboxm@qgatebase@@QBEXPAUbitmap32@@II@Z 00491f40 f   u_qgatebase.obj
 0001:00090fe0       ?drawcircleoutline@qgatebase@@QBEXPAUbitmap32@@II@Z 00491fe0 f   u_qgatebase.obj
 0001:00091020       ?drawconnect@qgatebase@@QBEXPAUbitmap32@@II@Z 00492020 f   u_qgatebase.obj
 0001:00091080       ?drawoutline@qgatebase@@QBEXPAUbitmap32@@II@Z 00492080 f   u_qgatebase.obj
 0001:00091110       ?drawpassthru@qgatebase@@QBEXPAUbitmap32@@II@Z 00492110 f   u_qgatebase.obj
 0001:00091160       ?drawtext@qgatebase@@QBEXPAUbitmap32@@IIABV?$basic_string@DU?$char_traits@D@std@@V?$allocator@D@2@@std@@@Z 00492160 f   u_qgatebase.obj
 0001:000911c0       ?draw@chbot@@UBEXPAUbitmap32@@II@Z 004921c0 f   u_qgatederived.obj
 0001:00091320       ?draw@chtop@@UBEXPAUbitmap32@@II@Z 00492320 f   u_qgatederived.obj
 0001:000913a0       ?draw@cnotbot@@UBEXPAUbitmap32@@II@Z 004923a0 f   u_qgatederived.obj
 0001:00091440       ?draw@cnottop@@UBEXPAUbitmap32@@II@Z 00492440 f   u_qgatederived.obj
 0001:00091490       ?draw@cp30bot@@UBEXPAUbitmap32@@II@Z 00492490 f   u_qgatederived.obj
 0001:000915d0       ?draw@cp30top@@UBEXPAUbitmap32@@II@Z 004925d0 f   u_qgatederived.obj
 0001:00091650       ?draw@cp45bot@@UBEXPAUbitmap32@@II@Z 00492650 f   u_qgatederived.obj
 0001:00091790       ?draw@cp45top@@UBEXPAUbitmap32@@II@Z 00492790 f   u_qgatederived.obj
 0001:00091810       ?draw@cpm30bot@@UBEXPAUbitmap32@@II@Z 00492810 f   u_qgatederived.obj
 0001:00091950       ?draw@cpm30top@@UBEXPAUbitmap32@@II@Z 00492950 f   u_qgatederived.obj
 0001:000919d0       ?draw@cpm45bot@@UBEXPAUbitmap32@@II@Z 004929d0 f   u_qgatederived.obj
 0001:00091b10       ?draw@cpm45top@@UBEXPAUbitmap32@@II@Z 00492b10 f   u_qgatederived.obj
 0001:00091b90       ?draw@csbot@@UBEXPAUbitmap32@@II@Z 00492b90 f   u_qgatederived.obj
 0001:00091cf0       ?draw@cstbot@@UBEXPAUbitmap32@@II@Z 00492cf0 f   u_qgatederived.obj
 0001:00091e90       ?draw@cstop@@UBEXPAUbitmap32@@II@Z 00492e90 f   u_qgatederived.obj
 0001:00091f10       ?draw@csttop@@UBEXPAUbitmap32@@II@Z 00492f10 f   u_qgatederived.obj
 0001:00091f90       ?draw@ctbot@@UBEXPAUbitmap32@@II@Z 00492f90 f   u_qgatederived.obj
 0001:000920f0       ?draw@cttbot@@UBEXPAUbitmap32@@II@Z 004930f0 f   u_qgatederived.obj
 0001:00092290       ?draw@cttop@@UBEXPAUbitmap32@@II@Z 00493290 f   u_qgatederived.obj
 0001:00092310       ?draw@ctttop@@UBEXPAUbitmap32@@II@Z 00493310 f   u_qgatederived.obj
 0001:00092390       ?draw@cybot@@UBEXPAUbitmap32@@II@Z 00493390 f   u_qgatederived.obj
 0001:000924f0       ?draw@cytop@@UBEXPAUbitmap32@@II@Z 004934f0 f   u_qgatederived.obj
 0001:00092570       ?draw@czbot@@UBEXPAUbitmap32@@II@Z 00493570 f   u_qgatederived.obj
 0001:000926d0       ?draw@cztop@@UBEXPAUbitmap32@@II@Z 004936d0 f   u_qgatederived.obj
 0001:00092750       ?draw@decbot@@UBEXPAUbitmap32@@II@Z 00493750 f   u_qgatederived.obj
 0001:000927e0       ?draw@dectop@@UBEXPAUbitmap32@@II@Z 004937e0 f   u_qgatederived.obj
 0001:00092870       ?draw@fredkinbot@@UBEXPAUbitmap32@@II@Z 00493870 f   u_qgatederived.obj
 0001:00092970       ?draw@fredkinmid@@UBEXPAUbitmap32@@II@Z 00493970 f   u_qgatederived.obj
 0001:00092a70       ?draw@fredkintop@@UBEXPAUbitmap32@@II@Z 00493a70 f   u_qgatederived.obj
 0001:00092af0       ?draw@qgateg1over3@@UBEXPAUbitmap32@@II@Z 00493af0 f   u_qgatederived.obj
 0001:00092b60       ?draw@qgategm1over3@@UBEXPAUbitmap32@@II@Z 00493b60 f   u_qgatederived.obj
 0001:00092c00       ?draw@qgatehadamard@@UBEXPAUbitmap32@@II@Z 00493c00 f   u_qgatederived.obj
 0001:00092cc0       ?draw@qgatem0@@UBEXPAUbitmap32@@II@Z 00493cc0 f   u_qgatederived.obj
 0001:00092d80       ?draw@qgatem1@@UBEXPAUbitmap32@@II@Z 00493d80 f   u_qgatederived.obj
 0001:00092e40       ?draw@qgatemirror@@UBEXPAUbitmap32@@II@Z 00493e40 f   u_qgatederived.obj
 0001:00092f30       ?draw@qgatenot@@UBEXPAUbitmap32@@II@Z 00493f30 f   u_qgatederived.obj
 0001:00092fb0       ?draw@qgatep30@@UBEXPAUbitmap32@@II@Z 00493fb0 f   u_qgatederived.obj
 0001:00093020       ?draw@qgatep45@@UBEXPAUbitmap32@@II@Z 00494020 f   u_qgatederived.obj
 0001:00093090       ?draw@qgatepm30@@UBEXPAUbitmap32@@II@Z 00494090 f   u_qgatederived.obj
 0001:00093100       ?draw@qgatepm45@@UBEXPAUbitmap32@@II@Z 00494100 f   u_qgatederived.obj
 0001:00093170       ?draw@qgatepx@@UBEXPAUbitmap32@@II@Z 00494170 f   u_qgatederived.obj
 0001:00093230       ?draw@qgatepy@@UBEXPAUbitmap32@@II@Z 00494230 f   u_qgatederived.obj
 0001:000932f0       ?draw@qgatepz@@UBEXPAUbitmap32@@II@Z 004942f0 f   u_qgatederived.obj
 0001:000933b0       ?draw@qgates@@UBEXPAUbitmap32@@II@Z 004943b0 f   u_qgatederived.obj
 0001:00093470       ?draw@qgatesnotto@@UBEXPAUbitmap32@@II@Z 00494470 f   u_qgatederived.obj
 0001:00093520       ?draw@qgatesnotwp@@UBEXPAUbitmap32@@II@Z 00494520 f   u_qgatederived.obj
 0001:000935d0       ?draw@qgatesplitter@@UBEXPAUbitmap32@@II@Z 004945d0 f   u_qgatederived.obj
 0001:000936d0       ?draw@qgatest@@UBEXPAUbitmap32@@II@Z 004946d0 f   u_qgatederived.obj
 0001:00093790       ?draw@qgatet@@UBEXPAUbitmap32@@II@Z 00494790 f   u_qgatederived.obj
 0001:00093850       ?draw@qgatett@@UBEXPAUbitmap32@@II@Z 00494850 f   u_qgatederived.obj
 0001:00093910       ?draw@swapbot@@UBEXPAUbitmap32@@II@Z 00494910 f   u_qgatederived.obj
 0001:000939f0       ?draw@swaptop@@UBEXPAUbitmap32@@II@Z 004949f0 f   u_qgatederived.obj
 0001:00093ad0       ?draw@toffoli4c0@@UBEXPAUbitmap32@@II@Z 00494ad0 f   u_qgatederived.obj
 0001:00093ad0       ?draw@toffoli5c0@@UBEXPAUbitmap32@@II@Z 00494ad0 f   u_qgatederived.obj
 0001:00093b50       ?draw@toffoli4c1@@UBEXPAUbitmap32@@II@Z 00494b50 f   u_qgatederived.obj
 0001:00093bd0       ?draw@toffoli4c2@@UBEXPAUbitmap32@@II@Z 00494bd0 f   u_qgatederived.obj
 0001:00093c50       ?draw@toffoli4t@@UBEXPAUbitmap32@@II@Z 00494c50 f   u_qgatederived.obj
 0001:00093d20       ?draw@toffoli5c1@@UBEXPAUbitmap32@@II@Z 00494d20 f   u_qgatederived.obj
 0001:00093da0       ?draw@toffoli5c2@@UBEXPAUbitmap32@@II@Z 00494da0 f   u_qgatederived.obj
 0001:00093e20       ?draw@toffoli5c3@@UBEXPAUbitmap32@@II@Z 00494e20 f   u_qgatederived.obj
 0001:00093ea0       ?draw@toffoli5t@@UBEXPAUbitmap32@@II@Z 00494ea0 f   u_qgatederived.obj
 0001:00093f70       ?draw@toffoli6c0@@UBEXPAUbitmap32@@II@Z 00494f70 f   u_qgatederived.obj
 0001:00093ff0       ?draw@toffoli6c1@@UBEXPAUbitmap32@@II@Z 00494ff0 f   u_qgatederived.obj
 0001:00094070       ?draw@toffoli6c2@@UBEXPAUbitmap32@@II@Z 00495070 f   u_qgatederived.obj
 0001:000940f0       ?draw@toffoli6c3@@UBEXPAUbitmap32@@II@Z 004950f0 f   u_qgatederived.obj
 0001:00094170       ?draw@toffoli6c4@@UBEXPAUbitmap32@@II@Z 00495170 f   u_qgatederived.obj
 0001:000941f0       ?draw@toffoli6t@@UBEXPAUbitmap32@@II@Z 004951f0 f   u_qgatederived.obj
 0001:000942c0       ?draw@toffolibot@@UBEXPAUbitmap32@@II@Z 004952c0 f   u_qgatederived.obj
 0001:00094390       ?draw@toffolimid@@UBEXPAUbitmap32@@II@Z 00495390 f   u_qgatederived.obj
 0001:00094410       ?draw@toffolitop@@UBEXPAUbitmap32@@II@Z 00495410 f   u_qgatederived.obj
 0001:00094490       ?drawthinsnot@qgatesnotto@@ABEXPAUbitmap32@@II@Z 00495490 f   u_qgatederived.obj
 0001:000945f0       ?drawthinsnot@qgatesnotwp@@ABEXPAUbitmap32@@II@Z 004955f0 f   u_qgatederived.obj
 0001:00094750       ?getqmat@chtop@@UBE?AVqmat@qcomp@@XZ 00495750 f   u_qgatederived.obj
 0001:000947b0       ?getqmat@cnottop@@UBE?AVqmat@qcomp@@XZ 004957b0 f   u_qgatederived.obj
 0001:00094810       ?getqmat@cp30top@@UBE?AVqmat@qcomp@@XZ 00495810 f   u_qgatederived.obj
 0001:00094870       ?getqmat@cp45top@@UBE?AVqmat@qcomp@@XZ 00495870 f   u_qgatederived.obj
 0001:000948d0       ?getqmat@cpm30top@@UBE?AVqmat@qcomp@@XZ 004958d0 f   u_qgatederived.obj
 0001:00094930       ?getqmat@cpm45top@@UBE?AVqmat@qcomp@@XZ 00495930 f   u_qgatederived.obj
 0001:00094990       ?getqmat@cstop@@UBE?AVqmat@qcomp@@XZ 00495990 f   u_qgatederived.obj
 0001:000949f0       ?getqmat@csttop@@UBE?AVqmat@qcomp@@XZ 004959f0 f   u_qgatederived.obj
 0001:00094a50       ?getqmat@cttop@@UBE?AVqmat@qcomp@@XZ 00495a50 f   u_qgatederived.obj
 0001:00094ab0       ?getqmat@ctttop@@UBE?AVqmat@qcomp@@XZ 00495ab0 f   u_qgatederived.obj
 0001:00094b10       ?getqmat@cytop@@UBE?AVqmat@qcomp@@XZ 00495b10 f   u_qgatederived.obj
 0001:00094b70       ?getqmat@cztop@@UBE?AVqmat@qcomp@@XZ 00495b70 f   u_qgatederived.obj
 0001:00094bd0       ?getqmat@dectop@@UBE?AVqmat@qcomp@@XZ 00495bd0 f   u_qgatederived.obj
 0001:00094c30       ?getqmat@fredkintop@@UBE?AVqmat@qcomp@@XZ 00495c30 f   u_qgatederived.obj
 0001:00094c90       ?getqmat@qgateg1over3@@UBE?AVqmat@qcomp@@XZ 00495c90 f   u_qgatederived.obj
 0001:00094cf0       ?getqmat@qgategm1over3@@UBE?AVqmat@qcomp@@XZ 00495cf0 f   u_qgatederived.obj
 0001:00094d50       ?getqmat@qgatehadamard@@UBE?AVqmat@qcomp@@XZ 00495d50 f   u_qgatederived.obj
 0001:00094db0       ?getqmat@qgatem0@@UBE?AVqmat@qcomp@@XZ 00495db0 f   u_qgatederived.obj
 0001:00094e10       ?getqmat@qgatem1@@UBE?AVqmat@qcomp@@XZ 00495e10 f   u_qgatederived.obj
 0001:00094e70       ?getqmat@qgatemirror@@UBE?AVqmat@qcomp@@XZ 00495e70 f   u_qgatederived.obj
 0001:00094ed0       ?getqmat@qgatenot@@UBE?AVqmat@qcomp@@XZ 00495ed0 f   u_qgatederived.obj
 0001:00094ed0       ?getqmat@qgatepx@@UBE?AVqmat@qcomp@@XZ 00495ed0 f   u_qgatederived.obj
 0001:00094f30       ?getqmat@qgatep30@@UBE?AVqmat@qcomp@@XZ 00495f30 f   u_qgatederived.obj
 0001:00094f90       ?getqmat@qgatep45@@UBE?AVqmat@qcomp@@XZ 00495f90 f   u_qgatederived.obj
 0001:00094ff0       ?getqmat@qgatepm30@@UBE?AVqmat@qcomp@@XZ 00495ff0 f   u_qgatederived.obj
 0001:00095050       ?getqmat@qgatepm45@@UBE?AVqmat@qcomp@@XZ 00496050 f   u_qgatederived.obj
 0001:000950b0       ?getqmat@qgatepy@@UBE?AVqmat@qcomp@@XZ 004960b0 f   u_qgatederived.obj
 0001:00095110       ?getqmat@qgatepz@@UBE?AVqmat@qcomp@@XZ 00496110 f   u_qgatederived.obj
 0001:00095170       ?getqmat@qgates@@UBE?AVqmat@qcomp@@XZ 00496170 f   u_qgatederived.obj
 0001:000951d0       ?getqmat@qgatesnotto@@UBE?AVqmat@qcomp@@XZ 004961d0 f   u_qgatederived.obj
 0001:00095230       ?getqmat@qgatesnotwp@@UBE?AVqmat@qcomp@@XZ 00496230 f   u_qgatederived.obj
 0001:00095290       ?getqmat@qgatesplitter@@UBE?AVqmat@qcomp@@XZ 00496290 f   u_qgatederived.obj
 0001:000952f0       ?getqmat@qgatest@@UBE?AVqmat@qcomp@@XZ 004962f0 f   u_qgatederived.obj
 0001:00095350       ?getqmat@qgatet@@UBE?AVqmat@qcomp@@XZ 00496350 f   u_qgatederived.obj
 0001:000953b0       ?getqmat@qgatett@@UBE?AVqmat@qcomp@@XZ 004963b0 f   u_qgatederived.obj
 0001:00095410       ?getqmat@swaptop@@UBE?AVqmat@qcomp@@XZ 00496410 f   u_qgatederived.obj
 0001:00095470       ?getqmat@toffoli4c0@@UBE?AVqmat@qcomp@@XZ 00496470 f   u_qgatederived.obj
 0001:000954d0       ?getqmat@toffoli5c0@@UBE?AVqmat@qcomp@@XZ 004964d0 f   u_qgatederived.obj
 0001:00095530       ?getqmat@toffoli6c0@@UBE?AVqmat@qcomp@@XZ 00496530 f   u_qgatederived.obj
 0001:00095590       ?getqmat@toffolitop@@UBE?AVqmat@qcomp@@XZ 00496590 f   u_qgatederived.obj
 0001:000955f0       ??$_Resize@V<lambda_5463490cb29d46fb854e3f419a526979>@@@?$vector@V?$complex@M@std@@V?$allocator@V?$complex@M@std@@@2@@std@@AAEXIV<lambda_5463490cb29d46fb854e3f419a526979>@@@Z 004965f0 f i u_qmat.obj
 0001:00095730       ??$_Resize@V<lambda_740b50c36dc498c307fb35b8942ed580>@@@?$vector@V?$vector@V?$complex@M@std@@V?$allocator@V?$complex@M@std@@@2@@std@@V?$allocator@V?$vector@V?$complex@M@std@@V?$allocator@V?$complex@M@std@@@2@@std@@@2@@std@@AAEXIV<lambda_740b50c36dc498c307fb35b8942ed580>@@@Z 00496730 f i u_qmat.obj
 0001:000958f0       ??0qmat@qcomp@@QAE@H@Z     004968f0 f   u_qmat.obj
 0001:00095a20       ??1?$vector@V?$vector@V?$complex@M@std@@V?$allocator@V?$complex@M@std@@@2@@std@@V?$allocator@V?$vector@V?$complex@M@std@@V?$allocator@V?$complex@M@std@@@2@@std@@@2@@std@@QAE@XZ 00496a20 f i u_qmat.obj
 0001:00095a30       ??4qmat@qcomp@@QAE?AV01@ABV01@@Z 00496a30 f   u_qmat.obj
 0001:00095bd0       ??Dqmat@qcomp@@QBE?AV01@ABV01@@Z 00496bd0 f   u_qmat.obj
 0001:00095cd0       ??Dqmat@qcomp@@QBE?AVqstate@1@ABV21@@Z 00496cd0 f   u_qmat.obj
 0001:00095dc0       ??R<lambda_e7f7a5a142f7e876a90509edf3ad1e1e>@@QBEPAV?$vector@Vzee2@@V?$allocator@Vzee2@@@std@@@std@@PAV12@I@Z 00496dc0 f i engq:augmatz.obj
 0001:00095dc0       ??R<lambda_740b50c36dc498c307fb35b8942ed580>@@QBEPAV?$vector@V?$complex@M@std@@V?$allocator@V?$complex@M@std@@@2@@std@@PAV12@I@Z 00496dc0 f i u_qmat.obj
 0001:00095e00       ??Tqmat@qcomp@@QBE?AV01@ABV01@@Z 00496e00 f   u_qmat.obj
 0001:00095f50       ?S@qmat@qcomp@@QAEXXZ      00496f50 f   u_qmat.obj
 0001:00095f60       ?St@qmat@qcomp@@QAEXXZ     00496f60 f   u_qmat.obj
 0001:00095f70       ?T@qmat@qcomp@@QAEXXZ      00496f70 f   u_qmat.obj
 0001:00095fe0       ?Tt@qmat@qcomp@@QAEXXZ     00496fe0 f   u_qmat.obj
 0001:00096060       ?ch@qmat@qcomp@@QAEXXZ     00497060 f   u_qmat.obj
 0001:000960f0       ?clear@qmat@qcomp@@QAEXXZ  004970f0 f   u_qmat.obj
 0001:00096160       ?cnot@qmat@qcomp@@QAEXXZ   00497160 f   u_qmat.obj
 0001:00096170       ?cp30@qmat@qcomp@@QAEXXZ   00497170 f   u_qmat.obj
 0001:000961e0       ?cp45@qmat@qcomp@@QAEXXZ   004971e0 f   u_qmat.obj
 0001:00096260       ?cpm30@qmat@qcomp@@QAEXXZ  00497260 f   u_qmat.obj
 0001:000962d0       ?cpm45@qmat@qcomp@@QAEXXZ  004972d0 f   u_qmat.obj
 0001:00096360       ?cs@qmat@qcomp@@QAEXXZ     00497360 f   u_qmat.obj
 0001:00096370       ?cst@qmat@qcomp@@QAEXXZ    00497370 f   u_qmat.obj
 0001:00096380       ?ct@qmat@qcomp@@QAEXXZ     00497380 f   u_qmat.obj
 0001:000963f0       ?ctt@qmat@qcomp@@QAEXXZ    004973f0 f   u_qmat.obj
 0001:00096470       ?cy@qmat@qcomp@@QAEXXZ     00497470 f   u_qmat.obj
 0001:00096480       ?cz@qmat@qcomp@@QAEXXZ     00497480 f   u_qmat.obj
 0001:00096490       ?dec@qmat@qcomp@@QAEXXZ    00497490 f   u_qmat.obj
 0001:000964a0       ?det@qmat@qcomp@@QBE?AV?$complex@M@std@@XZ 004974a0 f   u_qmat.obj
 0001:00096540       ?fredkin3@qmat@qcomp@@QAEXXZ 00497540 f   u_qmat.obj
 0001:00096550       ?g1over3@qmat@qcomp@@QAEXXZ 00497550 f   u_qmat.obj
 0001:000965e0       ?gm1over3@qmat@qcomp@@QAEXXZ 004975e0 f   u_qmat.obj
 0001:00096670       ?hadamard@qmat@qcomp@@QAEXXZ 00497670 f   u_qmat.obj
 0001:00096700       ?ident1@qmat@qcomp@@QAEXXZ 00497700 f   u_qmat.obj
 0001:00096710       ?load@qmat@qcomp@@QAEXPBV?$complex@M@std@@I@Z 00497710 f   u_qmat.obj
 0001:000967e0       ?m0@qmat@qcomp@@QAEXXZ     004977e0 f   u_qmat.obj
 0001:000967f0       ?m1@qmat@qcomp@@QAEXXZ     004977f0 f   u_qmat.obj
 0001:00096800       ?mirror@qmat@qcomp@@QAEXXZ 00497800 f   u_qmat.obj
 0001:00096810       ?pauliX@qmat@qcomp@@QAEXXZ 00497810 f   u_qmat.obj
 0001:00096810       ?not1@qmat@qcomp@@QAEXXZ   00497810 f   u_qmat.obj
 0001:00096820       ?p30@qmat@qcomp@@QAEXXZ    00497820 f   u_qmat.obj
 0001:00096890       ?p45@qmat@qcomp@@QAEXXZ    00497890 f   u_qmat.obj
 0001:00096910       ?pauliY@qmat@qcomp@@QAEXXZ 00497910 f   u_qmat.obj
 0001:00096920       ?pauliZ@qmat@qcomp@@QAEXXZ 00497920 f   u_qmat.obj
 0001:00096930       ?pm30@qmat@qcomp@@QAEXXZ   00497930 f   u_qmat.obj
 0001:000969a0       ?pm45@qmat@qcomp@@QAEXXZ   004979a0 f   u_qmat.obj
 0001:00096a30       ?print@qmat@qcomp@@QBEXV?$basic_string@DU?$char_traits@D@std@@V?$allocator@D@2@@std@@_NPAUcon32@@@Z 00497a30 f   u_qmat.obj
 0001:00096e30       ?qmatqu@qmat@qcomp@@SA?AV12@H@Z 00497e30 f   u_qmat.obj
 0001:00096e60       ?snotto@qmat@qcomp@@QAEXXZ 00497e60 f   u_qmat.obj
 0001:00097110       ?snotwp@qmat@qcomp@@QAEXXZ 00498110 f   u_qmat.obj
 0001:00097120       ?splitter@qmat@qcomp@@QAEXXZ 00498120 f   u_qmat.obj
 0001:000971a0       ?swap@qmat@qcomp@@QAEXXZ   004981a0 f   u_qmat.obj
 0001:000971b0       ?swapqubits@qmat@qcomp@@QAEXABV?$vector@IV?$allocator@I@std@@@std@@@Z 004981b0 f   u_qmat.obj
 0001:00097440       ?swapqubits@qmat@qcomp@@QAEXII@Z 00498440 f   u_qmat.obj
 0001:00097500       ?swapqubits@qmat@qcomp@@QAEXIII@Z 00498500 f   u_qmat.obj
 0001:000975f0       ?toffoli@qmat@qcomp@@QAEXI@Z 004985f0 f   u_qmat.obj
 0001:000976b0       ??$_Destroy_range@V?$allocator@V?$vector@EV?$allocator@E@std@@@std@@@std@@@std@@YAXPAV?$vector@EV?$allocator@E@std@@@0@0AAV?$allocator@V?$vector@EV?$allocator@E@std@@@std@@@0@@Z 004986b0 f i u_qr_code2parse.obj
 0001:00097720       ??0?$vector@V?$vector@EV?$allocator@E@std@@@std@@V?$allocator@V?$vector@EV?$allocator@E@std@@@std@@@2@@std@@QAE@ABV01@@Z 00498720 f i u_qr_code2parse.obj
 0001:00097850       ??1?$_Uninitialized_backout_al@PAV?$vector@EV?$allocator@E@std@@@std@@V?$allocator@V?$vector@EV?$allocator@E@std@@@std@@@2@@std@@QAE@XZ 00498850 f i u_qr_code2parse.obj
 0001:00097870       ??1?$vector@V?$vector@EV?$allocator@E@std@@@std@@V?$allocator@V?$vector@EV?$allocator@E@std@@@std@@@2@@std@@QAE@XZ 00498870 f i u_qr_code2parse.obj
 0001:00097880       ?_Tidy@?$vector@V?$vector@EV?$allocator@E@std@@@std@@V?$allocator@V?$vector@EV?$allocator@E@std@@@std@@@2@@std@@AAEXXZ 00498880 f i u_qr_code2parse.obj
 0001:00098af0       ?readqrcode@@YA?AV?$vector@EV?$allocator@E@std@@@std@@ABV?$basic_string@DU?$char_traits@D@std@@V?$allocator@D@2@@2@PBUbitmap32@@PAPAU4@@Z 00499af0 f   u_qr_code2parse.obj
 0001:00098c10       ??$_Destroy_range@V?$allocator@V?$vector@_NV?$allocator@_N@std@@@std@@@std@@@std@@YAXPAV?$vector@_NV?$allocator@_N@std@@@0@0AAV?$allocator@V?$vector@_NV?$allocator@_N@std@@@std@@@0@@Z 00499c10 f i u_qr_code2scan.obj
 0001:00098c80       ??$_Emplace_reallocate@ABUsquarei@@@?$vector@Usquarei@@V?$allocator@Usquarei@@@std@@@std@@QAEPAUsquarei@@QAU2@ABU2@@Z 00499c80 f i u_qr_code2scan.obj
 0001:00098c80       ??$_Emplace_reallocate@ABUtile@penrose@@@?$vector@Utile@penrose@@V?$allocator@Utile@penrose@@@std@@@std@@QAEPAUtile@penrose@@QAU23@ABU23@@Z 00499c80 f i u_s_penrose.obj
 0001:00098df0       ??$_Emplace_reallocate@ABV?$vector@Usquarei@@V?$allocator@Usquarei@@@std@@@std@@@?$vector@V?$vector@Usquarei@@V?$allocator@Usquarei@@@std@@@std@@V?$allocator@V?$vector@Usquarei@@V?$allocator@Usquarei@@@std@@@std@@@2@@std@@QAEPAV?$vector@Usquarei@@V?$allocator@Usquarei@@@std@@@1@QAV21@ABV21@@Z 00499df0 f i u_qr_code2scan.obj
 0001:00099000       ??$_Fill_unchecked@PAV?$vector@EV?$allocator@E@std@@@std@@V12@@std@@YAXPAV?$vector@EV?$allocator@E@std@@@0@0ABV10@@Z 0049a000 f i u_qr_code2scan.obj
 0001:00099120       ??$_Insertion_sort_unchecked@PAV?$vector@Usquarei@@V?$allocator@Usquarei@@@std@@@std@@P6A_NABV12@0@Z@std@@YAPAV?$vector@Usquarei@@V?$allocator@Usquarei@@@std@@@0@PAV10@QAV10@P6A_NABV10@2@Z@Z 0049a120 f i u_qr_code2scan.obj
 0001:000992e0       ??$_Med3_unchecked@PAV?$vector@Usquarei@@V?$allocator@Usquarei@@@std@@@std@@P6A_NABV12@0@Z@std@@YAXPAV?$vector@Usquarei@@V?$allocator@Usquarei@@@std@@@0@00P6A_NABV10@1@Z@Z 0049a2e0 f i u_qr_code2scan.obj
 0001:00099390       ??$_Partition_by_median_guess_unchecked@PAUpointi2@@P6A_NABU1@0@Z@std@@YA?AU?$pair@PAUpointi2@@PAU1@@0@PAUpointi2@@0P6A_NABU2@1@Z@Z 0049a390 f i u_qr_code2scan.obj
 0001:00099610       ??$_Partition_by_median_guess_unchecked@PAV?$vector@Usquarei@@V?$allocator@Usquarei@@@std@@@std@@P6A_NABV12@0@Z@std@@YA?AU?$pair@PAV?$vector@Usquarei@@V?$allocator@Usquarei@@@std@@@std@@PAV12@@0@PAV?$vector@Usquarei@@V?$allocator@Usquarei@@@std@@@0@0P6A_NABV20@1@Z@Z 0049a610 f i u_qr_code2scan.obj
 0001:00099910       ??$_Pop_heap_hole_by_index@PAV?$vector@Usquarei@@V?$allocator@Usquarei@@@std@@@std@@V12@P6A_NABV12@0@Z@std@@YAXPAV?$vector@Usquarei@@V?$allocator@Usquarei@@@std@@@0@HH$$QAV10@P6A_NABV10@2@Z@Z 0049a910 f i u_qr_code2scan.obj
 0001:00099aa0       ??$_Sort_unchecked@PAUpointi2@@P6A_NABU1@0@Z@std@@YAXPAUpointi2@@0HP6A_NABU1@1@Z@Z 0049aaa0 f i u_qr_code2scan.obj
 0001:00099d50       ??$_Sort_unchecked@PAV?$vector@Usquarei@@V?$allocator@Usquarei@@@std@@@std@@P6A_NABV12@0@Z@std@@YAXPAV?$vector@Usquarei@@V?$allocator@Usquarei@@@std@@@0@0HP6A_NABV10@1@Z@Z 0049ad50 f i u_qr_code2scan.obj
 0001:00099fe0       ??0?$vector@Uptile@jelly@@V?$allocator@Uptile@jelly@@@std@@@std@@QAE@ABV01@@Z 0049afe0 f i u_s_jelly.obj
 0001:00099fe0       ??0?$vector@Utile@penrose@@V?$allocator@Utile@penrose@@@std@@@std@@QAE@ABV01@@Z 0049afe0 f i u_s_penrose.obj
 0001:00099fe0       ??0?$vector@Usquarei@@V?$allocator@Usquarei@@@std@@@std@@QAE@ABV01@@Z 0049afe0 f i u_qr_code2scan.obj
 0001:0009a060       ??0?$vector@V?$vector@HV?$allocator@H@std@@@std@@V?$allocator@V?$vector@HV?$allocator@H@std@@@std@@@2@@std@@QAE@IABV?$allocator@V?$vector@HV?$allocator@H@std@@@std@@@1@@Z 0049b060 f i u_qr_code2scan.obj
 0001:0009a130       ??0?$vector@V?$vector@_NV?$allocator@_N@std@@@std@@V?$allocator@V?$vector@_NV?$allocator@_N@std@@@std@@@2@@std@@QAE@IABV?$allocator@V?$vector@_NV?$allocator@_N@std@@@std@@@1@@Z 0049b130 f i u_qr_code2scan.obj
 0001:0009a210       ??1?$vector@Usquarei@@V?$allocator@Usquarei@@@std@@@std@@QAE@XZ 0049b210 f i u_qr_code2scan.obj
 0001:0009a210       ??1?$vector@UVC3@@V?$allocator@UVC3@@@std@@@std@@QAE@XZ 0049b210 f i engq:m_chunk.obj
 0001:0009a210       ??1?$vector@Utile@penrose@@V?$allocator@Utile@penrose@@@std@@@std@@QAE@XZ 0049b210 f i u_s_penrose.obj
 0001:0009a210       ??1?$vector@UIDX3@@V?$allocator@UIDX3@@@std@@@std@@QAE@XZ 0049b210 f i engq:m_chunk.obj
 0001:0009a210       ??1?$vector@Uptile@jelly@@V?$allocator@Uptile@jelly@@@std@@@std@@QAE@XZ 0049b210 f i u_s_jelly.obj
 0001:0009a220       ??1?$vector@V?$vector@Usquarei@@V?$allocator@Usquarei@@@std@@@std@@V?$allocator@V?$vector@Usquarei@@V?$allocator@Usquarei@@@std@@@std@@@2@@std@@QAE@XZ 0049b220 f i u_qr_code2scan.obj
 0001:0009a2a0       ??1?$vector@V?$vector@_NV?$allocator@_N@std@@@std@@V?$allocator@V?$vector@_NV?$allocator@_N@std@@@std@@@2@@std@@QAE@XZ 0049b2a0 f i u_qr_code2scan.obj
 0001:0009a2b0       ??1equiv@@QAE@XZ           0049b2b0 f i u_qr_code2scan.obj
 0001:0009a2c0       ?_Buy@?$vector@EV?$allocator@E@std@@@std@@AAE_NI@Z 0049b2c0 f i u_qr_code2scan.obj
 0001:0009a360       ?_Destroy@?$vector@V?$vector@Usquarei@@V?$allocator@Usquarei@@@std@@@std@@V?$allocator@V?$vector@Usquarei@@V?$allocator@Usquarei@@@std@@@std@@@2@@std@@AAEXPAV?$vector@Usquarei@@V?$allocator@Usquarei@@@std@@@2@0@Z 0049b360 f i u_qr_code2scan.obj
 0001:0009a390       ?_Tidy@?$vector@V?$vector@_NV?$allocator@_N@std@@@std@@V?$allocator@V?$vector@_NV?$allocator@_N@std@@@std@@@2@@std@@AAEXXZ 0049b390 f i u_qr_code2scan.obj
 0001:0009a3f0       ?_Ufill@?$vector@V?$vector@EV?$allocator@E@std@@@std@@V?$allocator@V?$vector@EV?$allocator@E@std@@@std@@@2@@std@@AAEPAV?$vector@EV?$allocator@E@std@@@2@PAV32@IABV32@@Z 0049b3f0 f i u_qr_code2scan.obj
 0001:0009a470       ?addsi@equiv@@QAEXABUsquarei@@@Z 0049b470 f   u_qr_code2scan.obj
 0001:0009a650       ?assign@?$vector@V?$vector@EV?$allocator@E@std@@@std@@V?$allocator@V?$vector@EV?$allocator@E@std@@@std@@@2@@std@@QAEXIABV?$vector@EV?$allocator@E@std@@@2@@Z 0049b650 f i u_qr_code2scan.obj
 0001:0009a7e0       ?doqrscan@@YA?AV?$vector@V?$vector@EV?$allocator@E@std@@@std@@V?$allocator@V?$vector@EV?$allocator@E@std@@@std@@@2@@std@@PAUbitmap32@@@Z 0049b7e0 f   u_qr_code2scan.obj
 0001:0009c0f0       ?gettargets@equiv@@QAE?AV?$vector@Upointi2@@V?$allocator@Upointi2@@@std@@@std@@XZ 0049d0f0 f   u_qr_code2scan.obj
 0001:0009c410       ?pred@@YA_NABV?$vector@Usquarei@@V?$allocator@Usquarei@@@std@@@std@@0@Z 0049d410 f   u_qr_code2scan.obj
 0001:0009c450       ?predp@@YA_NABUpointi2@@0@Z 0049d450 f   u_qr_code2scan.obj
 0001:0009c470       ??$_Emplace_reallocate@ABV?$vector@Upointi2@@V?$allocator@Upointi2@@@std@@@std@@@?$vector@V?$vector@Upointi2@@V?$allocator@Upointi2@@@std@@@std@@V?$allocator@V?$vector@Upointi2@@V?$allocator@Upointi2@@@std@@@std@@@2@@std@@QAEPAV?$vector@Upointi2@@V?$allocator@Upointi2@@@std@@@1@QAV21@ABV21@@Z 0049d470 f i u_qr_code_layout_v2.obj
 0001:0009c670       ??0?$vector@Upointi2@@V?$allocator@Upointi2@@@std@@@std@@QAE@ABV01@@Z 0049d670 f i u_qr_code_layout_v2.obj
 0001:0009c6d0       ??0?$vector@Upointi2@@V?$allocator@Upointi2@@@std@@@std@@QAE@IABV?$allocator@Upointi2@@@1@@Z 0049d6d0 f i u_qr_code_layout_v2.obj
 0001:0009c730       ?_Buy@?$vector@Upointi2@@V?$allocator@Upointi2@@@std@@@std@@AAE_NI@Z 0049d730 f i u_qr_code_layout_v2.obj
 0001:0009c7f0       ?buildlayout@@YAXH@Z       0049d7f0 f   u_qr_code_layout_v2.obj
 0001:0009cdc0       ??$?KM@std@@YA?AV?$complex@M@0@ABV10@0@Z 0049ddc0 f i u_qstate.obj
 0001:0009cf80       ??$_Assign_range@PBV?$complex@M@std@@@?$vector@V?$complex@M@std@@V?$allocator@V?$complex@M@std@@@2@@std@@AAEXPBV?$complex@M@1@0Uforward_iterator_tag@1@@Z 0049df80 f i u_qstate.obj
 0001:0009d0e0       ??$_Destroy_range@V?$allocator@Vqstate@qcomp@@@std@@@std@@YAXPAVqstate@qcomp@@0AAV?$allocator@Vqstate@qcomp@@@0@@Z 0049e0e0 f i u_qstate.obj
 0001:0009d150       ??$_Emplace_reallocate@ABVqstate@qcomp@@@?$vector@Vqstate@qcomp@@V?$allocator@Vqstate@qcomp@@@std@@@std@@QAEPAVqstate@qcomp@@QAV23@ABV23@@Z 0049e150 f i u_qstate.obj
 0001:0009d3b0       ??0?$vector@Vqstate@qcomp@@V?$allocator@Vqstate@qcomp@@@std@@@std@@QAE@IABV?$allocator@Vqstate@qcomp@@@1@@Z 0049e3b0 f i u_qstate.obj
 0001:0009d450       ??0qstate@qcomp@@QAE@I@Z   0049e450 f   u_qstate.obj
 0001:0009d4c0       ??0qstate@qcomp@@QAE@XZ    0049e4c0 f   u_qstate.obj
 0001:0009d4f0       ??1?$_Uninitialized_backout_al@PAVqstate@qcomp@@V?$allocator@Vqstate@qcomp@@@std@@@std@@QAE@XZ 0049e4f0 f i u_qstate.obj
 0001:0009d510       ??1?$vector@Vqstate@qcomp@@V?$allocator@Vqstate@qcomp@@@std@@@std@@QAE@XZ 0049e510 f i u_qstate.obj
 0001:0009d520       ??4qstate@qcomp@@QAE?AV01@ABV01@@Z 0049e520 f   u_qstate.obj
 0001:0009d5b0       ?_Destroy@?$vector@Vqstate@qcomp@@V?$allocator@Vqstate@qcomp@@@std@@@std@@AAEXPAVqstate@qcomp@@0@Z 0049e5b0 f i u_qstate.obj
 0001:0009d5d0       ?_Tidy@?$vector@Vqstate@qcomp@@V?$allocator@Vqstate@qcomp@@@std@@@std@@AAEXXZ 0049e5d0 f i u_qstate.obj
 0001:0009d650       ?_Umove@?$vector@Vqstate@qcomp@@V?$allocator@Vqstate@qcomp@@@std@@@std@@AAEPAVqstate@qcomp@@PAV34@00@Z 0049e650 f i u_qstate.obj
 0001:0009d700       ?allocate@?$allocator@Vqstate@qcomp@@@std@@QAEPAVqstate@qcomp@@I@Z 0049e700 f i u_qstate.obj
 0001:0009d770       ?deallocate@?$allocator@Vqstate@qcomp@@@std@@QAEXQAVqstate@qcomp@@I@Z 0049e770 f i u_qstate.obj
 0001:0009d7b0       ?factor@qstate@qcomp@@QAE?AV?$vector@Vqstate@qcomp@@V?$allocator@Vqstate@qcomp@@@std@@@std@@XZ 0049e7b0 f   u_qstate.obj
 0001:0009dc10       ?getprob@qcomp@@YAMABV?$complex@M@std@@@Z 0049ec10 f   u_qstate.obj
 0001:0009dc10       ?len2dsq@@YAMPBUpointf2@@@Z 0049ec10 f   engq:m_numath.obj
 0001:0009dc40       ?gettotprob@qstate@qcomp@@QAEMXZ 0049ec40 f   u_qstate.obj
 0001:0009dd40       ?idxtobinstring@qstate@qcomp@@SA?AV?$basic_string@DU?$char_traits@D@std@@V?$allocator@D@2@@std@@II@Z 0049ed40 f   u_qstate.obj
 0001:0009df50       ?init0@qstate@qcomp@@QAEXXZ 0049ef50 f   u_qstate.obj
 0001:0009dfa0       ?itos@qstate@qcomp@@SA?AV?$basic_string@DU?$char_traits@D@std@@V?$allocator@D@2@@std@@I@Z 0049efa0 f   u_qstate.obj
 0001:0009e100       ?load@qstate@qcomp@@QAEXPBV?$complex@M@std@@I@Z 0049f100 f   u_qstate.obj
 0001:0009e150       ?measure1@qstate@qcomp@@QBE?AV?$vector@Vqstate@qcomp@@V?$allocator@Vqstate@qcomp@@@std@@@std@@IAAM@Z 0049f150 f   u_qstate.obj
 0001:0009e530       ?measureall@qstate@qcomp@@QBE?AV?$vector@MV?$allocator@M@std@@@std@@XZ 0049f530 f   u_qstate.obj
 0001:0009e720       ?normalize@qstate@qcomp@@QAEXXZ 0049f720 f   u_qstate.obj
 0001:0009e860       ?print@qstate@qcomp@@QBEXV?$basic_string@DU?$char_traits@D@std@@V?$allocator@D@2@@std@@_NPAUcon32@@H@Z 0049f860 f   u_qstate.obj
 0001:0009ef10       ?printfactors@qcomp@@YAXABV?$vector@Vqstate@qcomp@@V?$allocator@Vqstate@qcomp@@@std@@@std@@ABV?$basic_string@DU?$char_traits@D@std@@V?$allocator@D@2@@3@PAUcon32@@@Z 0049ff10 f   u_qstate.obj
 0001:0009f180       ?push_back@?$vector@Vqstate@qcomp@@V?$allocator@Vqstate@qcomp@@@std@@@std@@QAEXABVqstate@qcomp@@@Z 004a0180 f i u_qstate.obj
 0001:0009f220       ?qstateToBloch@qstate@qcomp@@QBE?AUpointf3@@XZ 004a0220 f   u_qstate.obj
 0001:0009f390       ?smallfloat@qcomp@@YAXPADM@Z 004a0390 f   u_qstate.obj
 0001:0009f430       ?stdphase@qstate@qcomp@@QAEXXZ 004a0430 f   u_qstate.obj
 0001:0009f500       ??$_Buynode@ABV?$basic_string@DU?$char_traits@D@std@@V?$allocator@D@2@@std@@@?$_List_buy@V?$basic_string@DU?$char_traits@D@std@@V?$allocator@D@2@@std@@V?$allocator@V?$basic_string@DU?$char_traits@D@std@@V?$allocator@D@2@@std@@@2@@std@@QAEPAU?$_List_node@V?$basic_string@DU?$char_traits@D@std@@V?$allocator@D@2@@std@@PAX@1@PAU21@0ABV?$basic_string@DU?$char_traits@D@std@@V?$allocator@D@2@@1@@Z 004a0500 f i u_searcher_mandle_thread.obj
 0001:0009f580       ??$_Buynode@ABV?$basic_string@DU?$char_traits@D@std@@V?$allocator@D@2@@std@@@?$_Tree_comp_alloc@V?$_Tset_traits@V?$basic_string@DU?$char_traits@D@std@@V?$allocator@D@2@@std@@U?$less@V?$basic_string@DU?$char_traits@D@std@@V?$allocator@D@2@@std@@@2@V?$allocator@V?$basic_string@DU?$char_traits@D@std@@V?$allocator@D@2@@std@@@2@$0A@@std@@@std@@QAEPAU?$_Tree_node@V?$basic_string@DU?$char_traits@D@std@@V?$allocator@D@2@@std@@PAX@1@ABV?$basic_string@DU?$char_traits@D@std@@V?$allocator@D@2@@1@@Z 004a0580 f i u_searcher_mandle_thread.obj
 0001:0009f5f0       ??$_Insert_at@ABV?$basic_string@DU?$char_traits@D@std@@V?$allocator@D@2@@std@@U_Not_a_node_tag@2@@?$_Tree@V?$_Tset_traits@V?$basic_string@DU?$char_traits@D@std@@V?$allocator@D@2@@std@@U?$less@V?$basic_string@DU?$char_traits@D@std@@V?$allocator@D@2@@std@@@2@V?$allocator@V?$basic_string@DU?$char_traits@D@std@@V?$allocator@D@2@@std@@@2@$0A@@std@@@std@@IAE?AV?$_Tree_const_iterator@V?$_Tree_val@U?$_Tree_simple_types@V?$basic_string@DU?$char_traits@D@std@@V?$allocator@D@2@@std@@@std@@@std@@@1@_NPAU?$_Tree_node@V?$basic_string@DU?$char_traits@D@std@@V?$allocator@D@2@@std@@PAX@1@ABV?$basic_string@DU?$char_traits@D@std@@V?$allocator@D@2@@1@U_Not_a_node_tag@1@@Z 004a05f0 f i u_searcher_mandle_thread.obj
 0001:0009f750       ??$_Insert_nohint@ABV?$basic_string@DU?$char_traits@D@std@@V?$allocator@D@2@@std@@U_Not_a_node_tag@2@@?$_Tree@V?$_Tset_traits@V?$basic_string@DU?$char_traits@D@std@@V?$allocator@D@2@@std@@U?$less@V?$basic_string@DU?$char_traits@D@std@@V?$allocator@D@2@@std@@@2@V?$allocator@V?$basic_string@DU?$char_traits@D@std@@V?$allocator@D@2@@std@@@2@$0A@@std@@@std@@IAE?AU?$pair@V?$_Tree_const_iterator@V?$_Tree_val@U?$_Tree_simple_types@V?$basic_string@DU?$char_traits@D@std@@V?$allocator@D@2@@std@@@std@@@std@@@std@@_N@1@_NABV?$basic_string@DU?$char_traits@D@std@@V?$allocator@D@2@@1@U_Not_a_node_tag@1@@Z 004a0750 f i u_searcher_mandle_thread.obj
 0001:0009f910       ?_Buyheadnode@?$_Tree_comp_alloc@V?$_Tset_traits@V?$basic_string@DU?$char_traits@D@std@@V?$allocator@D@2@@std@@U?$less@V?$basic_string@DU?$char_traits@D@std@@V?$allocator@D@2@@std@@@2@V?$allocator@V?$basic_string@DU?$char_traits@D@std@@V?$allocator@D@2@@std@@@2@$0A@@std@@@std@@QAEPAU?$_Tree_node@V?$basic_string@DU?$char_traits@D@std@@V?$allocator@D@2@@std@@PAX@2@XZ 004a0910 f i u_searcher_mandle_thread.obj
 0001:0009f930       ?_Buynode0@?$_List_alloc@U?$_List_base_types@V?$basic_string@DU?$char_traits@D@std@@V?$allocator@D@2@@std@@V?$allocator@V?$basic_string@DU?$char_traits@D@std@@V?$allocator@D@2@@std@@@2@@std@@@std@@QAEPAU?$_List_node@V?$basic_string@DU?$char_traits@D@std@@V?$allocator@D@2@@std@@PAX@2@PAU32@0@Z 004a0930 f i u_searcher_mandle_thread.obj
 0001:0009f960       ?_Buynode0@?$_Tree_comp_alloc@V?$_Tset_traits@V?$basic_string@DU?$char_traits@D@std@@V?$allocator@D@2@@std@@U?$less@V?$basic_string@DU?$char_traits@D@std@@V?$allocator@D@2@@std@@@2@V?$allocator@V?$basic_string@DU?$char_traits@D@std@@V?$allocator@D@2@@std@@@2@$0A@@std@@@std@@QAEPAU?$_Tree_node@V?$basic_string@DU?$char_traits@D@std@@V?$allocator@D@2@@std@@PAX@2@XZ 004a0960 f i u_searcher_mandle_thread.obj
 0001:0009f980       ?_Erase@?$_Tree@V?$_Tset_traits@V?$basic_string@DU?$char_traits@D@std@@V?$allocator@D@2@@std@@U?$less@V?$basic_string@DU?$char_traits@D@std@@V?$allocator@D@2@@std@@@2@V?$allocator@V?$basic_string@DU?$char_traits@D@std@@V?$allocator@D@2@@std@@@2@$0A@@std@@@std@@IAEXPAU?$_Tree_node@V?$basic_string@DU?$char_traits@D@std@@V?$allocator@D@2@@std@@PAX@2@@Z 004a0980 f i u_searcher_mandle_thread.obj
 0001:0009fa10       ?_Freenode0@?$_Tree_comp_alloc@V?$_Tset_traits@V?$basic_string@DU?$char_traits@D@std@@V?$allocator@D@2@@std@@U?$less@V?$basic_string@DU?$char_traits@D@std@@V?$allocator@D@2@@std@@@2@V?$allocator@V?$basic_string@DU?$char_traits@D@std@@V?$allocator@D@2@@std@@@2@$0A@@std@@@std@@QAEXPAU?$_Tree_node@V?$basic_string@DU?$char_traits@D@std@@V?$allocator@D@2@@std@@PAX@2@@Z 004a0a10 f i u_searcher_mandle_thread.obj
 0001:0009fa30       ?_Freenode@?$_List_buy@V?$basic_string@DU?$char_traits@D@std@@V?$allocator@D@2@@std@@V?$allocator@V?$basic_string@DU?$char_traits@D@std@@V?$allocator@D@2@@std@@@2@@std@@QAEXPAU?$_List_node@V?$basic_string@DU?$char_traits@D@std@@V?$allocator@D@2@@std@@PAX@2@@Z 004a0a30 f i u_searcher_mandle_thread.obj
 0001:0009fa90       ?addtask@u_s_searcher@@YAXV?$basic_string@DU?$char_traits@D@std@@V?$allocator@D@2@@std@@@Z 004a0a90 f   u_searcher_mandle_thread.obj
 0001:0009fbc0       ?clear@?$list@V?$basic_string@DU?$char_traits@D@std@@V?$allocator@D@2@@std@@V?$allocator@V?$basic_string@DU?$char_traits@D@std@@V?$allocator@D@2@@std@@@2@@std@@QAEXXZ 004a0bc0 f i u_searcher_mandle_thread.obj
 0001:0009fc40       ?deallocate@?$allocator@Ushadeslot@d2_dx9@@@std@@QAEXQAUshadeslot@d2_dx9@@I@Z 004a0c40 f i engq:d2_dx9effectshaders.obj
 0001:0009fc40       ?deallocate@?$allocator@U?$_List_node@V?$basic_string@DU?$char_traits@D@std@@V?$allocator@D@2@@std@@PAX@std@@@std@@QAEXQAU?$_List_node@V?$basic_string@DU?$char_traits@D@std@@V?$allocator@D@2@@std@@PAX@2@I@Z 004a0c40 f i u_searcher_mandle_thread.obj
 0001:0009fc80       ?erase@?$_Tree@V?$_Tset_traits@V?$basic_string@DU?$char_traits@D@std@@V?$allocator@D@2@@std@@U?$less@V?$basic_string@DU?$char_traits@D@std@@V?$allocator@D@2@@std@@@2@V?$allocator@V?$basic_string@DU?$char_traits@D@std@@V?$allocator@D@2@@std@@@2@$0A@@std@@@std@@QAE?AV?$_Tree_const_iterator@V?$_Tree_val@U?$_Tree_simple_types@V?$basic_string@DU?$char_traits@D@std@@V?$allocator@D@2@@std@@@std@@@std@@@2@V32@0@Z 004a0c80 f i u_searcher_mandle_thread.obj
 0001:0009fd90       ?erase@?$_Tree@V?$_Tset_traits@V?$basic_string@DU?$char_traits@D@std@@V?$allocator@D@2@@std@@U?$less@V?$basic_string@DU?$char_traits@D@std@@V?$allocator@D@2@@std@@@2@V?$allocator@V?$basic_string@DU?$char_traits@D@std@@V?$allocator@D@2@@std@@@2@$0A@@std@@@std@@QAEIABV?$basic_string@DU?$char_traits@D@std@@V?$allocator@D@2@@2@@Z 004a0d90 f i u_searcher_mandle_thread.obj
 0001:0009fef0       ?find@?$_Tree@V?$_Tset_traits@V?$basic_string@DU?$char_traits@D@std@@V?$allocator@D@2@@std@@U?$less@V?$basic_string@DU?$char_traits@D@std@@V?$allocator@D@2@@std@@@2@V?$allocator@V?$basic_string@DU?$char_traits@D@std@@V?$allocator@D@2@@std@@@2@$0A@@std@@@std@@QAE?AV?$_Tree_const_iterator@V?$_Tree_val@U?$_Tree_simple_types@V?$basic_string@DU?$char_traits@D@std@@V?$allocator@D@2@@std@@@std@@@std@@@2@ABV?$basic_string@DU?$char_traits@D@std@@V?$allocator@D@2@@2@@Z 004a0ef0 f i u_searcher_mandle_thread.obj
 0001:0009ffa0       ?printstatus@u_s_searcher@@YAXXZ 004a0fa0 f   u_searcher_mandle_thread.obj
 0001:000a0060       ?resettask@u_s_searcher@@YAXV?$basic_string@DU?$char_traits@D@std@@V?$allocator@D@2@@std@@@Z 004a1060 f   u_searcher_mandle_thread.obj
 0001:000a0110       ?threadexit@u_s_searcher@@YAXXZ 004a1110 f   u_searcher_mandle_thread.obj
 0001:000a0190       ?threadinit@u_s_searcher@@YAXXZ 004a1190 f   u_searcher_mandle_thread.obj
 0001:000a02b0       ?waittask@u_s_searcher@@YA_NV?$basic_string@DU?$char_traits@D@std@@V?$allocator@D@2@@std@@@Z 004a12b0 f   u_searcher_mandle_thread.obj
 0001:000a0330       ?workerthread@u_s_searcher@@YGIPAX@Z 004a1330 f   u_searcher_mandle_thread.obj
 0001:000a0510       ??$_Emplace_reallocate@ABVcgroup@smallgroups@@@?$vector@Vcgroup@smallgroups@@V?$allocator@Vcgroup@smallgroups@@@std@@@std@@QAEPAVcgroup@smallgroups@@QAV23@ABV23@@Z 004a1510 f i u_smallgroups.obj
 0001:000a0710       ??$_Emplace_reallocate@ABVperm@smallgroups@@@?$vector@Vperm@smallgroups@@V?$allocator@Vperm@smallgroups@@@std@@@std@@QAEPAVperm@smallgroups@@QAV23@ABV23@@Z 004a1710 f i u_smallgroups.obj
 0001:000a0860       ??$_Insert_range@PBVperm@smallgroups@@@?$vector@Vperm@smallgroups@@V?$allocator@Vperm@smallgroups@@@std@@@std@@AAEXV?$_Vector_const_iterator@V?$_Vector_val@U?$_Simple_types@Vperm@smallgroups@@@std@@@std@@@1@PBVperm@smallgroups@@1Uforward_iterator_tag@1@@Z 004a1860 f i u_smallgroups.obj
 0001:000a0c40       ??$_Move_unchecked@PAVperm@smallgroups@@PAV12@@std@@YAPAVperm@smallgroups@@PAV12@00@Z 004a1c40 f i u_smallgroups.obj
 0001:000a0d00       ??$_Ucopy@PBVperm@smallgroups@@@?$vector@Vperm@smallgroups@@V?$allocator@Vperm@smallgroups@@@std@@@std@@AAEPAVperm@smallgroups@@PBV23@0PAV23@@Z 004a1d00 f i u_smallgroups.obj
 0001:000a0d80       ??0cgroup@smallgroups@@QAE@H@Z 004a1d80 f   u_smallgroups.obj
 0001:000a0df0       ??0group@smallgroups@@QAE@ABV?$vector@Vperm@smallgroups@@V?$allocator@Vperm@smallgroups@@@std@@@std@@@Z 004a1df0 f   u_smallgroups.obj
 0001:000a0f40       ??0group@smallgroups@@QAE@H_N@Z 004a1f40 f   u_smallgroups.obj
 0001:000a10b0       ??0perm@smallgroups@@QAE@H@Z 004a20b0 f   u_smallgroups.obj
 0001:000a1140       ??0perm@smallgroups@@QAE@PBHH@Z 004a2140 f   u_smallgroups.obj
 0001:000a1230       ??1?$vector@Vcgroup@smallgroups@@V?$allocator@Vcgroup@smallgroups@@@std@@@std@@QAE@XZ 004a2230 f i u_smallgroups.obj
 0001:000a12a0       ??8cgroup@smallgroups@@QBE_NABV01@@Z 004a22a0 f   u_smallgroups.obj
 0001:000a1310       ??8perm@smallgroups@@QAE_NABV01@@Z 004a2310 f   u_smallgroups.obj
 0001:000a1350       ??Dperm@smallgroups@@QAE?AV01@ABV01@@Z 004a2350 f   u_smallgroups.obj
 0001:000a13b0       ??Eperm@smallgroups@@QAE?AV01@XZ 004a23b0 f   u_smallgroups.obj
 0001:000a1680       ?_Change_array@?$vector@Vperm@smallgroups@@V?$allocator@Vperm@smallgroups@@@std@@@std@@AAEXQAVperm@smallgroups@@II@Z 004a2680 f i u_smallgroups.obj
 0001:000a1710       ?_Umove@?$vector@Vcgroup@smallgroups@@V?$allocator@Vcgroup@smallgroups@@@std@@@std@@AAEPAVcgroup@smallgroups@@PAV34@00@Z 004a2710 f i u_smallgroups.obj
 0001:000a1770       ?_Umove@?$vector@Vperm@smallgroups@@V?$allocator@Vperm@smallgroups@@@std@@@std@@AAEPAVperm@smallgroups@@PAV34@00@Z 004a2770 f i u_smallgroups.obj
 0001:000a1790       ?addperm@group@smallgroups@@AAEHABVperm@2@@Z 004a2790 f   u_smallgroups.obj
 0001:000a1850       ?close@group@smallgroups@@AAEXXZ 004a2850 f   u_smallgroups.obj
 0001:000a1a90       ?genidentskel@cgroup@smallgroups@@QBE?AV?$vector@Vcgroup@smallgroups@@V?$allocator@Vcgroup@smallgroups@@@std@@@std@@XZ 004a2a90 f   u_smallgroups.obj
 0001:000a1c90       ?guessnext@cgroup@smallgroups@@QBE?AV?$vector@Vcgroup@smallgroups@@V?$allocator@Vcgroup@smallgroups@@@std@@@std@@XZ 004a2c90 f   u_smallgroups.obj
 0001:000a2060       ?printc@cgroup@smallgroups@@QBEXPBD@Z 004a3060 f   u_smallgroups.obj
 0001:000a2160       ?printc@group@smallgroups@@QAEXPBD@Z 004a3160 f   u_smallgroups.obj
 0001:000a23c0       ?printp@perm@smallgroups@@QAEXXZ 004a33c0 f   u_smallgroups.obj
 0001:000a2410       ?write@cgroup@smallgroups@@QAE_NHHH@Z 004a3410 f   u_smallgroups.obj
 0001:000a2580       ?maindraw2d@@YAXXZ         004a3580 f   u_states.obj
 0001:000a2590       ?maindraw3d@@YAXXZ         004a3590 f   u_states.obj
 0001:000a25a0       ?mainexit@@YAXXZ           004a35a0 f   u_states.obj
 0001:000a25e0       ?mainhasdraw2d@@YA_NXZ     004a35e0 f   u_states.obj
 0001:000a25f0       ?mainhasdraw3d@@YA_NXZ     004a35f0 f   u_states.obj
 0001:000a2600       ?maininit@@YAXXZ           004a3600 f   u_states.obj
 0001:000a26d0       ?mainproc@@YA_NXZ          004a36d0 f   u_states.obj
 0001:000a26e0       ?d3testdraw3d@@YAXXZ       004a36e0 f   u_s_3dtest.obj
 0001:000a2710       ?d3testexit@@YAXXZ         004a3710 f   u_s_3dtest.obj
 0001:000a2760       ?d3testinit@@YAXXZ         004a3760 f   u_s_3dtest.obj
 0001:000a2be0       ?d3testproc@@YAXXZ         004a3be0 f   u_s_3dtest.obj
 0001:000a2d50       ??$_Insertion_sort_unchecked@PAV?$basic_string@DU?$char_traits@D@std@@V?$allocator@D@2@@std@@U?$less@X@2@@std@@YAPAV?$basic_string@DU?$char_traits@D@std@@V?$allocator@D@2@@0@PAV10@QAV10@U?$less@X@0@@Z 004a3d50 f i u_s_ar.obj
 0001:000a3000       ??$_Med3_unchecked@PAV?$basic_string@DU?$char_traits@D@std@@V?$allocator@D@2@@std@@U?$less@X@2@@std@@YAXPAV?$basic_string@DU?$char_traits@D@std@@V?$allocator@D@2@@0@00U?$less@X@0@@Z 004a4000 f i u_s_ar.obj
 0001:000a3100       ??$_Partition_by_median_guess_unchecked@PAV?$basic_string@DU?$char_traits@D@std@@V?$allocator@D@2@@std@@U?$less@X@2@@std@@YA?AU?$pair@PAV?$basic_string@DU?$char_traits@D@std@@V?$allocator@D@2@@std@@PAV12@@0@PAV?$basic_string@DU?$char_traits@D@std@@V?$allocator@D@2@@0@0U?$less@X@0@@Z 004a4100 f i u_s_ar.obj
 0001:000a3520       ??$_Pop_heap_hole_by_index@PAV?$basic_string@DU?$char_traits@D@std@@V?$allocator@D@2@@std@@V12@U?$less@X@2@@std@@YAXPAV?$basic_string@DU?$char_traits@D@std@@V?$allocator@D@2@@0@HH$$QAV10@U?$less@X@0@@Z 004a4520 f i u_s_ar.obj
 0001:000a3690       ??$_Push_heap_by_index@PAV?$basic_string@DU?$char_traits@D@std@@V?$allocator@D@2@@std@@V12@U?$less@X@2@@std@@YAXPAV?$basic_string@DU?$char_traits@D@std@@V?$allocator@D@2@@0@HH$$QAV10@U?$less@X@0@@Z 004a4690 f i u_s_ar.obj
 0001:000a37f0       ??$_Sort_unchecked@PAV?$basic_string@DU?$char_traits@D@std@@V?$allocator@D@2@@std@@U?$less@X@2@@std@@YAXPAV?$basic_string@DU?$char_traits@D@std@@V?$allocator@D@2@@0@0HU?$less@X@0@@Z 004a47f0 f i u_s_ar.obj
 0001:000a3ab0       ??0?$basic_string@DU?$char_traits@D@std@@V?$allocator@D@2@@std@@QAE@$$QAV01@@Z 004a4ab0 f i u_s_ar.obj
 0001:000a3af0       ??0gallery@u_s_ar@@QAE@XZ  004a4af0 f   u_s_ar.obj
 0001:000a3e90       ?add_backdrop@u_s_ar@@YAXHHHH_N@Z 004a4e90 f   u_s_ar.obj
 0001:000a40c0       ?ar_draw3d@@YAXXZ          004a50c0 f   u_s_ar.obj
 0001:000a4390       ?ar_exit@@YAXXZ            004a5390 f   u_s_ar.obj
 0001:000a44b0       ?ar_init3d@u_s_ar@@YAXXZ   004a54b0 f   u_s_ar.obj
 0001:000a4970       ?ar_init@@YAXXZ            004a5970 f   u_s_ar.obj
 0001:000a4d20       ?ar_proc@@YAXXZ            004a5d20 f   u_s_ar.obj
 0001:000a5610       ?del@gallery@u_s_ar@@QAE?AV?$basic_string@DU?$char_traits@D@std@@V?$allocator@D@2@@std@@XZ 004a6610 f   u_s_ar.obj
 0001:000a5780       ?doanarscan@u_s_ar@@YA?AV?$basic_string@DU?$char_traits@D@std@@V?$allocator@D@2@@std@@V23@PBUbitmap32@@AAV?$vector@UcircleScan@@V?$allocator@UcircleScan@@@std@@@3@@Z 004a6780 f   u_s_ar.obj
 0001:000a58f0       ?freebms@u_s_ar@@YAXXZ     004a68f0 f   u_s_ar.obj
 0001:000a5930       ?getname@gallery@u_s_ar@@QAE?AV?$basic_string@DU?$char_traits@D@std@@V?$allocator@D@2@@std@@XZ 004a6930 f   u_s_ar.obj
 0001:000a5990       ?load@gallery@u_s_ar@@QAE?AV?$basic_string@DU?$char_traits@D@std@@V?$allocator@D@2@@std@@XZ 004a6990 f   u_s_ar.obj
 0001:000a5a00       ?save@gallery@u_s_ar@@QAE?AV?$basic_string@DU?$char_traits@D@std@@V?$allocator@D@2@@std@@XZ 004a6a00 f   u_s_ar.obj
 0001:000a5c10       ??$buildpatch_tan@Vspheref_surf_tan@@@@YAXPAVmodelb@@HHMMVspheref_surf_tan@@PBD22@Z 004a6c10 f i u_s_arena1.obj
 0001:000a6050       ??0backsndplayer@@QAE@Vscript@@@Z 004a7050 f i u_s_arena1.obj
 0001:000a62e0       ??0waveslotplayer@@QAE@Vscript@@@Z 004a72e0 f i u_s_arena1.obj
 0001:000a6550       ?arena1draw3d@@YAXXZ       004a7550 f   u_s_arena1.obj
 0001:000a65f0       ?arena1exit@@YAXXZ         004a75f0 f   u_s_arena1.obj
 0001:000a6820       ?arena1init@@YAXXZ         004a7820 f   u_s_arena1.obj
 0001:000a7140       ?arena1proc@@YAXXZ         004a8140 f   u_s_arena1.obj
 0001:000a7850       ?settrack@backsndplayer@@QAEXH@Z 004a8850 f i u_s_arena1.obj
 0001:000a79c0       ??$_Buynode@ABUpiecewise_construct_t@std@@V?$tuple@$$QAV?$basic_string@DU?$char_traits@D@std@@V?$allocator@D@2@@std@@@2@V?$tuple@$$V@2@@?$_Tree_comp_alloc@V?$_Tmap_traits@V?$basic_string@DU?$char_traits@D@std@@V?$allocator@D@2@@std@@P6APAXAAVscript@@@ZU?$less@V?$basic_string@DU?$char_traits@D@std@@V?$allocator@D@2@@std@@@2@V?$allocator@U?$pair@$$CBV?$basic_string@DU?$char_traits@D@std@@V?$allocator@D@2@@std@@P6APAXAAVscript@@@Z@std@@@2@$0A@@std@@@std@@QAEPAU?$_Tree_node@U?$pair@$$CBV?$basic_string@DU?$char_traits@D@std@@V?$allocator@D@2@@std@@P6APAXAAVscript@@@Z@std@@PAX@1@ABUpiecewise_construct_t@1@$$QAV?$tuple@$$QAV?$basic_string@DU?$char_traits@D@std@@V?$allocator@D@2@@std@@@1@$$QAV?$tuple@$$V@1@@Z 004a89c0 f i u_uiclass.obj
 0001:000a79c0       ??$_Buynode@ABUpiecewise_construct_t@std@@V?$tuple@$$QAV?$basic_string@DU?$char_traits@D@std@@V?$allocator@D@2@@std@@@2@V?$tuple@$$V@2@@?$_Tree_comp_alloc@V?$_Tmap_traits@V?$basic_string@DU?$char_traits@D@std@@V?$allocator@D@2@@std@@P6APAXXZU?$less@V?$basic_string@DU?$char_traits@D@std@@V?$allocator@D@2@@std@@@2@V?$allocator@U?$pair@$$CBV?$basic_string@DU?$char_traits@D@std@@V?$allocator@D@2@@std@@P6APAXXZ@std@@@2@$0A@@std@@@std@@QAEPAU?$_Tree_node@U?$pair@$$CBV?$basic_string@DU?$char_traits@D@std@@V?$allocator@D@2@@std@@P6APAXXZ@std@@PAX@1@ABUpiecewise_construct_t@1@$$QAV?$tuple@$$QAV?$basic_string@DU?$char_traits@D@std@@V?$allocator@D@2@@std@@@1@$$QAV?$tuple@$$V@1@@Z 004a89c0 f i u_s_arena2.obj
 0001:000a7a10       ??$_Buynode@ABQAVtree2@@@?$_List_buy@PAVtree2@@V?$allocator@PAVtree2@@@std@@@std@@QAEPAU?$_List_node@PAVtree2@@PAX@1@PAU21@0ABQAVtree2@@@Z 004a8a10 f i engq:d2_tree.obj
 0001:000a7a10       ??$_Buynode@PAVus@u_s_arena2@@@?$_List_buy@PAVus@u_s_arena2@@V?$allocator@PAVus@u_s_arena2@@@std@@@std@@QAEPAU?$_List_node@PAVus@u_s_arena2@@PAX@1@PAU21@0$$QAPAVus@u_s_arena2@@@Z 004a8a10 f i u_s_arena2.obj
 0001:000a7a30       ??$_Insert_at@AAU?$pair@$$CBV?$basic_string@DU?$char_traits@D@std@@V?$allocator@D@2@@std@@P6APAXAAVscript@@@Z@std@@PAU?$_Tree_node@U?$pair@$$CBV?$basic_string@DU?$char_traits@D@std@@V?$allocator@D@2@@std@@P6APAXAAVscript@@@Z@std@@PAX@2@@?$_Tree@V?$_Tmap_traits@V?$basic_string@DU?$char_traits@D@std@@V?$allocator@D@2@@std@@P6APAXAAVscript@@@ZU?$less@V?$basic_string@DU?$char_traits@D@std@@V?$allocator@D@2@@std@@@2@V?$allocator@U?$pair@$$CBV?$basic_string@DU?$char_traits@D@std@@V?$allocator@D@2@@std@@P6APAXAAVscript@@@Z@std@@@2@$0A@@std@@@std@@IAE?AV?$_Tree_iterator@V?$_Tree_val@U?$_Tree_simple_types@U?$pair@$$CBV?$basic_string@DU?$char_traits@D@std@@V?$allocator@D@2@@std@@P6APAXAAVscript@@@Z@std@@@std@@@std@@@1@_NPAU?$_Tree_node@U?$pair@$$CBV?$basic_string@DU?$char_traits@D@std@@V?$allocator@D@2@@std@@P6APAXAAVscript@@@Z@std@@PAX@1@AAU?$pair@$$CBV?$basic_string@DU?$char_traits@D@std@@V?$allocator@D@2@@std@@P6APAXAAVscript@@@Z@1@1@Z 004a8a30 f i u_uiclass.obj
 0001:000a7a30       ??$_Insert_at@AAU?$pair@$$CBV?$basic_string@DU?$char_traits@D@std@@V?$allocator@D@2@@std@@P6APAXXZ@std@@PAU?$_Tree_node@U?$pair@$$CBV?$basic_string@DU?$char_traits@D@std@@V?$allocator@D@2@@std@@P6APAXXZ@std@@PAX@2@@?$_Tree@V?$_Tmap_traits@V?$basic_string@DU?$char_traits@D@std@@V?$allocator@D@2@@std@@P6APAXXZU?$less@V?$basic_string@DU?$char_traits@D@std@@V?$allocator@D@2@@std@@@2@V?$allocator@U?$pair@$$CBV?$basic_string@DU?$char_traits@D@std@@V?$allocator@D@2@@std@@P6APAXXZ@std@@@2@$0A@@std@@@std@@IAE?AV?$_Tree_iterator@V?$_Tree_val@U?$_Tree_simple_types@U?$pair@$$CBV?$basic_string@DU?$char_traits@D@std@@V?$allocator@D@2@@std@@P6APAXXZ@std@@@std@@@std@@@1@_NPAU?$_Tree_node@U?$pair@$$CBV?$basic_string@DU?$char_traits@D@std@@V?$allocator@D@2@@std@@P6APAXXZ@std@@PAX@1@AAU?$pair@$$CBV?$basic_string@DU?$char_traits@D@std@@V?$allocator@D@2@@std@@P6APAXXZ@1@1@Z 004a8a30 f i u_s_arena2.obj
 0001:000a7b90       ??$_Insert_hint@AAU?$pair@$$CBV?$basic_string@DU?$char_traits@D@std@@V?$allocator@D@2@@std@@P6APAXAAVscript@@@Z@std@@PAU?$_Tree_node@U?$pair@$$CBV?$basic_string@DU?$char_traits@D@std@@V?$allocator@D@2@@std@@P6APAXAAVscript@@@Z@std@@PAX@2@@?$_Tree@V?$_Tmap_traits@V?$basic_string@DU?$char_traits@D@std@@V?$allocator@D@2@@std@@P6APAXAAVscript@@@ZU?$less@V?$basic_string@DU?$char_traits@D@std@@V?$allocator@D@2@@std@@@2@V?$allocator@U?$pair@$$CBV?$basic_string@DU?$char_traits@D@std@@V?$allocator@D@2@@std@@P6APAXAAVscript@@@Z@std@@@2@$0A@@std@@@std@@IAE?AV?$_Tree_iterator@V?$_Tree_val@U?$_Tree_simple_types@U?$pair@$$CBV?$basic_string@DU?$char_traits@D@std@@V?$allocator@D@2@@std@@P6APAXAAVscript@@@Z@std@@@std@@@std@@@1@V?$_Tree_const_iterator@V?$_Tree_val@U?$_Tree_simple_types@U?$pair@$$CBV?$basic_string@DU?$char_traits@D@std@@V?$allocator@D@2@@std@@P6APAXAAVscript@@@Z@std@@@std@@@std@@@1@AAU?$pair@$$CBV?$basic_string@DU?$char_traits@D@std@@V?$allocator@D@2@@std@@P6APAXAAVscript@@@Z@1@PAU?$_Tree_node@U?$pair@$$CBV?$basic_string@DU?$char_traits@D@std@@V?$allocator@D@2@@std@@P6APAXAAVscript@@@Z@std@@PAX@1@@Z 004a8b90 f i u_uiclass.obj
 0001:000a7b90       ??$_Insert_hint@AAU?$pair@$$CBV?$basic_string@DU?$char_traits@D@std@@V?$allocator@D@2@@std@@P6APAXXZ@std@@PAU?$_Tree_node@U?$pair@$$CBV?$basic_string@DU?$char_traits@D@std@@V?$allocator@D@2@@std@@P6APAXXZ@std@@PAX@2@@?$_Tree@V?$_Tmap_traits@V?$basic_string@DU?$char_traits@D@std@@V?$allocator@D@2@@std@@P6APAXXZU?$less@V?$basic_string@DU?$char_traits@D@std@@V?$allocator@D@2@@std@@@2@V?$allocator@U?$pair@$$CBV?$basic_string@DU?$char_traits@D@std@@V?$allocator@D@2@@std@@P6APAXXZ@std@@@2@$0A@@std@@@std@@IAE?AV?$_Tree_iterator@V?$_Tree_val@U?$_Tree_simple_types@U?$pair@$$CBV?$basic_string@DU?$char_traits@D@std@@V?$allocator@D@2@@std@@P6APAXXZ@std@@@std@@@std@@@1@V?$_Tree_const_iterator@V?$_Tree_val@U?$_Tree_simple_types@U?$pair@$$CBV?$basic_string@DU?$char_traits@D@std@@V?$allocator@D@2@@std@@P6APAXXZ@std@@@std@@@std@@@1@AAU?$pair@$$CBV?$basic_string@DU?$char_traits@D@std@@V?$allocator@D@2@@std@@P6APAXXZ@1@PAU?$_Tree_node@U?$pair@$$CBV?$basic_string@DU?$char_traits@D@std@@V?$allocator@D@2@@std@@P6APAXXZ@std@@PAX@1@@Z 004a8b90 f i u_s_arena2.obj
 0001:000a7dd0       ??$_Insert_nohint@AAU?$pair@$$CBV?$basic_string@DU?$char_traits@D@std@@V?$allocator@D@2@@std@@P6APAXAAVscript@@@Z@std@@PAU?$_Tree_node@U?$pair@$$CBV?$basic_string@DU?$char_traits@D@std@@V?$allocator@D@2@@std@@P6APAXAAVscript@@@Z@std@@PAX@2@@?$_Tree@V?$_Tmap_traits@V?$basic_string@DU?$char_traits@D@std@@V?$allocator@D@2@@std@@P6APAXAAVscript@@@ZU?$less@V?$basic_string@DU?$char_traits@D@std@@V?$allocator@D@2@@std@@@2@V?$allocator@U?$pair@$$CBV?$basic_string@DU?$char_traits@D@std@@V?$allocator@D@2@@std@@P6APAXAAVscript@@@Z@std@@@2@$0A@@std@@@std@@IAE?AU?$pair@V?$_Tree_iterator@V?$_Tree_val@U?$_Tree_simple_types@U?$pair@$$CBV?$basic_string@DU?$char_traits@D@std@@V?$allocator@D@2@@std@@P6APAXAAVscript@@@Z@std@@@std@@@std@@@std@@_N@1@_NAAU?$pair@$$CBV?$basic_string@DU?$char_traits@D@std@@V?$allocator@D@2@@std@@P6APAXAAVscript@@@Z@1@PAU?$_Tree_node@U?$pair@$$CBV?$basic_string@DU?$char_traits@D@std@@V?$allocator@D@2@@std@@P6APAXAAVscript@@@Z@std@@PAX@1@@Z 004a8dd0 f i u_uiclass.obj
 0001:000a7dd0       ??$_Insert_nohint@AAU?$pair@$$CBV?$basic_string@DU?$char_traits@D@std@@V?$allocator@D@2@@std@@P6APAXXZ@std@@PAU?$_Tree_node@U?$pair@$$CBV?$basic_string@DU?$char_traits@D@std@@V?$allocator@D@2@@std@@P6APAXXZ@std@@PAX@2@@?$_Tree@V?$_Tmap_traits@V?$basic_string@DU?$char_traits@D@std@@V?$allocator@D@2@@std@@P6APAXXZU?$less@V?$basic_string@DU?$char_traits@D@std@@V?$allocator@D@2@@std@@@2@V?$allocator@U?$pair@$$CBV?$basic_string@DU?$char_traits@D@std@@V?$allocator@D@2@@std@@P6APAXXZ@std@@@2@$0A@@std@@@std@@IAE?AU?$pair@V?$_Tree_iterator@V?$_Tree_val@U?$_Tree_simple_types@U?$pair@$$CBV?$basic_string@DU?$char_traits@D@std@@V?$allocator@D@2@@std@@P6APAXXZ@std@@@std@@@std@@@std@@_N@1@_NAAU?$pair@$$CBV?$basic_string@DU?$char_traits@D@std@@V?$allocator@D@2@@std@@P6APAXXZ@1@PAU?$_Tree_node@U?$pair@$$CBV?$basic_string@DU?$char_traits@D@std@@V?$allocator@D@2@@std@@P6APAXXZ@std@@PAX@1@@Z 004a8dd0 f i u_s_arena2.obj
 0001:000a7f70       ??0?$mfact@Vus@u_s_arena2@@@u_s_arena2@@QAE@XZ 004a8f70 f   u_s_arena2.obj
 0001:000a82e0       ??0us@u_s_arena2@@QAE@XZ   004a92e0 f   u_s_arena2.obj
 0001:000a8360       ??0us_demo@u_s_arena2@@QAE@XZ 004a9360 f   u_s_arena2.obj
 0001:000a85e0       ??0us_fluff@u_s_arena2@@QAE@XZ 004a95e0 f   u_s_arena2.obj
 0001:000a86d0       ??0us_main@u_s_arena2@@QAE@XZ 004a96d0 f   u_s_arena2.obj
 0001:000a87c0       ??0us_mainmenu@u_s_arena2@@QAE@XZ 004a97c0 f   u_s_arena2.obj
 0001:000a8be0       ??1?$factory@Vshape@u_s_arena2@@@u_s_arena2@@QAE@XZ 004a9be0 f i u_s_arena2.obj
 0001:000a8bf0       ??1shape@u_s_arena2@@UAE@XZ 004a9bf0 f i u_s_arena2.obj
 0001:000a8c30       ??1us@u_s_arena2@@UAE@XZ   004a9c30 f   u_s_arena2.obj
 0001:000a8c60       ??A?$map@V?$basic_string@DU?$char_traits@D@std@@V?$allocator@D@2@@std@@P6APAXXZU?$less@V?$basic_string@DU?$char_traits@D@std@@V?$allocator@D@2@@std@@@2@V?$allocator@U?$pair@$$CBV?$basic_string@DU?$char_traits@D@std@@V?$allocator@D@2@@std@@P6APAXXZ@std@@@2@@std@@QAEAAP6APAXXZ$$QAV?$basic_string@DU?$char_traits@D@std@@V?$allocator@D@2@@1@@Z 004a9c60 f i u_s_arena2.obj
 0001:000a8cf0       ??_Ecircle@u_s_arena2@@UAEPAXI@Z 004a9cf0 f i u_s_arena2.obj
 0001:000a8cf0       ??_Gcircle@u_s_arena2@@UAEPAXI@Z 004a9cf0 f i u_s_arena2.obj
 0001:000a8d60       ??_Erectangle@u_s_arena2@@UAEPAXI@Z 004a9d60 f i u_s_arena2.obj
 0001:000a8d60       ??_Grectangle@u_s_arena2@@UAEPAXI@Z 004a9d60 f i u_s_arena2.obj
 0001:000a8dd0       ??_Eshape@u_s_arena2@@UAEPAXI@Z 004a9dd0 f i u_s_arena2.obj
 0001:000a8dd0       ??_Gshape@u_s_arena2@@UAEPAXI@Z 004a9dd0 f i u_s_arena2.obj
 0001:000a8e30       ??_Eus@u_s_arena2@@UAEPAXI@Z 004a9e30 f i u_s_arena2.obj
 0001:000a8e30       ??_Gus@u_s_arena2@@UAEPAXI@Z 004a9e30 f i u_s_arena2.obj
 0001:000a8e80       ??_Gus_demo@u_s_arena2@@UAEPAXI@Z 004a9e80 f i u_s_arena2.obj
 0001:000a8e80       ??_Eus_demo@u_s_arena2@@UAEPAXI@Z 004a9e80 f i u_s_arena2.obj
 0001:000a8f10       ??_Eus_fluff@u_s_arena2@@UAEPAXI@Z 004a9f10 f i u_s_arena2.obj
 0001:000a8f10       ??_Gus_fluff@u_s_arena2@@UAEPAXI@Z 004a9f10 f i u_s_arena2.obj
 0001:000a8f80       ??_Gus_main@u_s_arena2@@UAEPAXI@Z 004a9f80 f i u_s_arena2.obj
 0001:000a8f80       ??_Eus_main@u_s_arena2@@UAEPAXI@Z 004a9f80 f i u_s_arena2.obj
 0001:000a9000       ??_Eus_mainmenu@u_s_arena2@@UAEPAXI@Z 004aa000 f i u_s_arena2.obj
 0001:000a9000       ??_Gus_mainmenu@u_s_arena2@@UAEPAXI@Z 004aa000 f i u_s_arena2.obj
 0001:000a90b0       ??_Gus_state@u_s_arena2@@UAEPAXI@Z 004aa0b0 f i u_s_arena2.obj
 0001:000a90b0       ??_Eus_state@u_s_arena2@@UAEPAXI@Z 004aa0b0 f i u_s_arena2.obj
 0001:000a9160       ??_Gus_title@u_s_arena2@@UAEPAXI@Z 004aa160 f i u_s_arena2.obj
 0001:000a9160       ??_Eus_title@u_s_arena2@@UAEPAXI@Z 004aa160 f i u_s_arena2.obj
 0001:000a91c0       ?_Buyheadnode@?$_Tree_comp_alloc@V?$_Tmap_traits@V?$basic_string@DU?$char_traits@D@std@@V?$allocator@D@2@@std@@P6APAXXZU?$less@V?$basic_string@DU?$char_traits@D@std@@V?$allocator@D@2@@std@@@2@V?$allocator@U?$pair@$$CBV?$basic_string@DU?$char_traits@D@std@@V?$allocator@D@2@@std@@P6APAXXZ@std@@@2@$0A@@std@@@std@@QAEPAU?$_Tree_node@U?$pair@$$CBV?$basic_string@DU?$char_traits@D@std@@V?$allocator@D@2@@std@@P6APAXXZ@std@@PAX@2@XZ 004aa1c0 f i u_s_arena2.obj
 0001:000a91c0       ?_Buyheadnode@?$_Tree_comp_alloc@V?$_Tmap_traits@V?$basic_string@DU?$char_traits@D@std@@V?$allocator@D@2@@std@@P6APAXAAVscript@@@ZU?$less@V?$basic_string@DU?$char_traits@D@std@@V?$allocator@D@2@@std@@@2@V?$allocator@U?$pair@$$CBV?$basic_string@DU?$char_traits@D@std@@V?$allocator@D@2@@std@@P6APAXAAVscript@@@Z@std@@@2@$0A@@std@@@std@@QAEPAU?$_Tree_node@U?$pair@$$CBV?$basic_string@DU?$char_traits@D@std@@V?$allocator@D@2@@std@@P6APAXAAVscript@@@Z@std@@PAX@2@XZ 004aa1c0 f i u_uiclass.obj
 0001:000a91e0       ?_Buynode0@?$_List_alloc@U?$_List_base_types@PAVtree2@@V?$allocator@PAVtree2@@@std@@@std@@@std@@QAEPAU?$_List_node@PAVtree2@@PAX@2@PAU32@0@Z 004aa1e0 f i engq:d2_tree.obj
 0001:000a91e0       ?_Buynode0@?$_List_alloc@U?$_List_base_types@PAVus@u_s_arena2@@V?$allocator@PAVus@u_s_arena2@@@std@@@std@@@std@@QAEPAU?$_List_node@PAVus@u_s_arena2@@PAX@2@PAU32@0@Z 004aa1e0 f i u_s_arena2.obj
 0001:000a9210       ?_Buynode0@?$_Tree_comp_alloc@V?$_Tmap_traits@V?$basic_string@DU?$char_traits@D@std@@V?$allocator@D@2@@std@@P6APAXXZU?$less@V?$basic_string@DU?$char_traits@D@std@@V?$allocator@D@2@@std@@@2@V?$allocator@U?$pair@$$CBV?$basic_string@DU?$char_traits@D@std@@V?$allocator@D@2@@std@@P6APAXXZ@std@@@2@$0A@@std@@@std@@QAEPAU?$_Tree_node@U?$pair@$$CBV?$basic_string@DU?$char_traits@D@std@@V?$allocator@D@2@@std@@P6APAXXZ@std@@PAX@2@XZ 004aa210 f i u_s_arena2.obj
 0001:000a9210       ?_Buynode0@?$_Tree_comp_alloc@V?$_Tmap_traits@V?$basic_string@DU?$char_traits@D@std@@V?$allocator@D@2@@std@@P6APAXAAVscript@@@ZU?$less@V?$basic_string@DU?$char_traits@D@std@@V?$allocator@D@2@@std@@@2@V?$allocator@U?$pair@$$CBV?$basic_string@DU?$char_traits@D@std@@V?$allocator@D@2@@std@@P6APAXAAVscript@@@Z@std@@@2@$0A@@std@@@std@@QAEPAU?$_Tree_node@U?$pair@$$CBV?$basic_string@DU?$char_traits@D@std@@V?$allocator@D@2@@std@@P6APAXAAVscript@@@Z@std@@PAX@2@XZ 004aa210 f i u_uiclass.obj
 0001:000a9230       ?_Destroy_if_node@?$_Tree@V?$_Tmap_traits@V?$basic_string@DU?$char_traits@D@std@@V?$allocator@D@2@@std@@P6APAXAAVscript@@@ZU?$less@V?$basic_string@DU?$char_traits@D@std@@V?$allocator@D@2@@std@@@2@V?$allocator@U?$pair@$$CBV?$basic_string@DU?$char_traits@D@std@@V?$allocator@D@2@@std@@P6APAXAAVscript@@@Z@std@@@2@$0A@@std@@@std@@IAEXPAU?$_Tree_node@U?$pair@$$CBV?$basic_string@DU?$char_traits@D@std@@V?$allocator@D@2@@std@@P6APAXAAVscript@@@Z@std@@PAX@2@@Z 004aa230 f i u_uiclass.obj
 0001:000a9230       ?_Destroy_if_node@?$_Tree@V?$_Tmap_traits@V?$basic_string@DU?$char_traits@D@std@@V?$allocator@D@2@@std@@P6APAXXZU?$less@V?$basic_string@DU?$char_traits@D@std@@V?$allocator@D@2@@std@@@2@V?$allocator@U?$pair@$$CBV?$basic_string@DU?$char_traits@D@std@@V?$allocator@D@2@@std@@P6APAXXZ@std@@@2@$0A@@std@@@std@@IAEXPAU?$_Tree_node@U?$pair@$$CBV?$basic_string@DU?$char_traits@D@std@@V?$allocator@D@2@@std@@P6APAXXZ@std@@PAX@2@@Z 004aa230 f i u_s_arena2.obj
 0001:000a9290       ?arena2draw3d@@YAXXZ       004aa290 f   u_s_arena2.obj
 0001:000a92d0       ?arena2exit@@YAXXZ         004aa2d0 f   u_s_arena2.obj
 0001:000a93e0       ?arena2init@@YAXXZ         004aa3e0 f   u_s_arena2.obj
 0001:000a97e0       ?arena2proc@@YAXXZ         004aa7e0 f   u_s_arena2.obj
 0001:000a9a90       ?calcvpcast@u_s_arena2@@YAXPAUviewport2@@MMMMPAUpointf3@@1@Z 004aaa90 f   u_s_arena2.obj
 0001:000a9c20       ?changestate@us_state@u_s_arena2@@QAEXV?$basic_string@DU?$char_traits@D@std@@V?$allocator@D@2@@std@@@Z 004aac20 f   u_s_arena2.obj
 0001:000a9cb0       ?create@circle@u_s_arena2@@SAPAXAAPBH@Z 004aacb0 f i u_s_arena2.obj
 0001:000a9d60       ?create@rectangle@u_s_arena2@@SAPAXAAPBH@Z 004aad60 f i u_s_arena2.obj
 0001:000a9e20       ?create@shape@u_s_arena2@@SAPAXAAPBH@Z 004aae20 f i u_s_arena2.obj
 0001:000a9eb0       ?create@us@u_s_arena2@@SAPAXXZ 004aaeb0 f i u_s_arena2.obj
 0001:000a9f10       ?create@us_demo@u_s_arena2@@SAPAXXZ 004aaf10 f i u_s_arena2.obj
 0001:000a9f70       ?create@us_fluff@u_s_arena2@@SAPAXXZ 004aaf70 f i u_s_arena2.obj
 0001:000a9fd0       ?create@us_main@u_s_arena2@@SAPAXXZ 004aafd0 f i u_s_arena2.obj
 0001:000aa030       ?create@us_mainmenu@u_s_arena2@@SAPAXXZ 004ab030 f i u_s_arena2.obj
 0001:000aa090       ?create@us_state@u_s_arena2@@SAPAXXZ 004ab090 f i u_s_arena2.obj
 0001:000aa110       ?create@us_title@u_s_arena2@@SAPAXXZ 004ab110 f i u_s_arena2.obj
 0001:000aa1f0       ?draw@circle@u_s_arena2@@UAEXXZ 004ab1f0 f i u_s_arena2.obj
 0001:000aa200       ?draw@rectangle@u_s_arena2@@UAEXXZ 004ab200 f i u_s_arena2.obj
 0001:000aa210       ?draw@shape@u_s_arena2@@UAEXXZ 004ab210 f i u_s_arena2.obj
 0001:000aa220       ?erase@circle@u_s_arena2@@UAEXXZ 004ab220 f i u_s_arena2.obj
 0001:000aa230       ?erase@rectangle@u_s_arena2@@UAEXXZ 004ab230 f i u_s_arena2.obj
 0001:000aa240       ?erase@shape@u_s_arena2@@UAEXXZ 004ab240 f i u_s_arena2.obj
 0001:000aa250       ?fader@u_s_arena2@@YA_NPAVtree2@@@Z 004ab250 f   u_s_arena2.obj
 0001:000aa290       ?line2box3d@u_s_arena2@@YA_NABUpointf3@@000AAM@Z 004ab290 f   u_s_arena2.obj
 0001:000aa570       ?newclass_from_name@?$mfact@Vus@u_s_arena2@@@u_s_arena2@@QAEPAVus@2@V?$basic_string@DU?$char_traits@D@std@@V?$allocator@D@2@@std@@@Z 004ab570 f i u_s_arena2.obj
 0001:000aa6a0       ?pick3dr@u_s_arena2@@YAXPAVtree2@@ABUpointf3@@1@Z 004ab6a0 f   u_s_arena2.obj
 0001:000aa890       ?proc@us_demo@u_s_arena2@@UAEXXZ 004ab890 f   u_s_arena2.obj
 0001:000aa990       ?proc@us_main@u_s_arena2@@UAEXXZ 004ab990 f   u_s_arena2.obj
 0001:000aa9c0       ?proc@us_mainmenu@u_s_arena2@@UAEXXZ 004ab9c0 f   u_s_arena2.obj
 0001:000aabd0       ?proc@us_state@u_s_arena2@@UAEXXZ 004abbd0 f   u_s_arena2.obj
 0001:000aac20       ?proc@us_title@u_s_arena2@@UAEXXZ 004abc20 f   u_s_arena2.obj
 0001:000aac90       ?basic3ddraw3d@@YAXXZ      004abc90 f   u_s_basic3d.obj
 0001:000aacc0       ?basic3dexit@@YAXXZ        004abcc0 f   u_s_basic3d.obj
 0001:000aad00       ?basic3dinit@@YAXXZ        004abd00 f   u_s_basic3d.obj
 0001:000aae80       ?basic3dproc@@YAXXZ        004abe80 f   u_s_basic3d.obj
 0001:000aaeb0       ??$buildpatch2t@V?$strand_bot_surf@P6A?AUpointf3@@M@Z@@@@YAXPAVmodelb@@HHMMV?$strand_bot_surf@P6A?AUpointf3@@M@Z@@PBD22@Z 004abeb0 f i u_s_braid.obj
 0001:000ab2d0       ??$buildpatch2t@V?$strand_bot_surf@Vbraid_strand@braid@@@@@@YAXPAVmodelb@@HHMMV?$strand_bot_surf@Vbraid_strand@braid@@@@PBD22@Z 004ac2d0 f i u_s_braid.obj
 0001:000ab570       ??$buildpatch2t@V?$strand_bot_surf@Vsincircle_strand@braid@@@@@@YAXPAVmodelb@@HHMMV?$strand_bot_surf@Vsincircle_strand@braid@@@@PBD22@Z 004ac570 f i u_s_braid.obj
 0001:000ab810       ??$buildpatch2t@V?$strand_bot_surf@Vsinxyf_strand@braid@@@@@@YAXPAVmodelb@@HHMMV?$strand_bot_surf@Vsinxyf_strand@braid@@@@PBD22@Z 004ac810 f i u_s_braid.obj
 0001:000abc40       ??$buildpatch2t@V?$strand_mid_surf@P6A?AUpointf3@@M@Z@@@@YAXPAVmodelb@@HHMMV?$strand_mid_surf@P6A?AUpointf3@@M@Z@@PBD22@Z 004acc40 f i u_s_braid.obj
 0001:000ac070       ??$buildpatch2t@V?$strand_mid_surf@Vbraid_strand@braid@@@@@@YAXPAVmodelb@@HHMMV?$strand_mid_surf@Vbraid_strand@braid@@@@PBD22@Z 004ad070 f i u_s_braid.obj
 0001:000ac560       ??$buildpatch2t@V?$strand_mid_surf@Vsincircle_strand@braid@@@@@@YAXPAVmodelb@@HHMMV?$strand_mid_surf@Vsincircle_strand@braid@@@@PBD22@Z 004ad560 f i u_s_braid.obj
 0001:000aca60       ??$buildpatch2t@V?$strand_mid_surf@Vsinxyf_strand@braid@@@@@@YAXPAVmodelb@@HHMMV?$strand_mid_surf@Vsinxyf_strand@braid@@@@PBD22@Z 004ada60 f i u_s_braid.obj
 0001:000ace90       ??$buildpatch2t@V?$strand_top_surf@P6A?AUpointf3@@M@Z@@@@YAXPAVmodelb@@HHMMV?$strand_top_surf@P6A?AUpointf3@@M@Z@@PBD22@Z 004ade90 f i u_s_braid.obj
 0001:000ad280       ??$buildpatch2t@V?$strand_top_surf@Vbraid_strand@braid@@@@@@YAXPAVmodelb@@HHMMV?$strand_top_surf@Vbraid_strand@braid@@@@PBD22@Z 004ae280 f i u_s_braid.obj
 0001:000ad710       ??$buildpatch2t@V?$strand_top_surf@Vsincircle_strand@braid@@@@@@YAXPAVmodelb@@HHMMV?$strand_top_surf@Vsincircle_strand@braid@@@@PBD22@Z 004ae710 f i u_s_braid.obj
 0001:000adbc0       ??$buildpatch2t@V?$strand_top_surf@Vsinxyf_strand@braid@@@@@@YAXPAVmodelb@@HHMMV?$strand_top_surf@Vsinxyf_strand@braid@@@@PBD22@Z 004aebc0 f i u_s_braid.obj
 0001:000adfd0       ??$buildstrand@P6A?AUpointf3@@M@Z@@YAPAVtree2@@ABQ6A?AUpointf3@@M@ZHHHMPBD@Z 004aefd0 f i u_s_braid.obj
 0001:000ae270       ??$buildstrand@Vbraid_strand@braid@@@@YAPAVtree2@@ABVbraid_strand@braid@@HHHMPBD@Z 004af270 f i u_s_braid.obj
 0001:000ae570       ??$buildstrand@Vsincircle_strand@braid@@@@YAPAVtree2@@ABVsincircle_strand@braid@@HHHMPBD@Z 004af570 f i u_s_braid.obj
 0001:000ae840       ??$buildstrand@Vsinxyf_strand@braid@@@@YAPAVtree2@@ABVsinxyf_strand@braid@@HHHMPBD@Z 004af840 f i u_s_braid.obj
 0001:000aeb30       ??R?$strand_bot_surf@Vbraid_strand@braid@@@@QAEXMMPAUpointf3@@0@Z 004afb30 f i u_s_braid.obj
 0001:000aed90       ??R?$strand_bot_surf@Vsincircle_strand@braid@@@@QAEXMMPAUpointf3@@0@Z 004afd90 f i u_s_braid.obj
 0001:000aeff0       ?braiddraw3d@@YAXXZ        004afff0 f   u_s_braid.obj
 0001:000af020       ?braidexit@@YAXXZ          004b0020 f   u_s_braid.obj
 0001:000af070       ?braidinit@@YAXXZ          004b0070 f   u_s_braid.obj
 0001:000afa70       ?braidproc@@YAXXZ          004b0a70 f   u_s_braid.obj
 0001:000afc00       ?sinxy_strand@braid@@YA?AUpointf3@@M@Z 004b0c00 f   u_s_braid.obj
 0001:000afc50       ??Y?$basic_string@DU?$char_traits@D@std@@V?$allocator@D@2@@std@@QAEAAV01@QBD@Z 004b0c50 f i u_s_browser.obj
 0001:000afc80       ?browserdraw2d@@YAXXZ      004b0c80 f   u_s_browser.obj
 0001:000afcc0       ?browserexit@@YAXXZ        004b0cc0 f   u_s_browser.obj
 0001:000afd20       ?browserinit@@YAXXZ        004b0d20 f   u_s_browser.obj
 0001:000b0140       ?browserproc@@YAXXZ        004b1140 f   u_s_browser.obj
 0001:000b1000       ??$_Emplace_reallocate@ABUcapture_path@@@?$vector@Ucapture_path@@V?$allocator@Ucapture_path@@@std@@@std@@QAEPAUcapture_path@@QAU2@ABU2@@Z 004b2000 f i u_s_castle.obj
 0001:000b10e0       ??$_Insert_range@PAUcapture_path@@@?$vector@Ucapture_path@@V?$allocator@Ucapture_path@@@std@@@std@@AAEXV?$_Vector_const_iterator@V?$_Vector_val@U?$_Simple_types@Ucapture_path@@@std@@@std@@@1@PAUcapture_path@@1Uforward_iterator_tag@1@@Z 004b20e0 f i u_s_castle.obj
 0001:000b12a0       ??0C32@@QAE@EEEE@Z         004b22a0 f i u_s_castle.obj
 0001:000b12c0       ??0pointf3x@@QAE@MMMM@Z    004b22c0 f i u_s_castle.obj
 0001:000b12f0       ??4?$basic_string@DU?$char_traits@D@std@@V?$allocator@D@2@@std@@QAEAAV01@QBD@Z 004b22f0 f i u_s_castle.obj
 0001:000b1320       ?_Change_array@?$vector@Ucapture_path@@V?$allocator@Ucapture_path@@@std@@@std@@AAEXQAUcapture_path@@II@Z 004b2320 f i u_s_castle.obj
 0001:000b1380       ?_Xrange@?$vector@Ucapture_path@@V?$allocator@Ucapture_path@@@std@@@std@@CAXXZ 004b2380 f i u_s_castle.obj
 0001:000b1390       ?at@?$vector@Ucapture_path@@V?$allocator@Ucapture_path@@@std@@@std@@QAEAAUcapture_path@@I@Z 004b2390 f i u_s_castle.obj
 0001:000b1550       ?castledraw3d@@YAXXZ       004b2550 f   u_s_castle.obj
 0001:000b1620       ?castleexit@@YAXXZ         004b2620 f   u_s_castle.obj
 0001:000b18e0       ?castleinit@@YAXXZ         004b28e0 f   u_s_castle.obj
 0001:000b9ad0       ?castleproc@@YAXXZ         004baad0 f   u_s_castle.obj
 0001:000ba810       ?proc_edit@@YAXXZ          004bb810 f   u_s_castle.obj
 0001:000ba9f0       ?proc_play@@YAXXZ          004bb9f0 f   u_s_castle.obj
 0001:000bac50       ?push_back@?$vector@PAVtree2@@V?$allocator@PAVtree2@@@std@@@std@@QAEXABQAVtree2@@@Z 004bbc50 f i u_s_castle.obj
 0001:000bac80       ?push_back@?$vector@Ucapture_path@@V?$allocator@Ucapture_path@@@std@@@std@@QAEXABUcapture_path@@@Z 004bbc80 f i u_s_castle.obj
 0001:000bacc0       ?setvis@tree2@@QAEX_N@Z    004bbcc0 f i u_s_castle.obj
 0001:000badc0       ?chatter_test_draw2d@@YAXXZ 004bbdc0 f   u_s_chattertest.obj
 0001:000bae30       ?chatter_test_exit@@YAXXZ  004bbe30 f   u_s_chattertest.obj
 0001:000bae70       ?chatter_test_init@@YAXXZ  004bbe70 f   u_s_chattertest.obj
 0001:000bb0c0       ?chatter_test_proc@@YAXXZ  004bc0c0 f   u_s_chattertest.obj
 0001:000bb360       ?buildaframe@conduit@@YAXXZ 004bc360 f   u_s_conduit.obj
 0001:000bb840       ?conduit_draw2d@@YAXXZ     004bc840 f   u_s_conduit.obj
 0001:000bb870       ?conduit_exit@@YAXXZ       004bc870 f   u_s_conduit.obj
 0001:000bb8f0       ?conduit_init@@YAXXZ       004bc8f0 f   u_s_conduit.obj
 0001:000bba10       ?conduit_proc@@YAXXZ       004bca10 f   u_s_conduit.obj
 0001:000bbf20       ?cubemaptestdraw3d@@YAXXZ  004bcf20 f   u_s_cubemaptest.obj
 0001:000bbf50       ?cubemaptestexit@@YAXXZ    004bcf50 f   u_s_cubemaptest.obj
 0001:000bbfc0       ?cubemaptestinit@@YAXXZ    004bcfc0 f   u_s_cubemaptest.obj
 0001:000bc4a0       ?cubemaptestproc@@YAXXZ    004bd4a0 f   u_s_cubemaptest.obj
 0001:000bc660       ?cubemaptest2draw2d@@YAXXZ 004bd660 f   u_s_cubemaptest2.obj
 0001:000bc7f0       ?cubemaptest2exit@@YAXXZ   004bd7f0 f   u_s_cubemaptest2.obj
 0001:000bc870       ?cubemaptest2init@@YAXXZ   004bd870 f   u_s_cubemaptest2.obj
 0001:000bcaf0       ?cubemaptest2proc@@YAXXZ   004bdaf0 f   u_s_cubemaptest2.obj
 0001:000bcdf0       ?digital_draw2d@@YAXXZ     004bddf0 f   u_s_digital.obj
 0001:000bced0       ?digital_exit@@YAXXZ       004bded0 f   u_s_digital.obj
 0001:000bd050       ?digital_init@@YAXXZ       004be050 f   u_s_digital.obj
 0001:000bd3f0       ?digital_proc@@YAXXZ       004be3f0 f   u_s_digital.obj
 0001:000bd6c0       ?dumpbitmap@digital@@YAXPAUbitmap32@@PBD@Z 004be6c0 f   u_s_digital.obj
 0001:000bd7d0       ?filewriteword@@YAXI@Z     004be7d0 f   u_s_digital.obj
 0001:000bf340       ??$_Emplace_reallocate@ABU?$undo@Vboard_ttt2@@@@@?$vector@U?$undo@Vboard_ttt2@@@@V?$allocator@U?$undo@Vboard_ttt2@@@@@std@@@std@@QAEPAU?$undo@Vboard_ttt2@@@@QAU2@ABU2@@Z 004c0340 f i u_s_game2_ttt2.obj
 0001:000bf340       ??$_Emplace_reallocate@ABU?$undo@Vboard_nim@@@@@?$vector@U?$undo@Vboard_nim@@@@V?$allocator@U?$undo@Vboard_nim@@@@@std@@@std@@QAEPAU?$undo@Vboard_nim@@@@QAU2@ABU2@@Z 004c0340 f i u_s_game2_nim.obj
 0001:000bf340       ??$_Emplace_reallocate@ABU?$undo@Vboard_ttt@@@@@?$vector@U?$undo@Vboard_ttt@@@@V?$allocator@U?$undo@Vboard_ttt@@@@@std@@@std@@QAEPAU?$undo@Vboard_ttt@@@@QAU2@ABU2@@Z 004c0340 f i u_s_game2_ttt.obj
 0001:000bf340       ??$_Emplace_reallocate@ABU?$undo@Vboard_opposition@@@@@?$vector@U?$undo@Vboard_opposition@@@@V?$allocator@U?$undo@Vboard_opposition@@@@@std@@@std@@QAEPAU?$undo@Vboard_opposition@@@@QAU2@ABU2@@Z 004c0340 f i u_s_game2_opposition.obj
 0001:000bf340       ??$_Emplace_reallocate@ABU?$undo@Vboard_endgame@@@@@?$vector@U?$undo@Vboard_endgame@@@@V?$allocator@U?$undo@Vboard_endgame@@@@@std@@@std@@QAEPAU?$undo@Vboard_endgame@@@@QAU2@ABU2@@Z 004c0340 f i u_s_game2_endgame.obj
 0001:000bf340       ??$_Emplace_reallocate@ABU?$undo@Vboard_foxgoose@@@@@?$vector@U?$undo@Vboard_foxgoose@@@@V?$allocator@U?$undo@Vboard_foxgoose@@@@@std@@@std@@QAEPAU?$undo@Vboard_foxgoose@@@@QAU2@ABU2@@Z 004c0340 f i u_s_game2_foxgoose.obj
 0001:000bf5f0       ??$_Emplace_reallocate@ABVboard_foxgoose@@@?$vector@Vboard_foxgoose@@V?$allocator@Vboard_foxgoose@@@std@@@std@@QAEPAVboard_foxgoose@@QAV2@ABV2@@Z 004c05f0 f i u_s_game2_foxgoose.obj
 0001:000bf5f0       ??$_Emplace_reallocate@ABVboard_ttt@@@?$vector@Vboard_ttt@@V?$allocator@Vboard_ttt@@@std@@@std@@QAEPAVboard_ttt@@QAV2@ABV2@@Z 004c05f0 f i u_s_game2_ttt.obj
 0001:000bf5f0       ??$_Emplace_reallocate@ABVboard_nim@@@?$vector@Vboard_nim@@V?$allocator@Vboard_nim@@@std@@@std@@QAEPAVboard_nim@@QAV2@ABV2@@Z 004c05f0 f i u_s_game2_nim.obj
 0001:000bf5f0       ??$_Emplace_reallocate@ABVboard_endgame@@@?$vector@Vboard_endgame@@V?$allocator@Vboard_endgame@@@std@@@std@@QAEPAVboard_endgame@@QAV2@ABV2@@Z 004c05f0 f i u_s_game2_endgame.obj
 0001:000bf5f0       ??$_Emplace_reallocate@ABVboard_opposition@@@?$vector@Vboard_opposition@@V?$allocator@Vboard_opposition@@@std@@@std@@QAEPAVboard_opposition@@QAV2@ABV2@@Z 004c05f0 f i u_s_game2_opposition.obj
 0001:000bf5f0       ??$_Emplace_reallocate@ABVboard_ttt2@@@?$vector@Vboard_ttt2@@V?$allocator@Vboard_ttt2@@@std@@@std@@QAEPAVboard_ttt2@@QAV2@ABV2@@Z 004c05f0 f i u_s_game2_ttt2.obj
 0001:000bf890       ??$_Guess_median_unchecked@PAHU?$less@X@std@@@std@@YAXPAH00U?$less@X@0@@Z 004c0890 f i u_s_game2_endgame.obj
 0001:000bf9c0       ??$_Pop_heap_hole_by_index@PAHHU?$less@X@std@@@std@@YAXPAHHH$$QAHU?$less@X@0@@Z 004c09c0 f i u_s_game2_endgame.obj
 0001:000bfa60       ??$_Sort_unchecked@PAHU?$less@X@std@@@std@@YAXPAH0HU?$less@X@0@@Z 004c0a60 f i u_s_game2_endgame.obj
 0001:000bfda0       ??0?$game@Vboard_endgame@@@@QAE@V?$basic_string@DU?$char_traits@D@std@@V?$allocator@D@2@@std@@@Z 004c0da0 f i u_s_game2_endgame.obj
 0001:000c0070       ??0?$vector@V?$vector@IV?$allocator@I@std@@@std@@V?$allocator@V?$vector@IV?$allocator@I@std@@@std@@@2@@std@@QAE@ABV01@@Z 004c1070 f i u_s_game2_endgame.obj
 0001:000c0140       ??0?$vector@V?$vector@IV?$allocator@I@std@@@std@@V?$allocator@V?$vector@IV?$allocator@I@std@@@std@@@2@@std@@QAE@IABV?$vector@IV?$allocator@I@std@@@1@ABV?$allocator@V?$vector@IV?$allocator@I@std@@@std@@@1@@Z 004c1140 f i u_s_game2_endgame.obj
 0001:000c01f0       ??0board_opposition@@QAE@ABVboard@@@Z 004c11f0 f i u_s_game2_opposition.obj
 0001:000c01f0       ??0board_ttt2@@QAE@ABVboard@@@Z 004c11f0 f i u_s_game2_ttt2.obj
 0001:000c01f0       ??0board_nim@@QAE@ABVboard@@@Z 004c11f0 f i u_s_game2_nim.obj
 0001:000c01f0       ??0board_endgame@@QAE@ABVboard@@@Z 004c11f0 f i u_s_game2_endgame.obj
 0001:000c01f0       ??0board@@QAE@ABV0@@Z      004c11f0 f i u_s_game2_endgame.obj
 0001:000c01f0       ??0board_ttt@@QAE@ABVboard@@@Z 004c11f0 f i u_s_game2_ttt.obj
 0001:000c01f0       ??0board_foxgoose@@QAE@ABVboard@@@Z 004c11f0 f i u_s_game2_foxgoose.obj
 0001:000c0260       ??0board_ttt@@QAE@$$QAV0@@Z 004c1260 f i u_s_game2_ttt.obj
 0001:000c0260       ??0board_opposition@@QAE@$$QAV0@@Z 004c1260 f i u_s_game2_opposition.obj
 0001:000c0260       ??0board_ttt2@@QAE@$$QAV0@@Z 004c1260 f i u_s_game2_ttt2.obj
 0001:000c0260       ??0board_nim@@QAE@$$QAV0@@Z 004c1260 f i u_s_game2_nim.obj
 0001:000c0260       ??0board_endgame@@QAE@$$QAV0@@Z 004c1260 f i u_s_game2_endgame.obj
 0001:000c0260       ??0board_foxgoose@@QAE@$$QAV0@@Z 004c1260 f i u_s_game2_foxgoose.obj
 0001:000c0300       ??1?$undo@Vboard_ttt2@@@@QAE@XZ 004c1300 f i u_s_game2_ttt2.obj
 0001:000c0300       ??1board_foxgoose@@QAE@XZ  004c1300 f i u_s_game2_foxgoose.obj
 0001:000c0300       ??1board_endgame@@QAE@XZ   004c1300 f i u_s_game2_endgame.obj
 0001:000c0300       ??1?$undo@Vboard_endgame@@@@QAE@XZ 004c1300 f i u_s_game2_endgame.obj
 0001:000c0300       ??1board_opposition@@QAE@XZ 004c1300 f i u_s_game2_opposition.obj
 0001:000c0300       ??1?$undo@Vboard_opposition@@@@QAE@XZ 004c1300 f i u_s_game2_opposition.obj
 0001:000c0300       ??1board_ttt@@QAE@XZ       004c1300 f i u_s_game2_ttt.obj
 0001:000c0300       ??1board_nim@@QAE@XZ       004c1300 f i u_s_game2_nim.obj
 0001:000c0300       ??1?$undo@Vboard_foxgoose@@@@QAE@XZ 004c1300 f i u_s_game2_foxgoose.obj
 0001:000c0300       ??1?$undo@Vboard_nim@@@@QAE@XZ 004c1300 f i u_s_game2_nim.obj
 0001:000c0300       ??1?$undo@Vboard_ttt@@@@QAE@XZ 004c1300 f i u_s_game2_ttt.obj
 0001:000c0300       ??1board_ttt2@@QAE@XZ      004c1300 f i u_s_game2_ttt2.obj
 0001:000c0310       ??1?$vector@U?$undo@Vboard_opposition@@@@V?$allocator@U?$undo@Vboard_opposition@@@@@std@@@std@@QAE@XZ 004c1310 f i u_s_game2_opposition.obj
 0001:000c0310       ??1?$vector@U?$undo@Vboard_foxgoose@@@@V?$allocator@U?$undo@Vboard_foxgoose@@@@@std@@@std@@QAE@XZ 004c1310 f i u_s_game2_foxgoose.obj
 0001:000c0310       ??1?$vector@U?$undo@Vboard_ttt2@@@@V?$allocator@U?$undo@Vboard_ttt2@@@@@std@@@std@@QAE@XZ 004c1310 f i u_s_game2_ttt2.obj
 0001:000c0310       ??1?$vector@U?$undo@Vboard_ttt@@@@V?$allocator@U?$undo@Vboard_ttt@@@@@std@@@std@@QAE@XZ 004c1310 f i u_s_game2_ttt.obj
 0001:000c0310       ??1?$vector@U?$undo@Vboard_endgame@@@@V?$allocator@U?$undo@Vboard_endgame@@@@@std@@@std@@QAE@XZ 004c1310 f i u_s_game2_endgame.obj
 0001:000c0310       ??1?$vector@U?$undo@Vboard_nim@@@@V?$allocator@U?$undo@Vboard_nim@@@@@std@@@std@@QAE@XZ 004c1310 f i u_s_game2_nim.obj
 0001:000c0390       ??1?$vector@Vboard_endgame@@V?$allocator@Vboard_endgame@@@std@@@std@@QAE@XZ 004c1390 f i u_s_game2_endgame.obj
 0001:000c0390       ??1?$vector@Vboard_ttt2@@V?$allocator@Vboard_ttt2@@@std@@@std@@QAE@XZ 004c1390 f i u_s_game2_ttt2.obj
 0001:000c0390       ??1?$vector@Vboard_ttt@@V?$allocator@Vboard_ttt@@@std@@@std@@QAE@XZ 004c1390 f i u_s_game2_ttt.obj
 0001:000c0390       ??1?$vector@Vboard_foxgoose@@V?$allocator@Vboard_foxgoose@@@std@@@std@@QAE@XZ 004c1390 f i u_s_game2_foxgoose.obj
 0001:000c0390       ??1?$vector@Vboard_nim@@V?$allocator@Vboard_nim@@@std@@@std@@QAE@XZ 004c1390 f i u_s_game2_nim.obj
 0001:000c0390       ??1?$vector@Vboard_opposition@@V?$allocator@Vboard_opposition@@@std@@@std@@QAE@XZ 004c1390 f i u_s_game2_opposition.obj
 0001:000c0410       ??1board@@QAE@XZ           004c1410 f i u_s_game2_endgame.obj
 0001:000c04b0       ??4board@@QAEAAV0@ABV0@@Z  004c14b0 f i u_s_game2_endgame.obj
 0001:000c06f0       ??4board_nim@@QAEAAV0@$$QAV0@@Z 004c16f0 f i u_s_game2_nim.obj
 0001:000c06f0       ??4board_endgame@@QAEAAV0@$$QAV0@@Z 004c16f0 f i u_s_game2_endgame.obj
 0001:000c06f0       ??4board_opposition@@QAEAAV0@$$QAV0@@Z 004c16f0 f i u_s_game2_opposition.obj
 0001:000c06f0       ??4board_foxgoose@@QAEAAV0@$$QAV0@@Z 004c16f0 f i u_s_game2_foxgoose.obj
 0001:000c06f0       ??4board_ttt@@QAEAAV0@$$QAV0@@Z 004c16f0 f i u_s_game2_ttt.obj
 0001:000c06f0       ??4board_ttt2@@QAEAAV0@$$QAV0@@Z 004c16f0 f i u_s_game2_ttt2.obj
 0001:000c0780       ??_G?$game@Vboard_ttt@@@@QAEPAXI@Z 004c1780 f i u_s_game2_ttt.obj
 0001:000c0780       ??_G?$game@Vboard_ttt2@@@@QAEPAXI@Z 004c1780 f i u_s_game2_ttt2.obj
 0001:000c0780       ??_G?$game@Vboard_nim@@@@QAEPAXI@Z 004c1780 f i u_s_game2_nim.obj
 0001:000c0780       ??_G?$game@Vboard_endgame@@@@QAEPAXI@Z 004c1780 f i u_s_game2_endgame.obj
 0001:000c0780       ??_G?$game@Vboard_foxgoose@@@@QAEPAXI@Z 004c1780 f i u_s_game2_foxgoose.obj
 0001:000c0780       ??_G?$game@Vboard_opposition@@@@QAEPAXI@Z 004c1780 f i u_s_game2_opposition.obj
 0001:000c0850       ?_Buy@?$vector@V?$vector@IV?$allocator@I@std@@@std@@V?$allocator@V?$vector@IV?$allocator@I@std@@@std@@@2@@std@@AAE_NI@Z 004c1850 f i u_s_game2_endgame.obj
 0001:000c0910       ?_Destroy@?$vector@U?$undo@Vboard_nim@@@@V?$allocator@U?$undo@Vboard_nim@@@@@std@@@std@@AAEXPAU?$undo@Vboard_nim@@@@0@Z 004c1910 f i u_s_game2_nim.obj
 0001:000c0910       ?_Destroy@?$vector@U?$undo@Vboard_ttt2@@@@V?$allocator@U?$undo@Vboard_ttt2@@@@@std@@@std@@AAEXPAU?$undo@Vboard_ttt2@@@@0@Z 004c1910 f i u_s_game2_ttt2.obj
 0001:000c0910       ?_Destroy@?$vector@U?$undo@Vboard_opposition@@@@V?$allocator@U?$undo@Vboard_opposition@@@@@std@@@std@@AAEXPAU?$undo@Vboard_opposition@@@@0@Z 004c1910 f i u_s_game2_opposition.obj
 0001:000c0910       ?_Destroy@?$vector@U?$undo@Vboard_endgame@@@@V?$allocator@U?$undo@Vboard_endgame@@@@@std@@@std@@AAEXPAU?$undo@Vboard_endgame@@@@0@Z 004c1910 f i u_s_game2_endgame.obj
 0001:000c0910       ?_Destroy@?$vector@U?$undo@Vboard_ttt@@@@V?$allocator@U?$undo@Vboard_ttt@@@@@std@@@std@@AAEXPAU?$undo@Vboard_ttt@@@@0@Z 004c1910 f i u_s_game2_ttt.obj
 0001:000c0910       ?_Destroy@?$vector@U?$undo@Vboard_foxgoose@@@@V?$allocator@U?$undo@Vboard_foxgoose@@@@@std@@@std@@AAEXPAU?$undo@Vboard_foxgoose@@@@0@Z 004c1910 f i u_s_game2_foxgoose.obj
 0001:000c0940       ?_Destroy@?$vector@Vboard_endgame@@V?$allocator@Vboard_endgame@@@std@@@std@@AAEXPAVboard_endgame@@0@Z 004c1940 f i u_s_game2_endgame.obj
 0001:000c0940       ?_Destroy@?$vector@Vboard_opposition@@V?$allocator@Vboard_opposition@@@std@@@std@@AAEXPAVboard_opposition@@0@Z 004c1940 f i u_s_game2_opposition.obj
 0001:000c0940       ?_Destroy@?$vector@Vboard_ttt2@@V?$allocator@Vboard_ttt2@@@std@@@std@@AAEXPAVboard_ttt2@@0@Z 004c1940 f i u_s_game2_ttt2.obj
 0001:000c0940       ?_Destroy@?$vector@Vboard_ttt@@V?$allocator@Vboard_ttt@@@std@@@std@@AAEXPAVboard_ttt@@0@Z 004c1940 f i u_s_game2_ttt.obj
 0001:000c0940       ?_Destroy@?$vector@Vboard_nim@@V?$allocator@Vboard_nim@@@std@@@std@@AAEXPAVboard_nim@@0@Z 004c1940 f i u_s_game2_nim.obj
 0001:000c0940       ?_Destroy@?$vector@Vboard_foxgoose@@V?$allocator@Vboard_foxgoose@@@std@@@std@@AAEXPAVboard_foxgoose@@0@Z 004c1940 f i u_s_game2_foxgoose.obj
 0001:000c0970       ?backtrack@?$game@Vboard_opposition@@@@QAEXXZ 004c1970 f i u_s_game2_opposition.obj
 0001:000c0970       ?backtrack@?$game@Vboard_ttt2@@@@QAEXXZ 004c1970 f i u_s_game2_ttt2.obj
 0001:000c0970       ?backtrack@?$game@Vboard_endgame@@@@QAEXXZ 004c1970 f i u_s_game2_endgame.obj
 0001:000c0970       ?backtrack@?$game@Vboard_ttt@@@@QAEXXZ 004c1970 f i u_s_game2_ttt.obj
 0001:000c0970       ?backtrack@?$game@Vboard_nim@@@@QAEXXZ 004c1970 f i u_s_game2_nim.obj
 0001:000c0970       ?backtrack@?$game@Vboard_foxgoose@@@@QAEXXZ 004c1970 f i u_s_game2_foxgoose.obj
 0001:000c0d20       ?changeturn@?$game@Vboard_nim@@@@QAEXH@Z 004c1d20 f i u_s_game2_nim.obj
 0001:000c0d20       ?changeturn@?$game@Vboard_opposition@@@@QAEXH@Z 004c1d20 f i u_s_game2_opposition.obj
 0001:000c0d20       ?changeturn@?$game@Vboard_ttt@@@@QAEXH@Z 004c1d20 f i u_s_game2_ttt.obj
 0001:000c0d20       ?changeturn@?$game@Vboard_foxgoose@@@@QAEXH@Z 004c1d20 f i u_s_game2_foxgoose.obj
 0001:000c0d20       ?changeturn@?$game@Vboard_ttt2@@@@QAEXH@Z 004c1d20 f i u_s_game2_ttt2.obj
 0001:000c0d20       ?changeturn@?$game@Vboard_endgame@@@@QAEXH@Z 004c1d20 f i u_s_game2_endgame.obj
 0001:000c0d60       ?checkmove1@board_endgame@@QBE_NHABUpointi2b8@@@Z 004c1d60 f   u_s_game2_endgame.obj
 0001:000c0f20       ?checkmove@board_endgame@@QBE_NHABUpointi2b8@@@Z 004c1f20 f   u_s_game2_endgame.obj
 0001:000c0fe0       ?deallocate@?$allocator@U?$undo@Vboard_ttt@@@@@std@@QAEXQAU?$undo@Vboard_ttt@@@@I@Z 004c1fe0 f i u_s_game2_ttt.obj
 0001:000c0fe0       ?deallocate@?$allocator@U?$undo@Vboard_nim@@@@@std@@QAEXQAU?$undo@Vboard_nim@@@@I@Z 004c1fe0 f i u_s_game2_nim.obj
 0001:000c0fe0       ?deallocate@?$allocator@U?$undo@Vboard_endgame@@@@@std@@QAEXQAU?$undo@Vboard_endgame@@@@I@Z 004c1fe0 f i u_s_game2_endgame.obj
 0001:000c0fe0       ?deallocate@?$allocator@U?$undo@Vboard_foxgoose@@@@@std@@QAEXQAU?$undo@Vboard_foxgoose@@@@I@Z 004c1fe0 f i u_s_game2_foxgoose.obj
 0001:000c0fe0       ?deallocate@?$allocator@U?$undo@Vboard_opposition@@@@@std@@QAEXQAU?$undo@Vboard_opposition@@@@I@Z 004c1fe0 f i u_s_game2_opposition.obj
 0001:000c0fe0       ?deallocate@?$allocator@U?$undo@Vboard_ttt2@@@@@std@@QAEXQAU?$undo@Vboard_ttt2@@@@I@Z 004c1fe0 f i u_s_game2_ttt2.obj
 0001:000c1020       ?deallocate@?$allocator@Vboard_nim@@@std@@QAEXQAVboard_nim@@I@Z 004c2020 f i u_s_game2_nim.obj
 0001:000c1020       ?deallocate@?$allocator@Vboard_ttt@@@std@@QAEXQAVboard_ttt@@I@Z 004c2020 f i u_s_game2_ttt.obj
 0001:000c1020       ?deallocate@?$allocator@Vboard_ttt2@@@std@@QAEXQAVboard_ttt2@@I@Z 004c2020 f i u_s_game2_ttt2.obj
 0001:000c1020       ?deallocate@?$allocator@Vboard_foxgoose@@@std@@QAEXQAVboard_foxgoose@@I@Z 004c2020 f i u_s_game2_foxgoose.obj
 0001:000c1020       ?deallocate@?$allocator@Udebinfo@@@std@@QAEXQAUdebinfo@@I@Z 004c2020 f i engq:m_debp.obj
 0001:000c1020       ?deallocate@?$allocator@Vboard_endgame@@@std@@QAEXQAVboard_endgame@@I@Z 004c2020 f i u_s_game2_endgame.obj
 0001:000c1020       ?deallocate@?$allocator@Vboard_opposition@@@std@@QAEXQAVboard_opposition@@I@Z 004c2020 f i u_s_game2_opposition.obj
 0001:000c1060       ?draw@?$game@Vboard_endgame@@@@QBEXXZ 004c2060 f i u_s_game2_endgame.obj
 0001:000c1400       ?draw@board_endgame@@QBEXHABVpiece2@@_NPBUpointi2@@@Z 004c2400 f   u_s_game2_endgame.obj
 0001:000c1400       ?draw@board_foxgoose@@QBEXHABVpiece2@@_NPBUpointi2@@@Z 004c2400 f   u_s_game2_foxgoose.obj
 0001:000c1400       ?draw@board_opposition@@QBEXHABVpiece2@@_NPBUpointi2@@@Z 004c2400 f   u_s_game2_opposition.obj
 0001:000c1530       ?find_aboard@?$game@Vboard_nim@@@@QBEHABVboard_nim@@@Z 004c2530 f i u_s_game2_nim.obj
 0001:000c1530       ?find_aboard@?$game@Vboard_ttt@@@@QBEHABVboard_ttt@@@Z 004c2530 f i u_s_game2_ttt.obj
 0001:000c1530       ?find_aboard@?$game@Vboard_endgame@@@@QBEHABVboard_endgame@@@Z 004c2530 f i u_s_game2_endgame.obj
 0001:000c1530       ?find_aboard@?$game@Vboard_opposition@@@@QBEHABVboard_opposition@@@Z 004c2530 f i u_s_game2_opposition.obj
 0001:000c1530       ?find_aboard@?$game@Vboard_foxgoose@@@@QBEHABVboard_foxgoose@@@Z 004c2530 f i u_s_game2_foxgoose.obj
 0001:000c1530       ?find_aboard@?$game@Vboard_ttt2@@@@QBEHABVboard_ttt2@@@Z 004c2530 f i u_s_game2_ttt2.obj
 0001:000c1600       ?game2_endgamedraw2d@@YAXXZ 004c2600 f   u_s_game2_endgame.obj
 0001:000c1640       ?game2_endgameexit@@YAXXZ  004c2640 f   u_s_game2_endgame.obj
 0001:000c16d0       ?game2_endgameinit@@YAXXZ  004c26d0 f   u_s_game2_endgame.obj
 0001:000c18f0       ?game2_endgameproc@@YAXXZ  004c28f0 f   u_s_game2_endgame.obj
 0001:000c1ad0       ?getcompturn@?$game@Vboard_endgame@@@@QBEXPAHPAUpointi2b8@@@Z 004c2ad0 f i u_s_game2_endgame.obj
 0001:000c21e0       ?getcompturnstupidlist@?$game@Vboard_endgame@@@@QBE?AV?$vector@Uturndata@@V?$allocator@Uturndata@@@std@@@std@@XZ 004c31e0 f i u_s_game2_endgame.obj
 0001:000c2430       ?getlevels@?$game@Vboard_opposition@@@@SAPAVscript@@XZ 004c3430 f i u_s_game2_opposition.obj
 0001:000c2430       ?getlevels@?$game@Vboard_endgame@@@@SAPAVscript@@XZ 004c3430 f i u_s_game2_endgame.obj
 0001:000c2430       ?getlevels@?$game@Vboard_foxgoose@@@@SAPAVscript@@XZ 004c3430 f i u_s_game2_foxgoose.obj
 0001:000c2430       ?getlevels@?$game@Vboard_nim@@@@SAPAVscript@@XZ 004c3430 f i u_s_game2_nim.obj
 0001:000c2430       ?getlevels@?$game@Vboard_ttt2@@@@SAPAVscript@@XZ 004c3430 f i u_s_game2_ttt2.obj
 0001:000c2430       ?getlevels@?$game@Vboard_ttt@@@@SAPAVscript@@XZ 004c3430 f i u_s_game2_ttt.obj
 0001:000c26f0       ?getresult@board_endgame@@QBE?AUgamestatus@@XZ 004c36f0 f   u_s_game2_endgame.obj
 0001:000c2890       ?incheck@board_endgame@@QBE_NXZ 004c3890 f   u_s_game2_endgame.obj
 0001:000c29f0       ?isjump@board_endgame@@QBE_NHABUpointi2b8@@@Z 004c39f0 f   u_s_game2_endgame.obj
 0001:000c2b40       ?movepiece@board_endgame@@QAEXHABUpointi2b8x@@@Z 004c3b40 f   u_s_game2_endgame.obj
 0001:000c2bf0       ?popundo@?$game@Vboard_foxgoose@@@@QAEXXZ 004c3bf0 f i u_s_game2_foxgoose.obj
 0001:000c2bf0       ?popundo@?$game@Vboard_ttt@@@@QAEXXZ 004c3bf0 f i u_s_game2_ttt.obj
 0001:000c2bf0       ?popundo@?$game@Vboard_nim@@@@QAEXXZ 004c3bf0 f i u_s_game2_nim.obj
 0001:000c2bf0       ?popundo@?$game@Vboard_opposition@@@@QAEXXZ 004c3bf0 f i u_s_game2_opposition.obj
 0001:000c2bf0       ?popundo@?$game@Vboard_ttt2@@@@QAEXXZ 004c3bf0 f i u_s_game2_ttt2.obj
 0001:000c2bf0       ?popundo@?$game@Vboard_endgame@@@@QAEXXZ 004c3bf0 f i u_s_game2_endgame.obj
 0001:000c2c40       ?proc@?$game@Vboard_endgame@@@@QAEXXZ 004c3c40 f i u_s_game2_endgame.obj
 0001:000c3260       ?push_back@?$vector@Vboard_endgame@@V?$allocator@Vboard_endgame@@@std@@@std@@QAEXABVboard_endgame@@@Z 004c4260 f i u_s_game2_endgame.obj
 0001:000c3260       ?push_back@?$vector@Vboard_ttt2@@V?$allocator@Vboard_ttt2@@@std@@@std@@QAEXABVboard_ttt2@@@Z 004c4260 f i u_s_game2_ttt2.obj
 0001:000c3260       ?push_back@?$vector@Vboard_opposition@@V?$allocator@Vboard_opposition@@@std@@@std@@QAEXABVboard_opposition@@@Z 004c4260 f i u_s_game2_opposition.obj
 0001:000c3260       ?push_back@?$vector@Vboard_foxgoose@@V?$allocator@Vboard_foxgoose@@@std@@@std@@QAEXABVboard_foxgoose@@@Z 004c4260 f i u_s_game2_foxgoose.obj
 0001:000c3260       ?push_back@?$vector@Vboard_nim@@V?$allocator@Vboard_nim@@@std@@@std@@QAEXABVboard_nim@@@Z 004c4260 f i u_s_game2_nim.obj
 0001:000c3260       ?push_back@?$vector@Vboard_ttt@@V?$allocator@Vboard_ttt@@@std@@@std@@QAEXABVboard_ttt@@@Z 004c4260 f i u_s_game2_ttt.obj
 0001:000c32f0       ?push_board_uniq@?$game@Vboard_endgame@@@@QAEHABVboard_endgame@@@Z 004c42f0 f i u_s_game2_endgame.obj
 0001:000c3420       ?pushundo@?$game@Vboard_endgame@@@@QAEXXZ 004c4420 f i u_s_game2_endgame.obj
 0001:000c3420       ?pushundo@?$game@Vboard_nim@@@@QAEXXZ 004c4420 f i u_s_game2_nim.obj
 0001:000c3420       ?pushundo@?$game@Vboard_ttt2@@@@QAEXXZ 004c4420 f i u_s_game2_ttt2.obj
 0001:000c3420       ?pushundo@?$game@Vboard_opposition@@@@QAEXXZ 004c4420 f i u_s_game2_opposition.obj
 0001:000c3420       ?pushundo@?$game@Vboard_foxgoose@@@@QAEXXZ 004c4420 f i u_s_game2_foxgoose.obj
 0001:000c3420       ?pushundo@?$game@Vboard_ttt@@@@QAEXXZ 004c4420 f i u_s_game2_ttt.obj
 0001:000c34f0       ?readstrategy@?$game@Vboard_opposition@@@@QAE_NPAU_iobuf@@@Z 004c44f0 f i u_s_game2_opposition.obj
 0001:000c34f0       ?readstrategy@?$game@Vboard_endgame@@@@QAE_NPAU_iobuf@@@Z 004c44f0 f i u_s_game2_endgame.obj
 0001:000c34f0       ?readstrategy@?$game@Vboard_nim@@@@QAE_NPAU_iobuf@@@Z 004c44f0 f i u_s_game2_nim.obj
 0001:000c34f0       ?readstrategy@?$game@Vboard_ttt2@@@@QAE_NPAU_iobuf@@@Z 004c44f0 f i u_s_game2_ttt2.obj
 0001:000c34f0       ?readstrategy@?$game@Vboard_foxgoose@@@@QAE_NPAU_iobuf@@@Z 004c44f0 f i u_s_game2_foxgoose.obj
 0001:000c34f0       ?readstrategy@?$game@Vboard_ttt@@@@QAE_NPAU_iobuf@@@Z 004c44f0 f i u_s_game2_ttt.obj
 0001:000c3730       ?reset@?$game@Vboard_foxgoose@@@@QAEXXZ 004c4730 f i u_s_game2_foxgoose.obj
 0001:000c3730       ?reset@?$game@Vboard_ttt@@@@QAEXXZ 004c4730 f i u_s_game2_ttt.obj
 0001:000c3730       ?reset@?$game@Vboard_endgame@@@@QAEXXZ 004c4730 f i u_s_game2_endgame.obj
 0001:000c3730       ?reset@?$game@Vboard_ttt2@@@@QAEXXZ 004c4730 f i u_s_game2_ttt2.obj
 0001:000c3730       ?reset@?$game@Vboard_opposition@@@@QAEXXZ 004c4730 f i u_s_game2_opposition.obj
 0001:000c3730       ?reset@?$game@Vboard_nim@@@@QAEXXZ 004c4730 f i u_s_game2_nim.obj
 0001:000c3790       ?showhint@?$game@Vboard_endgame@@@@QBEXXZ 004c4790 f i u_s_game2_endgame.obj
 0001:000c3d40       ?studygame@?$game@Vboard_endgame@@@@QAEXXZ 004c4d40 f i u_s_game2_endgame.obj
 0001:000c4320       ?studygames@?$game@Vboard_endgame@@@@QAEX_N0@Z 004c5320 f i u_s_game2_endgame.obj
 0001:000c46d0       ?symlo@?$game@Vboard_ttt2@@@@QBE?AVboard_ttt2@@ABV2@@Z 004c56d0 f i u_s_game2_ttt2.obj
 0001:000c46d0       ?symlo@?$game@Vboard_foxgoose@@@@QBE?AVboard_foxgoose@@ABV2@@Z 004c56d0 f i u_s_game2_foxgoose.obj
 0001:000c46d0       ?symlo@?$game@Vboard_ttt@@@@QBE?AVboard_ttt@@ABV2@@Z 004c56d0 f i u_s_game2_ttt.obj
 0001:000c46d0       ?symlo@?$game@Vboard_endgame@@@@QBE?AVboard_endgame@@ABV2@@Z 004c56d0 f i u_s_game2_endgame.obj
 0001:000c46d0       ?symlo@?$game@Vboard_opposition@@@@QBE?AVboard_opposition@@ABV2@@Z 004c56d0 f i u_s_game2_opposition.obj
 0001:000c46d0       ?symlo@?$game@Vboard_nim@@@@QBE?AVboard_nim@@ABV2@@Z 004c56d0 f i u_s_game2_nim.obj
 0001:000c4b80       ??0?$game@Vboard_foxgoose@@@@QAE@V?$basic_string@DU?$char_traits@D@std@@V?$allocator@D@2@@std@@@Z 004c5b80 f i u_s_game2_foxgoose.obj
 0001:000c4e20       ?checkmove@board_foxgoose@@QBE_NHABUpointi2b8@@@Z 004c5e20 f   u_s_game2_foxgoose.obj
 0001:000c4ec0       ?draw@?$game@Vboard_foxgoose@@@@QBEXXZ 004c5ec0 f i u_s_game2_foxgoose.obj
 0001:000c5260       ?game2_foxgoosedraw2d@@YAXXZ 004c6260 f   u_s_game2_foxgoose.obj
 0001:000c52a0       ?game2_foxgooseexit@@YAXXZ 004c62a0 f   u_s_game2_foxgoose.obj
 0001:000c5330       ?game2_foxgooseinit@@YAXXZ 004c6330 f   u_s_game2_foxgoose.obj
 0001:000c5530       ?game2_foxgooseproc@@YAXXZ 004c6530 f   u_s_game2_foxgoose.obj
 0001:000c5710       ?getcompturn@?$game@Vboard_foxgoose@@@@QBEXPAHPAUpointi2b8@@@Z 004c6710 f i u_s_game2_foxgoose.obj
 0001:000c5e20       ?getcompturnstupidlist@?$game@Vboard_foxgoose@@@@QBE?AV?$vector@Uturndata@@V?$allocator@Uturndata@@@std@@@std@@XZ 004c6e20 f i u_s_game2_foxgoose.obj
 0001:000c5fd0       ?getresult@board_foxgoose@@QBE?AUgamestatus@@XZ 004c6fd0 f   u_s_game2_foxgoose.obj
 0001:000c60e0       ?proc@?$game@Vboard_foxgoose@@@@QAEXXZ 004c70e0 f i u_s_game2_foxgoose.obj
 0001:000c6700       ?push_board_uniq@?$game@Vboard_foxgoose@@@@QAEHABVboard_foxgoose@@@Z 004c7700 f i u_s_game2_foxgoose.obj
 0001:000c6830       ?showhint@?$game@Vboard_foxgoose@@@@QBEXXZ 004c7830 f i u_s_game2_foxgoose.obj
 0001:000c6dd0       ?studygame@?$game@Vboard_foxgoose@@@@QAEXXZ 004c7dd0 f i u_s_game2_foxgoose.obj
 0001:000c72b0       ?studygames@?$game@Vboard_foxgoose@@@@QAEX_N0@Z 004c82b0 f i u_s_game2_foxgoose.obj
 0001:000c7660       ??0?$game@Vboard_nim@@@@QAE@V?$basic_string@DU?$char_traits@D@std@@V?$allocator@D@2@@std@@@Z 004c8660 f i u_s_game2_nim.obj
 0001:000c7900       ?checkmove@board_nim@@QBE_NHABUpointi2b8@@@Z 004c8900 f   u_s_game2_nim.obj
 0001:000c7950       ?draw@?$game@Vboard_nim@@@@QBEXXZ 004c8950 f i u_s_game2_nim.obj
 0001:000c7d00       ?game2_nimdraw2d@@YAXXZ    004c8d00 f   u_s_game2_nim.obj
 0001:000c7d40       ?game2_nimexit@@YAXXZ      004c8d40 f   u_s_game2_nim.obj
 0001:000c7dd0       ?game2_niminit@@YAXXZ      004c8dd0 f   u_s_game2_nim.obj
 0001:000c7fd0       ?game2_nimproc@@YAXXZ      004c8fd0 f   u_s_game2_nim.obj
 0001:000c81b0       ?getcompturn@?$game@Vboard_nim@@@@QBEXPAHPAUpointi2b8@@@Z 004c91b0 f i u_s_game2_nim.obj
 0001:000c88c0       ?getcompturnstupidlist@?$game@Vboard_nim@@@@QBE?AV?$vector@Uturndata@@V?$allocator@Uturndata@@@std@@@std@@XZ 004c98c0 f i u_s_game2_nim.obj
 0001:000c8af0       ?proc@?$game@Vboard_nim@@@@QAEXXZ 004c9af0 f i u_s_game2_nim.obj
 0001:000c90e0       ?push_board_uniq@?$game@Vboard_nim@@@@QAEHABVboard_nim@@@Z 004ca0e0 f i u_s_game2_nim.obj
 0001:000c9230       ?showhint@?$game@Vboard_nim@@@@QBEXXZ 004ca230 f i u_s_game2_nim.obj
 0001:000c97d0       ?studygame@?$game@Vboard_nim@@@@QAEXXZ 004ca7d0 f i u_s_game2_nim.obj
 0001:000c9d20       ?studygames@?$game@Vboard_nim@@@@QAEX_N0@Z 004cad20 f i u_s_game2_nim.obj
 0001:000ca0d0       ??0?$game@Vboard_opposition@@@@QAE@V?$basic_string@DU?$char_traits@D@std@@V?$allocator@D@2@@std@@@Z 004cb0d0 f i u_s_game2_opposition.obj
 0001:000ca3c0       ?checkmove@board_opposition@@QBE_NHABUpointi2b8@@@Z 004cb3c0 f   u_s_game2_opposition.obj
 0001:000ca470       ?draw@?$game@Vboard_opposition@@@@QBEXXZ 004cb470 f i u_s_game2_opposition.obj
 0001:000ca810       ?game2_oppositiondraw2d@@YAXXZ 004cb810 f   u_s_game2_opposition.obj
 0001:000ca850       ?game2_oppositionexit@@YAXXZ 004cb850 f   u_s_game2_opposition.obj
 0001:000ca8e0       ?game2_oppositioninit@@YAXXZ 004cb8e0 f   u_s_game2_opposition.obj
 0001:000caae0       ?game2_oppositionproc@@YAXXZ 004cbae0 f   u_s_game2_opposition.obj
 0001:000cacc0       ?getcompturn@?$game@Vboard_opposition@@@@QBEXPAHPAUpointi2b8@@@Z 004cbcc0 f i u_s_game2_opposition.obj
 0001:000cb3d0       ?getcompturnstupidlist@?$game@Vboard_opposition@@@@QBE?AV?$vector@Uturndata@@V?$allocator@Uturndata@@@std@@@std@@XZ 004cc3d0 f i u_s_game2_opposition.obj
 0001:000cb580       ?getresult@board_opposition@@QBE?AUgamestatus@@XZ 004cc580 f   u_s_game2_opposition.obj
 0001:000cb5f0       ?proc@?$game@Vboard_opposition@@@@QAEXXZ 004cc5f0 f i u_s_game2_opposition.obj
 0001:000cbc10       ?push_board_uniq@?$game@Vboard_opposition@@@@QAEHABVboard_opposition@@@Z 004ccc10 f i u_s_game2_opposition.obj
 0001:000cbd80       ?showhint@?$game@Vboard_opposition@@@@QBEXXZ 004ccd80 f i u_s_game2_opposition.obj
 0001:000cc320       ?studygame@?$game@Vboard_opposition@@@@QAEXXZ 004cd320 f i u_s_game2_opposition.obj
 0001:000cc860       ?studygames@?$game@Vboard_opposition@@@@QAEX_N0@Z 004cd860 f i u_s_game2_opposition.obj
 0001:000ccc10       ??0?$game@Vboard_ttt@@@@QAE@V?$basic_string@DU?$char_traits@D@std@@V?$allocator@D@2@@std@@@Z 004cdc10 f i u_s_game2_ttt.obj
 0001:000ccc10       ??0?$game@Vboard_ttt2@@@@QAE@V?$basic_string@DU?$char_traits@D@std@@V?$allocator@D@2@@std@@@Z 004cdc10 f i u_s_game2_ttt2.obj
 0001:000cced0       ?draw@?$game@Vboard_ttt@@@@QBEXXZ 004cded0 f i u_s_game2_ttt.obj
 0001:000cd270       ?game2_tttdraw2d@@YAXXZ    004ce270 f   u_s_game2_ttt.obj
 0001:000cd2b0       ?game2_tttexit@@YAXXZ      004ce2b0 f   u_s_game2_ttt.obj
 0001:000cd340       ?game2_tttinit@@YAXXZ      004ce340 f   u_s_game2_ttt.obj
 0001:000cd540       ?game2_tttproc@@YAXXZ      004ce540 f   u_s_game2_ttt.obj
 0001:000cd720       ?getcompturn@?$game@Vboard_ttt@@@@QBEXPAHPAUpointi2b8@@@Z 004ce720 f i u_s_game2_ttt.obj
 0001:000cd720       ?getcompturn@?$game@Vboard_ttt2@@@@QBEXPAHPAUpointi2b8@@@Z 004ce720 f i u_s_game2_ttt2.obj
 0001:000cde00       ?getcompturnstupidlist@?$game@Vboard_ttt@@@@QBE?AV?$vector@Uturndata@@V?$allocator@Uturndata@@@std@@@std@@XZ 004cee00 f i u_s_game2_ttt.obj
 0001:000cde00       ?getcompturnstupidlist@?$game@Vboard_ttt2@@@@QBE?AV?$vector@Uturndata@@V?$allocator@Uturndata@@@std@@@std@@XZ 004cee00 f i u_s_game2_ttt2.obj
 0001:000cdfb0       ?getresult@board_ttt@@QBE?AUgamestatus@@XZ 004cefb0 f   u_s_game2_ttt.obj
 0001:000cdfb0       ?getresult@board_ttt2@@QBE?AUgamestatus@@XZ 004cefb0 f   u_s_game2_ttt2.obj
 0001:000ce100       ?movepiece@board_ttt@@QAEXHABUpointi2b8@@@Z 004cf100 f   u_s_game2_ttt.obj
 0001:000ce100       ?movepiece@board_ttt2@@QAEXHABUpointi2b8@@@Z 004cf100 f   u_s_game2_ttt2.obj
 0001:000ce160       ?proc@?$game@Vboard_ttt@@@@QAEXXZ 004cf160 f i u_s_game2_ttt.obj
 0001:000ce160       ?proc@?$game@Vboard_ttt2@@@@QAEXXZ 004cf160 f i u_s_game2_ttt2.obj
 0001:000ce740       ?push_board_uniq@?$game@Vboard_ttt@@@@QAEHABVboard_ttt@@@Z 004cf740 f i u_s_game2_ttt.obj
 0001:000ce740       ?push_board_uniq@?$game@Vboard_ttt2@@@@QAEHABVboard_ttt2@@@Z 004cf740 f i u_s_game2_ttt2.obj
 0001:000ce870       ?showhint@?$game@Vboard_ttt2@@@@QBEXXZ 004cf870 f i u_s_game2_ttt2.obj
 0001:000ce870       ?showhint@?$game@Vboard_ttt@@@@QBEXXZ 004cf870 f i u_s_game2_ttt.obj
 0001:000ceee0       ?studygame@?$game@Vboard_ttt@@@@QAEXXZ 004cfee0 f i u_s_game2_ttt.obj
 0001:000ceee0       ?studygame@?$game@Vboard_ttt2@@@@QAEXXZ 004cfee0 f i u_s_game2_ttt2.obj
 0001:000cf420       ?studygames@?$game@Vboard_ttt2@@@@QAEX_N0@Z 004d0420 f i u_s_game2_ttt2.obj
 0001:000cf420       ?studygames@?$game@Vboard_ttt@@@@QAEX_N0@Z 004d0420 f i u_s_game2_ttt.obj
 0001:000cf7d0       ?draw@?$game@Vboard_ttt2@@@@QBEXXZ 004d07d0 f i u_s_game2_ttt2.obj
 0001:000cfb70       ?game2_ttt2draw2d@@YAXXZ   004d0b70 f   u_s_game2_ttt2.obj
 0001:000cfbb0       ?game2_ttt2exit@@YAXXZ     004d0bb0 f   u_s_game2_ttt2.obj
 0001:000cfc40       ?game2_ttt2init@@YAXXZ     004d0c40 f   u_s_game2_ttt2.obj
 0001:000cfe40       ?game2_ttt2proc@@YAXXZ     004d0e40 f   u_s_game2_ttt2.obj
 0001:000d0380       ?gametheorydraw2d@@YAXXZ   004d1380 f   u_s_gametheory.obj
 0001:000d03c0       ?gametheoryexit@@YAXXZ     004d13c0 f   u_s_gametheory.obj
 0001:000d03e0       ?gametheoryinit@@YAXXZ     004d13e0 f   u_s_gametheory.obj
 0001:000d0e40       ?gametheoryproc@@YAXXZ     004d1e40 f   u_s_gametheory.obj
 0001:000d1690       ?gfxtestdraw2d@@YAXXZ      004d2690 f   u_s_gfxtest.obj
 0001:000d1870       ?gfxtestexit@@YAXXZ        004d2870 f   u_s_gfxtest.obj
 0001:000d1890       ?gfxtestinit@@YAXXZ        004d2890 f   u_s_gfxtest.obj
 0001:000d18f0       ?gfxtestproc@@YAXXZ        004d28f0 f   u_s_gfxtest.obj
 0001:000d1ab0       ?gfxviewdraw2d@@YAXXZ      004d2ab0 f   u_s_gfxview.obj
 0001:000d1df0       ?gfxviewexit@@YAXXZ        004d2df0 f   u_s_gfxview.obj
 0001:000d1e20       ?gfxviewinit@@YAXXZ        004d2e20 f   u_s_gfxview.obj
 0001:000d1e90       ?gfxviewproc@@YAXXZ        004d2e90 f   u_s_gfxview.obj
 0001:000d21e0       ?halfpipedraw2d@@YAXXZ     004d31e0 f   u_s_halfpipe.obj
 0001:000d2400       ?halfpipeexit@@YAXXZ       004d3400 f   u_s_halfpipe.obj
 0001:000d24c0       ?halfpipeinit@@YAXXZ       004d34c0 f   u_s_halfpipe.obj
 0001:000d2660       ?halfpipeproc@@YAXXZ       004d3660 f   u_s_halfpipe.obj
 0001:000d2700       ?doheat@u_s_heat_house@@YAXXZ 004d3700 f   u_s_heathouse.obj
 0001:000d2940       ?heathousedraw2d@@YAXXZ    004d3940 f   u_s_heathouse.obj
 0001:000d2ae0       ?heathouseexit@@YAXXZ      004d3ae0 f   u_s_heathouse.obj
 0001:000d2b60       ?heathouseinit@@YAXXZ      004d3b60 f   u_s_heathouse.obj
 0001:000d2d40       ?heathouseproc@@YAXXZ      004d3d40 f   u_s_heathouse.obj
 0001:000d2e50       ?scanroom@u_s_heat_house@@YAXXZ 004d3e50 f   u_s_heathouse.obj
 0001:000d3060       ?setdacrange@u_s_heat_house@@YAXHHUC32@@0@Z 004d4060 f   u_s_heathouse.obj
 0001:000d3130       ??0EditPixels@holoview2d@@QAE@XZ 004d4130 f   u_s_holoview2d.obj
 0001:000d33a0       ?draw@EditPixels@holoview2d@@QBEXXZ 004d43a0 f   u_s_holoview2d.obj
 0001:000d3620       ?holoview2ddraw2d@@YAXXZ   004d4620 f   u_s_holoview2d.obj
 0001:000d3760       ?holoview2dexit@@YAXXZ     004d4760 f   u_s_holoview2d.obj
 0001:000d37e0       ?holoview2dinit@@YAXXZ     004d47e0 f   u_s_holoview2d.obj
 0001:000d38c0       ?holoview2dproc@@YAXXZ     004d48c0 f   u_s_holoview2d.obj
 0001:000d3a60       ??0EditPixels@holoview2db@@QAE@XZ 004d4a60 f   u_s_holoview2db.obj
 0001:000d3d30       ?draw@EditPixels@holoview2db@@QBEXXZ 004d4d30 f   u_s_holoview2db.obj
 0001:000d4070       ?drawBrushSelect@EditPixels@holoview2db@@ABEXXZ 004d5070 f   u_s_holoview2db.obj
 0001:000d4290       ?holoview2dbdraw2d@@YAXXZ  004d5290 f   u_s_holoview2db.obj
 0001:000d45b0       ?holoview2dbexit@@YAXXZ    004d55b0 f   u_s_holoview2db.obj
 0001:000d4710       ?holoview2dbinit@@YAXXZ    004d5710 f   u_s_holoview2db.obj
 0001:000d48d0       ?holoview2dbproc@@YAXXZ    004d58d0 f   u_s_holoview2db.obj
 0001:000d4940       ?proc@EditPixels@holoview2db@@QAEXXZ 004d5940 f   u_s_holoview2db.obj
 0001:000d4c00       ?holoview3ddraw3d@@YAXXZ   004d5c00 f   u_s_holoview3d.obj
 0001:000d4c30       ?holoview3dexit@@YAXXZ     004d5c30 f   u_s_holoview3d.obj
 0001:000d4c70       ?holoview3dinit@@YAXXZ     004d5c70 f   u_s_holoview3d.obj
 0001:000d4e00       ?holoview3dproc@@YAXXZ     004d5e00 f   u_s_holoview3d.obj
 0001:000d4e30       ??$_Copy_unchecked@PAV?$basic_string@DU?$char_traits@D@std@@V?$allocator@D@2@@std@@PAV12@@std@@YAPAV?$basic_string@DU?$char_traits@D@std@@V?$allocator@D@2@@0@PAV10@00@Z 004d5e30 f i u_s_honeycomb.obj
 0001:000d4e70       ??$_Ucopy@PAV?$basic_string@DU?$char_traits@D@std@@V?$allocator@D@2@@std@@@?$vector@V?$basic_string@DU?$char_traits@D@std@@V?$allocator@D@2@@std@@V?$allocator@V?$basic_string@DU?$char_traits@D@std@@V?$allocator@D@2@@std@@@2@@std@@AAEPAV?$basic_string@DU?$char_traits@D@std@@V?$allocator@D@2@@1@PAV21@00@Z 004d5e70 f i u_s_honeycomb.obj
 0001:000d4ef0       ??4?$vector@V?$basic_string@DU?$char_traits@D@std@@V?$allocator@D@2@@std@@V?$allocator@V?$basic_string@DU?$char_traits@D@std@@V?$allocator@D@2@@std@@@2@@std@@QAEAAV01@ABV01@@Z 004d5ef0 f i u_s_honeycomb.obj
 0001:000d5030       ?_Buy@?$vector@V?$basic_string@DU?$char_traits@D@std@@V?$allocator@D@2@@std@@V?$allocator@V?$basic_string@DU?$char_traits@D@std@@V?$allocator@D@2@@std@@@2@@std@@AAE_NI@Z 004d6030 f i u_s_honeycomb.obj
 0001:000d5090       ?changeturn@honeycomb@@YAXH@Z 004d6090 f   u_s_honeycomb.obj
 0001:000d50f0       ?checkmove@honeycomb@@YAHHH@Z 004d60f0 f   u_s_honeycomb.obj
 0001:000d5130       ?filltree@honeycomb@@YAXXZ 004d6130 f   u_s_honeycomb.obj
 0001:000d5300       ?findclose@honeycomb@@YAHXZ 004d6300 f   u_s_honeycomb.obj
 0001:000d5360       ?getcompturn@honeycomb@@YAXPAH0@Z 004d6360 f   u_s_honeycomb.obj
 0001:000d55b0       ?getcompturnstupid@honeycomb@@YAXPAH0@Z 004d65b0 f   u_s_honeycomb.obj
 0001:000d56f0       ?getid@honeycomb@@YAIQAH@Z 004d66f0 f   u_s_honeycomb.obj
 0001:000d5760       ?honeycombdraw2d@@YAXXZ    004d6760 f   u_s_honeycomb.obj
 0001:000d58d0       ?honeycombexit@@YAXXZ      004d68d0 f   u_s_honeycomb.obj
 0001:000d5920       ?honeycombinit@@YAXXZ      004d6920 f   u_s_honeycomb.obj
 0001:000d6350       ?honeycombproc@@YAXXZ      004d7350 f   u_s_honeycomb.obj
 0001:000d6830       ?initboard@honeycomb@@YAXXZ 004d7830 f   u_s_honeycomb.obj
 0001:000d6870       ?logboards@honeycomb@@YAXXZ 004d7870 f   u_s_honeycomb.obj
 0001:000d6a70       ?showboard@honeycomb@@YAXHHHH@Z 004d7a70 f   u_s_honeycomb.obj
 0001:000d6d40       ?studygame@honeycomb@@YAHXZ 004d7d40 f   u_s_honeycomb.obj
 0001:000d6fb0       ??0group@@QAE@HHHH_N@Z     004d7fb0 f i u_s_ifield.obj
 0001:000d8fa0       ?drawfielderror@@YAXXZ     004d9fa0 f   u_s_ifield.obj
 0001:000d92e0       ?ifield_draw2d@@YAXXZ      004da2e0 f   u_s_ifield.obj
 0001:000d93a0       ?ifield_exit@@YAXXZ        004da3a0 f   u_s_ifield.obj
 0001:000d93f0       ?ifield_init@@YAXXZ        004da3f0 f   u_s_ifield.obj
 0001:000d9b50       ?ifield_proc@@YAXXZ        004dab50 f   u_s_ifield.obj
 0001:000da160       ?insert@?$basic_string@DU?$char_traits@D@std@@V?$allocator@D@2@@std@@QAEAAV12@IQBDI@Z 004db160 f i u_s_ifield.obj
 0001:000daa00       ?igroup_draw2d@@YAXXZ      004dba00 f   u_s_igroup.obj
 0001:000dacd0       ?igroup_exit@@YAXXZ        004dbcd0 f   u_s_igroup.obj
 0001:000dacf0       ?igroup_init@@YAXXZ        004dbcf0 f   u_s_igroup.obj
 0001:000dadb0       ?igroup_proc@@YAXXZ        004dbdb0 f   u_s_igroup.obj
 0001:000db310       ??$_Emplace_reallocate@ABUboard@jelly@@@?$vector@Uboard@jelly@@V?$allocator@Uboard@jelly@@@std@@@std@@QAEPAUboard@jelly@@QAU23@ABU23@@Z 004dc310 f i u_s_jelly.obj
 0001:000db520       ??$_Emplace_reallocate@ABUboardcollinfo@jelly@@@?$vector@Uboardcollinfo@jelly@@V?$allocator@Uboardcollinfo@jelly@@@std@@@std@@QAEPAUboardcollinfo@jelly@@QAU23@ABU23@@Z 004dc520 f i u_s_jelly.obj
 0001:000db730       ??$_Emplace_reallocate@ABUpiece@jelly@@@?$vector@Upiece@jelly@@V?$allocator@Upiece@jelly@@@std@@@std@@QAEPAUpiece@jelly@@QAU23@ABU23@@Z 004dc730 f i u_s_jelly.obj
 0001:000db860       ??$_Emplace_reallocate@ABUpointS8@jelly@@@?$vector@UpointS8@jelly@@V?$allocator@UpointS8@jelly@@@std@@@std@@QAEPAUpointS8@jelly@@QAU23@ABU23@@Z 004dc860 f i u_s_jelly.obj
 0001:000db930       ??$_Emplace_reallocate@ABUptile@jelly@@@?$vector@Uptile@jelly@@V?$allocator@Uptile@jelly@@@std@@@std@@QAEPAUptile@jelly@@QAU23@ABU23@@Z 004dc930 f i u_s_jelly.obj
 0001:000dba40       ??$_Insert_range@PAUpiece@jelly@@@?$vector@Upiece@jelly@@V?$allocator@Upiece@jelly@@@std@@@std@@AAEXV?$_Vector_const_iterator@V?$_Vector_val@U?$_Simple_types@Upiece@jelly@@@std@@@std@@@1@PAUpiece@jelly@@1Uforward_iterator_tag@1@@Z 004dca40 f i u_s_jelly.obj
 0001:000dbd90       ??$_Move_unchecked@PAUpiece@jelly@@PAU12@@std@@YAPAUpiece@jelly@@PAU12@00@Z 004dcd90 f i u_s_jelly.obj
 0001:000dbe10       ??$_Ucopy@PAUpiece@jelly@@@?$vector@Upiece@jelly@@V?$allocator@Upiece@jelly@@@std@@@std@@AAEPAUpiece@jelly@@PAU23@00@Z 004dce10 f i u_s_jelly.obj
 0001:000dbe90       ??$_Uninitialized_move@PAUpiece@jelly@@PAU12@V?$allocator@Upiece@jelly@@@std@@@std@@YAPAUpiece@jelly@@QAU12@0PAU12@AAV?$allocator@Upiece@jelly@@@0@@Z 004dce90 f i u_s_jelly.obj
 0001:000dbf10       ??0board@jelly@@QAE@PBD@Z  004dcf10 f   u_s_jelly.obj
 0001:000dc280       ??0game@jelly@@QAE@PBD@Z   004dd280 f i u_s_jelly.obj
 0001:000dc2f0       ??1?$_Uninitialized_backout_al@PAUpiece@jelly@@V?$allocator@Upiece@jelly@@@std@@@std@@QAE@XZ 004dd2f0 f i u_s_jelly.obj
 0001:000dc320       ??1?$vector@Uboard@jelly@@V?$allocator@Uboard@jelly@@@std@@@std@@QAE@XZ 004dd320 f i u_s_jelly.obj
 0001:000dc390       ??1?$vector@Uboardcollinfo@jelly@@V?$allocator@Uboardcollinfo@jelly@@@std@@@std@@QAE@XZ 004dd390 f i u_s_jelly.obj
 0001:000dc400       ??1?$vector@Upiece@jelly@@V?$allocator@Upiece@jelly@@@std@@@std@@QAE@XZ 004dd400 f i u_s_jelly.obj
 0001:000dc470       ??1?$vector@UpointS8@jelly@@V?$allocator@UpointS8@jelly@@@std@@@std@@QAE@XZ 004dd470 f i u_s_jelly.obj
 0001:000dc4d0       ??1piece@jelly@@QAE@XZ     004dd4d0 f i u_s_jelly.obj
 0001:000dc4e0       ??4?$vector@Uptile@jelly@@V?$allocator@Uptile@jelly@@@std@@@std@@QAEAAV01@ABV01@@Z 004dd4e0 f i u_s_jelly.obj
 0001:000dc620       ??_Ggame@jelly@@QAEPAXI@Z  004dd620 f i u_s_jelly.obj
 0001:000dc6b0       ?_Buy@?$vector@Uptile@jelly@@V?$allocator@Uptile@jelly@@@std@@@std@@AAE_NI@Z 004dd6b0 f i u_s_jelly.obj
 0001:000dc710       ?_Change_array@?$vector@Upiece@jelly@@V?$allocator@Upiece@jelly@@@std@@@std@@AAEXQAUpiece@jelly@@II@Z 004dd710 f i u_s_jelly.obj
 0001:000dc790       ?_Change_array@?$vector@UpointS8@jelly@@V?$allocator@UpointS8@jelly@@@std@@@std@@AAEXQAUpointS8@jelly@@II@Z 004dd790 f i u_s_jelly.obj
 0001:000dc7f0       ?_Change_array@?$vector@Uptile@jelly@@V?$allocator@Uptile@jelly@@@std@@@std@@AAEXQAUptile@jelly@@II@Z 004dd7f0 f i u_s_jelly.obj
 0001:000dc870       ?_Destroy@?$vector@Upiece@jelly@@V?$allocator@Upiece@jelly@@@std@@@std@@AAEXPAUpiece@jelly@@0@Z 004dd870 f i u_s_jelly.obj
 0001:000dc8a0       ?_Reallocate_exactly@?$vector@HV?$allocator@H@std@@@std@@AAEXI@Z 004dd8a0 f i u_s_jelly.obj
 0001:000dc930       ?_Reallocate_exactly@?$vector@Upiece@jelly@@V?$allocator@Upiece@jelly@@@std@@@std@@AAEXI@Z 004dd930 f i u_s_jelly.obj
 0001:000dc980       ?_Reallocate_exactly@?$vector@UpointS8@jelly@@V?$allocator@UpointS8@jelly@@@std@@@std@@AAEXI@Z 004dd980 f i u_s_jelly.obj
 0001:000dca10       ?_Reallocate_exactly@?$vector@Uptile@jelly@@V?$allocator@Uptile@jelly@@@std@@@std@@AAEXI@Z 004dda10 f i u_s_jelly.obj
 0001:000dca70       ?_Umove@?$vector@Upiece@jelly@@V?$allocator@Upiece@jelly@@@std@@@std@@AAEPAUpiece@jelly@@PAU34@00@Z 004dda70 f i u_s_jelly.obj
 0001:000dca90       ?addboard@boardcoll@jelly@@QAE_NABUboard@2@HHHABUms@2@@Z 004dda90 f   u_s_jelly.obj
 0001:000dcce0       ?addundo@game@jelly@@QAEXABUboard@2@@Z 004ddce0 f   u_s_jelly.obj
 0001:000dcd20       ?allocate@?$allocator@UpointS8@jelly@@@std@@QAEPAUpointS8@jelly@@I@Z 004ddd20 f i u_s_jelly.obj
 0001:000dcd90       ?draw@game@jelly@@QBEXABUpointi2@@@Z 004ddd90 f   u_s_jelly.obj
 0001:000dd560       ?floodfill@jelly@@YA?AV?$vector@Uptile@jelly@@V?$allocator@Uptile@jelly@@@std@@@std@@PAUtile@1@HABUpointS8@1@_N@Z 004de560 f   u_s_jelly.obj
 0001:000dd910       ?iswinner@game@jelly@@QAE_NXZ 004de910 f   u_s_jelly.obj
 0001:000ddb60       ?jellydraw2d@@YAXXZ        004deb60 f   u_s_jelly.obj
 0001:000ddcc0       ?jellyexit@@YAXXZ          004decc0 f   u_s_jelly.obj
 0001:000ddd40       ?jellyinit@@YAXXZ          004ded40 f   u_s_jelly.obj
 0001:000ddf70       ?jellyproc@@YAXXZ          004def70 f   u_s_jelly.obj
 0001:000de460       ?move@game@jelly@@QAE_NABUpointS8@2@U32@@Z 004df460 f   u_s_jelly.obj
 0001:000defe0       ?solve@game@jelly@@AAEXXZ  004dffe0 f   u_s_jelly.obj
 0001:000df4d0       ?areapoly@@YAMPAUpolyj@@@Z 004e04d0 f   u_s_jigpuzz.obj
 0001:000df580       ?bumpr@@YAXH@Z             004e0580 f   u_s_jigpuzz.obj
 0001:000df610       ?convertpoly@@YAXPAUpolyj@@0@Z 004e0610 f   u_s_jigpuzz.obj
 0001:000df6b0       ?drawpoly@@YAXPAUpolyj@@@Z 004e06b0 f   u_s_jigpuzz.obj
 0001:000df780       ?intsectpoly@@YAXPAUpolyj@@00@Z 004e0780 f   u_s_jigpuzz.obj
 0001:000df980       ?jigpuzzdraw2d@@YAXXZ      004e0980 f   u_s_jigpuzz.obj
 0001:000dfa20       ?jigpuzzinit@@YAXXZ        004e0a20 f   u_s_jigpuzz.obj
 0001:000dfb70       ?jigpuzzproc@@YAXXZ        004e0b70 f   u_s_jigpuzz.obj
 0001:000dff90       ?totareapoly@@YAMH@Z       004e0f90 f   u_s_jigpuzz.obj
 0001:000e0090       ?joetestdraw2d@@YAXXZ      004e1090 f   u_s_joetest.obj
 0001:000e0100       ?joetestexit@@YAXXZ        004e1100 f   u_s_joetest.obj
 0001:000e0140       ?joetestinit@@YAXXZ        004e1140 f   u_s_joetest.obj
 0001:000e0410       ?joetestproc@@YAXXZ        004e1410 f   u_s_joetest.obj
 0001:000e1160       ?joetest2draw2d@@YAXXZ     004e2160 f   u_s_joetest2.obj
 0001:000e11d0       ?joetest2exit@@YAXXZ       004e21d0 f   u_s_joetest2.obj
 0001:000e1210       ?joetest2init@@YAXXZ       004e2210 f   u_s_joetest2.obj
 0001:000e14e0       ?joetest2proc@@YAXXZ       004e24e0 f   u_s_joetest2.obj
 0001:000e2520       ?joytestdidraw2d@@YAXXZ    004e3520 f   u_s_joytest.obj
 0001:000e2730       ?joytestdiinit@@YAXXZ      004e3730 f   u_s_joytest.obj
 0001:000e2730       ?joytestmminit@@YAXXZ      004e3730 f   u_s_joytest.obj
 0001:000e2750       ?scratchproc@@YAXXZ        004e3750 f   u_s_scratch.obj
 0001:000e2750       ?joytestdiproc@@YAXXZ      004e3750 f   u_s_joytest.obj
 0001:000e2750       ?renamerproc@@YAXXZ        004e3750 f   u_s_renamer.obj
 0001:000e2770       ?joytestmmdraw2d@@YAXXZ    004e3770 f   u_s_joytest.obj
 0001:000e2860       ?joytestmmproc@@YAXXZ      004e3860 f   u_s_joytest.obj
 0001:000e29f0       ?laplacedraw2d@@YAXXZ      004e39f0 f   u_s_laplace_heat.obj
 0001:000e2aa0       ?laplaceinit@@YAXXZ        004e3aa0 f   u_s_laplace_heat.obj
 0001:000e2b20       ?laplaceproc@@YAXXZ        004e3b20 f   u_s_laplace_heat.obj
 0001:000e3030       ?userlightsoutdraw2d@@YAXXZ 004e4030 f   u_s_lightsout.obj
 0001:000e32a0       ?userlightsoutexit@@YAXXZ  004e42a0 f   u_s_lightsout.obj
 0001:000e32f0       ?userlightsoutinit@@YAXXZ  004e42f0 f   u_s_lightsout.obj
 0001:000e3670       ?userlightsoutproc@@YAXXZ  004e4670 f   u_s_lightsout.obj
 0001:000e3940       ?lighttestdraw3d@@YAXXZ    004e4940 f   u_s_lighttest.obj
 0001:000e3970       ?lighttestexit@@YAXXZ      004e4970 f   u_s_lighttest.obj
 0001:000e39c0       ?lighttestinit@@YAXXZ      004e49c0 f   u_s_lighttest.obj
 0001:000e4110       ?lighttestproc@@YAXXZ      004e5110 f   u_s_lighttest.obj
 0001:000e4240       ?calcError@linear_regression@@YAMMMM@Z 004e5240 f   u_s_plot2linear.obj
 0001:000e42c0       ?descend@linear_regression@@YAMAAM0M@Z 004e52c0 f   u_s_plot2linear.obj
 0001:000e4530       ?plot2lineardraw2d@@YAXXZ  004e5530 f   u_s_plot2linear.obj
 0001:000e4830       ?plot2linearexit@@YAXXZ    004e5830 f   u_s_plot2linear.obj
 0001:000e4870       ?plot2linearinit@@YAXXZ    004e5870 f   u_s_plot2linear.obj
 0001:000e48b0       ?plot2linearproc@@YAXXZ    004e58b0 f   u_s_plot2linear.obj
 0001:000e5b30       ?luatestdraw2d@@YAXXZ      004e6b30 f   u_s_luatest.obj
 0001:000e5c90       ?luatestexit@@YAXXZ        004e6c90 f   u_s_luatest.obj
 0001:000e5e40       ?luatestinit@@YAXXZ        004e6e40 f   u_s_luatest.obj
 0001:000e6040       ?luatestproc@@YAXXZ        004e7040 f   u_s_luatest.obj
 0001:000e6100       ?clear@listbox@res2d@@QAEXXZ 004e7100 f i u_s_mainmenu.obj
 0001:000e6140       ?mainmenudraw2d@@YAXXZ     004e7140 f   u_s_mainmenu.obj
 0001:000e6200       ?mainmenuexit@@YAXXZ       004e7200 f   u_s_mainmenu.obj
 0001:000e6280       ?mainmenuinit@@YAXXZ       004e7280 f   u_s_mainmenu.obj
 0001:000e7240       ?mainmenuproc@@YAXXZ       004e8240 f   u_s_mainmenu.obj
 0001:000e7a30       ?mandldraw2d@@YAXXZ        004e8a30 f   u_s_mandl.obj
 0001:000e7ae0       ?mandlexit@@YAXXZ          004e8ae0 f   u_s_mandl.obj
 0001:000e7b20       ?mandlinit@@YAXXZ          004e8b20 f   u_s_mandl.obj
 0001:000e7c60       ?mandlproc@@YAXXZ          004e8c60 f   u_s_mandl.obj
 0001:000e8110       ?manydraw3d@@YAXXZ         004e9110 f   u_s_many.obj
 0001:000e8140       ?manyexit@@YAXXZ           004e9140 f   u_s_many.obj
 0001:000e8210       ?manyinit@@YAXXZ           004e9210 f   u_s_many.obj
 0001:000e8630       ?manyproc@@YAXXZ           004e9630 f   u_s_many.obj
 0001:000e8810       ?s_mattest_draw2d@@YAXXZ   004e9810 f   u_s_mattest.obj
 0001:000e88b0       ?s_mattest_exit@@YAXXZ     004e98b0 f   u_s_mattest.obj
 0001:000e8900       ?s_mattest_init@@YAXXZ     004e9900 f   u_s_mattest.obj
 0001:000e8b40       ?s_mattest_proc@@YAXXZ     004e9b40 f   u_s_mattest.obj
 0001:000e9030       ?occclientdraw2d@@YAXXZ    004ea030 f   u_s_occclient.obj
 0001:000e9190       ?occclientexit@@YAXXZ      004ea190 f   u_s_occclient.obj
 0001:000e91d0       ?occclientinit@@YAXXZ      004ea1d0 f   u_s_occclient.obj
 0001:000e94b0       ?occclientproc@@YAXXZ      004ea4b0 f   u_s_occclient.obj
 0001:000e9e70       ?occclient2draw2d@@YAXXZ   004eae70 f   u_s_occclient2.obj
 0001:000e9f90       ?occclient2exit@@YAXXZ     004eaf90 f   u_s_occclient2.obj
 0001:000e9fe0       ?occclient2init@@YAXXZ     004eafe0 f   u_s_occclient2.obj
 0001:000ea2a0       ?occclient2proc@@YAXXZ     004eb2a0 f   u_s_occclient2.obj
 0001:000eaaa0       ?occserverdraw2d@@YAXXZ    004ebaa0 f   u_s_occserver.obj
 0001:000eab30       ?occserverexit@@YAXXZ      004ebb30 f   u_s_occserver.obj
 0001:000eabf0       ?occserverinit@@YAXXZ      004ebbf0 f   u_s_occserver.obj
 0001:000eaf20       ?occserverproc@@YAXXZ      004ebf20 f   u_s_occserver.obj
 0001:000eb590       ?readU16@@YAIPBD@Z         004ec590 f   u_s_occserver.obj
 0001:000eb5a0       ?readU32@@YAIPBD@Z         004ec5a0 f   u_s_occserver.obj
 0001:000eb9d0       ?writeU16@@YAXPADI@Z       004ec9d0 f   u_s_occserver.obj
 0001:000ec0f0       ?onebitdraw2d@@YAXXZ       004ed0f0 f   u_s_onebit.obj
 0001:000ec1e0       ?onebitexit@@YAXXZ         004ed1e0 f   u_s_onebit.obj
 0001:000eccb0       ?onebitinit@@YAXXZ         004edcb0 f   u_s_onebit.obj
 0001:000ece70       ?onebitproc@@YAXXZ         004ede70 f   u_s_onebit.obj
 0001:000ed3b0       ?particles_draw3d@@YAXXZ   004ee3b0 f   u_s_particles.obj
 0001:000ed400       ?particles_exit@@YAXXZ     004ee400 f   u_s_particles.obj
 0001:000ed440       ?particles_init@@YAXXZ     004ee440 f   u_s_particles.obj
 0001:000ed5a0       ?particles_proc@@YAXXZ     004ee5a0 f   u_s_particles.obj
 0001:000ed6d0       ??$buildpatch@Vplanexy_surf0@@@@YAXPAVmodelb@@HHMMVplanexy_surf0@@PBD2@Z 004ee6d0 f i u_s_penrose.obj
 0001:000ed970       ?addtile@penrose@@YAXHMMM@Z 004ee970 f   u_s_penrose.obj
 0001:000eda20       ?checkclose@penrose@@YA_NHHAAH000@Z 004eea20 f   u_s_penrose.obj
 0001:000ede40       ?cleardups@penrose@@YAXXZ  004eee40 f   u_s_penrose.obj
 0001:000edfd0       ?clearmarks@penrose@@YAXXZ 004eefd0 f   u_s_penrose.obj
 0001:000ee060       ?deflation@penrose@@YAXXZ  004ef060 f   u_s_penrose.obj
 0001:000ee850       ?findclosesttile@penrose@@YAHABV?$vector@Utile@penrose@@V?$allocator@Utile@penrose@@@std@@@std@@MM@Z 004ef850 f   u_s_penrose.obj
 0001:000ee9e0       ?moveclose@penrose@@YAXHHHH@Z 004ef9e0 f   u_s_penrose.obj
 0001:000eec60       ?movetile@penrose@@YAXXZ   004efc60 f   u_s_penrose.obj
 0001:000eef40       ?penrose_draw3d@@YAXXZ     004eff40 f   u_s_penrose.obj
 0001:000eef70       ?penrose_exit@@YAXXZ       004eff70 f   u_s_penrose.obj
 0001:000ef100       ?penrose_init@@YAXXZ       004f0100 f   u_s_penrose.obj
 0001:000ef720       ?penrose_proc@@YAXXZ       004f0720 f   u_s_penrose.obj
 0001:000efda0       ?procmarks@penrose@@YAXXZ  004f0da0 f   u_s_penrose.obj
 0001:000eff20       ?plank2wall@@YA_NPAVshape@@0@Z 004f0f20 f   u_s_physics2d.obj
 0001:000f00c0       ?plank2plank@@YA_NPAVshape@@0@Z 004f10c0 f   u_s_physics2d.obj
 0001:000f07e0       ?ball2wall@@YA_NPAVshape@@0@Z 004f17e0 f   u_s_physics2d.obj
 0001:000f08f0       ?ball2plank@@YA_NPAVshape@@0@Z 004f18f0 f   u_s_physics2d.obj
 0001:000f0cf0       ?ball2ball@@YA_NPAVshape@@0@Z 004f1cf0 f   u_s_physics2d.obj
 0001:000f0e40       ??0ball@@QAE@MMMMMMMM@Z    004f1e40 f i u_s_physics2d.obj
 0001:000f1040       ??0plank@@QAE@MMMMMMMMM@Z  004f2040 f i u_s_physics2d.obj
 0001:000f1250       ??0shape@@QAE@XZ           004f2250 f i u_s_physics2d.obj
 0001:000f12e0       ??1shape@@QAE@XZ           004f22e0 f i u_s_physics2d.obj
 0001:000f1330       ?collide@@YAXPAVshape@@0@Z 004f2330 f   u_s_physics2d.obj
 0001:000f19e0       ?draw@ball@@UAEXXZ         004f29e0 f i u_s_physics2d.obj
 0001:000f1aa0       ?draw@plank@@UAEXXZ        004f2aa0 f i u_s_physics2d.obj
 0001:000f1b50       ?drawpoint@@YAXABUpointf2@@M@Z 004f2b50 f   u_s_physics2d.obj
 0001:000f1c20       ?morelessshapes@@YAXH@Z    004f2c20 f   u_s_physics2d.obj
 0001:000f1f60       ?physics2ddraw3d@@YAXXZ    004f2f60 f   u_s_physics2d.obj
 0001:000f1fd0       ?physics2dexit@@YAXXZ      004f2fd0 f   u_s_physics2d.obj
 0001:000f2160       ?physics2dinit@@YAXXZ      004f3160 f   u_s_physics2d.obj
 0001:000f28b0       ?physics2dproc@@YAXXZ      004f38b0 f   u_s_physics2d.obj
 0001:000f2a60       ?procshapes@@YAXM@Z        004f3a60 f   u_s_physics2d.obj
 0001:000f2f70       ?util_point2plank@@YA_NABUpointf2@@QBU1@@Z 004f3f70 f   u_s_physics2d.obj
 0001:000f3080       ??$_Traits_equal@U?$char_traits@D@std@@@std@@YA_NQBDI0I@Z 004f4080 f i u_s_physics3d.obj
 0001:000f30f0       ??0?$basic_string@DU?$char_traits@D@std@@V?$allocator@D@2@@std@@QAE@XZ 004f40f0 f i u_s_physics3d.obj
 0001:000f66d0       ?physics3ddraw3d@@YAXXZ    004f76d0 f   u_s_physics3d.obj
 0001:000f6700       ?physics3dexit@@YAXXZ      004f7700 f   u_s_physics3d.obj
 0001:000f68f0       ?physics3dinit@@YAXXZ      004f78f0 f   u_s_physics3d.obj
 0001:000f6b40       ?physics3dproc@@YAXXZ      004f7b40 f   u_s_physics3d.obj
 0001:000f7240       ?playamoviedraw3d@@YAXXZ   004f8240 f   u_s_playamovie.obj
 0001:000f7270       ?playamovieexit@@YAXXZ     004f8270 f   u_s_playamovie.obj
 0001:000f7390       ?playamovieinit@@YAXXZ     004f8390 f   u_s_playamovie.obj
 0001:000f7760       ?playamovieproc@@YAXXZ     004f8760 f   u_s_playamovie.obj
 0001:000f7a20       ?cubic@bezier@@YAMM@Z      004f8a20 f   u_s_plot2bezier.obj
 0001:000f7a60       ?cubichalf@bezier@@YAMM@Z  004f8a60 f   u_s_plot2bezier.obj
 0001:000f7aa0       ?plot2bezierdraw2d@@YAXXZ  004f8aa0 f   u_s_plot2bezier.obj
 0001:000f7c30       ?plot2bezierexit@@YAXXZ    004f8c30 f   u_s_plot2bezier.obj
 0001:000f7c70       ?plot2bezierinit@@YAXXZ    004f8c70 f   u_s_plot2bezier.obj
 0001:000f7d10       ?plot2bezierproc@@YAXXZ    004f8d10 f   u_s_plot2bezier.obj
 0001:000f7dc0       ?calceigenvectorfromvalue@eigentest@@YAXMAAUpointf2@@AAUmat2@@@Z 004f8dc0 f   u_s_plot2eigen.obj
 0001:000f7f30       ?plot2eigendraw2d@@YAXXZ   004f8f30 f   u_s_plot2eigen.obj
 0001:000f81f0       ?plot2eigenexit@@YAXXZ     004f91f0 f   u_s_plot2eigen.obj
 0001:000f8230       ?plot2eigeninit@@YAXXZ     004f9230 f   u_s_plot2eigen.obj
 0001:000f82f0       ?plot2eigenproc@@YAXXZ     004f92f0 f   u_s_plot2eigen.obj
 0001:000f8530       ??$_Guess_median_unchecked@PAMU?$less@X@std@@@std@@YAXPAM00U?$less@X@0@@Z 004f9530 f i u_s_plot2fourducks.obj
 0001:000f86b0       ??$_Pop_heap_hole_by_index@PAMMU?$less@X@std@@@std@@YAXPAMHH$$QAMU?$less@X@0@@Z 004f96b0 f i u_s_plot2fourducks.obj
 0001:000f8750       ??$_Sort_unchecked@PAMU?$less@X@std@@@std@@YAXPAM0HU?$less@X@0@@Z 004f9750 f i u_s_plot2fourducks.obj
 0001:000f8ad0       ?calcducks@fourducks@@YAXXZ 004f9ad0 f   u_s_plot2fourducks.obj
 0001:000f8f20       ?ducksOnOneSide@fourducks@@YA_NPBMI@Z 004f9f20 f   u_s_plot2fourducks.obj
 0001:000f9040       ?plot2fourducksdraw2d@@YAXXZ 004fa040 f   u_s_plot2fourducks.obj
 0001:000f9270       ?plot2fourducksexit@@YAXXZ 004fa270 f   u_s_plot2fourducks.obj
 0001:000f92b0       ?plot2fourducksinit@@YAXXZ 004fa2b0 f   u_s_plot2fourducks.obj
 0001:000f9300       ?plot2polesproc@@YAXXZ     004fa300 f   u_s_plot2poles.obj
 0001:000f9300       ?plot2quantshoproc@@YAXXZ  004fa300 f   u_s_plot2quantsho.obj
 0001:000f9300       ?plot2fourducksproc@@YAXXZ 004fa300 f   u_s_plot2fourducks.obj
 0001:000f9300       ?plot2powerproc@@YAXXZ     004fa300 f   u_s_plot2power.obj
 0001:000f9300       ?plot2quantproc@@YAXXZ     004fa300 f   u_s_plot2quant.obj
 0001:000f9310       ?plot2lensdraw2d@@YAXXZ    004fa310 f   u_s_plot2lens.obj
 0001:000f98c0       ?plot2lensexit@@YAXXZ      004fa8c0 f   u_s_plot2lens.obj
 0001:000f9900       ?plot2lensinit@@YAXXZ      004fa900 f   u_s_plot2lens.obj
 0001:000f9940       ?plot2lensproc@@YAXXZ      004fa940 f   u_s_plot2lens.obj
 0001:000f9990       ?bounceRay@octMirror@@YA_NAAUaline@1@0@Z 004fa990 f   u_s_plot2octmirror.obj
 0001:000f9bb0       ?plot2octmirrordraw2d@@YAXXZ 004fabb0 f   u_s_plot2octmirror.obj
 0001:000f9c30       ?plot2octmirrorexit@@YAXXZ 004fac30 f   u_s_plot2octmirror.obj
 0001:000f9c70       ?plot2octmirrorinit@@YAXXZ 004fac70 f   u_s_plot2octmirror.obj
 0001:000f9e30       ?plot2octmirrorproc@@YAXXZ 004fae30 f   u_s_plot2octmirror.obj
 0001:000fa020       ?plot2pointclouddraw2d@@YAXXZ 004fb020 f   u_s_plot2pointcloud.obj
 0001:000fa150       ?plot2pointcloudexit@@YAXXZ 004fb150 f   u_s_plot2pointcloud.obj
 0001:000fa190       ?plot2pointcloudinit@@YAXXZ 004fb190 f   u_s_plot2pointcloud.obj
 0001:000fa1d0       ?plot2pointcloudproc@@YAXXZ 004fb1d0 f   u_s_plot2pointcloud.obj
 0001:000fa360       ?sqfun@polesp2@@YA?AV?$complex@M@std@@ABV23@@Z 004fb360 f   u_s_plot2poles.obj
 0001:000fa3b0       ?invfun@polesp2@@YA?AV?$complex@M@std@@ABV23@@Z 004fb3b0 f   u_s_plot2poles.obj
 0001:000fa3e0       ?pole2mulfun@polesp2@@YA?AV?$complex@M@std@@ABV23@@Z 004fb3e0 f   u_s_plot2poles.obj
 0001:000fa460       ?pole2sumfun@polesp2@@YA?AV?$complex@M@std@@ABV23@@Z 004fb460 f   u_s_plot2poles.obj
 0001:000fa510       ?pole2sum2fun@polesp2@@YA?AV?$complex@M@std@@ABV23@@Z 004fb510 f   u_s_plot2poles.obj
 0001:000fa5b0       ??$?KM@std@@YA?AV?$complex@M@0@ABMABV10@@Z 004fb5b0 f i u_s_plot2poles.obj
 0001:000fa770       ?plot2polesdraw2d@@YAXXZ   004fb770 f   u_s_plot2poles.obj
 0001:000fac20       ?plot2polesexit@@YAXXZ     004fbc20 f   u_s_plot2poles.obj
 0001:000fac60       ?plot2polesinit@@YAXXZ     004fbc60 f   u_s_plot2poles.obj
 0001:000facc0       ?drawgrid@powerp2@@YAXABUpointf2@@0UC32@@@Z 004fbcc0 f   u_s_plot2power.obj
 0001:000fafb0       ?drawgridfunc@powerp2@@YAXABUpointf2@@0UC32@@@Z 004fbfb0 f   u_s_plot2power.obj
 0001:000fb990       ?plot2powerdraw2d@@YAXXZ   004fc990 f   u_s_plot2power.obj
 0001:000fb9a0       ?plot2powerexit@@YAXXZ     004fc9a0 f   u_s_plot2power.obj
 0001:000fb9e0       ?plot2powerinit@@YAXXZ     004fc9e0 f   u_s_plot2power.obj
 0001:000fba20       ?power_draw@powerp2@@YAXXZ 004fca20 f   u_s_plot2power.obj
 0001:000fbd10       ?calcarea@quanto@@YAXXZ    004fcd10 f   u_s_plot2quant.obj
 0001:000fbfd0       ?eigen_n2@quanto@@YAMMH@Z  004fcfd0 f   u_s_plot2quant.obj
 0001:000fc000       ?eigen_n@quanto@@YAMMH@Z   004fd000 f   u_s_plot2quant.obj
 0001:000fc130       ?lhscotan@quanto@@YAMM@Z   004fd130 f   u_s_plot2quant.obj
 0001:000fc160       ?plot2quantdraw2d@@YAXXZ   004fd160 f   u_s_plot2quant.obj
 0001:000fc170       ?plot2quantexit@@YAXXZ     004fd170 f   u_s_plot2quant.obj
 0001:000fc1b0       ?plot2quantinit@@YAXXZ     004fd1b0 f   u_s_plot2quant.obj
 0001:000fc260       ?qcalc@quanto@@YAXXZ       004fd260 f   u_s_plot2quant.obj
 0001:000fc650       ?quantdraw2d@quanto@@YAXXZ 004fd650 f   u_s_plot2quant.obj
 0001:000fce00       ?rhscotan@quanto@@YAMM@Z   004fde00 f   u_s_plot2quant.obj
 0001:000fce60       ?rhstan@quanto@@YAMM@Z     004fde60 f   u_s_plot2quant.obj
 0001:000fcec0       _tanf                      004fdec0 f i u_s_plot2quant.obj
 0001:000fcee0       ?eigen_n2@quantsho@@YAMMH@Z 004fdee0 f   u_s_plot2quantsho.obj
 0001:000fcf10       ?eigen_n@quantsho@@YAMMH@Z 004fdf10 f   u_s_plot2quantsho.obj
 0001:000fd110       ?plot2quantshodraw2d@@YAXXZ 004fe110 f   u_s_plot2quantsho.obj
 0001:000fd180       ?plot2quantshoexit@@YAXXZ  004fe180 f   u_s_plot2quantsho.obj
 0001:000fd1c0       ?plot2quantshoinit@@YAXXZ  004fe1c0 f   u_s_plot2quantsho.obj
 0001:000fd360       ?plot2simpledraw2d@@YAXXZ  004fe360 f   u_s_plot2simple.obj
 0001:000fd490       ?plot2simpleexit@@YAXXZ    004fe490 f   u_s_plot2simple.obj
 0001:000fd4d0       ?plot2simpleinit@@YAXXZ    004fe4d0 f   u_s_plot2simple.obj
 0001:000fd630       ?plot2simpleproc@@YAXXZ    004fe630 f   u_s_plot2simple.obj
 0001:000fda80       ?compfunc0@@YAXABV?$complex@N@std@@H@Z 004fea80 f   u_s_plot2zeta.obj
 0001:000fdc00       ?compfunc1@@YAXABV?$complex@N@std@@H@Z 004fec00 f   u_s_plot2zeta.obj
 0001:000fde40       ?compfunc2@@YAXABV?$complex@N@std@@H@Z 004fee40 f   u_s_plot2zeta.obj
 0001:000fe0b0       ?compfunc3@@YAXABV?$complex@N@std@@H@Z 004ff0b0 f   u_s_plot2zeta.obj
 0001:000fe310       ??$?KN@std@@YA?AV?$complex@N@0@ABV10@0@Z 004ff310 f i u_s_plot2zeta.obj
 0001:000fe4d0       ??$log@N@std@@YA?AV?$complex@N@0@ABV10@@Z 004ff4d0 f i u_s_plot2zeta.obj
 0001:000fe7a0       ??$pow@N@std@@YA?AV?$complex@N@0@ABNABV10@@Z 004ff7a0 f i u_s_plot2zeta.obj
 0001:000fe980       ??$pow@N@std@@YA?AV?$complex@N@0@ABV10@0@Z 004ff980 f i u_s_plot2zeta.obj
 0001:000fea80       ?drawgrid@@YAXABUpointf2@@0UC32@@@Z 004ffa80 f   u_s_plot2zeta.obj
 0001:000fed60       ?drawgridfunc@@YAXABUpointf2@@0UC32@@@Z 004ffd60 f   u_s_plot2zeta.obj
 0001:000ff2a0       ?plot2zetadraw2d@@YAXXZ    005002a0 f   u_s_plot2zeta.obj
 0001:000ff4f0       ?plot2zetaexit@@YAXXZ      005004f0 f   u_s_plot2zeta.obj
 0001:000ff540       ?plot2zetainit@@YAXXZ      00500540 f   u_s_plot2zeta.obj
 0001:000ff640       ?plot2zetaproc@@YAXXZ      00500640 f   u_s_plot2zeta.obj
 0001:000ff710       ?drawfline@u_s_plotter@@YAXABUpointf2@@0UC32@@@Z 00500710 f   u_s_plotter.obj
 0001:000ff840       ?drawflinec@u_s_plotter@@YAXABUpointf2@@0UC32@@@Z 00500840 f   u_s_plotter.obj
 0001:000ffa80       ?plotterdraw2d@@YAXXZ      00500a80 f   u_s_plotter.obj
 0001:000ffcb0       ?plotterexit@@YAXXZ        00500cb0 f   u_s_plotter.obj
 0001:000ffd60       ?plotterinit@@YAXXZ        00500d60 f   u_s_plotter.obj
 0001:000fff50       ?plotterproc@@YAXXZ        00500f50 f   u_s_plotter.obj
 0001:00100140       ?rotrect_draw@u_s_plotter@@YAXXZ 00501140 f   u_s_plotter.obj
 0001:00100450       ??$_Insertion_sort_unchecked@PAV?$basic_string@DU?$char_traits@D@std@@V?$allocator@D@2@@std@@P6A_NABV12@0@Z@std@@YAPAV?$basic_string@DU?$char_traits@D@std@@V?$allocator@D@2@@0@PAV10@QAV10@P6A_NABV10@2@Z@Z 00501450 f i u_s_pointcloud.obj
 0001:00100720       ??$_Med3_unchecked@PAV?$basic_string@DU?$char_traits@D@std@@V?$allocator@D@2@@std@@P6A_NABV12@0@Z@std@@YAXPAV?$basic_string@DU?$char_traits@D@std@@V?$allocator@D@2@@0@00P6A_NABV10@1@Z@Z 00501720 f i u_s_pointcloud.obj
 0001:001007c0       ??$_Partition_by_median_guess_unchecked@PAV?$basic_string@DU?$char_traits@D@std@@V?$allocator@D@2@@std@@P6A_NABV12@0@Z@std@@YA?AU?$pair@PAV?$basic_string@DU?$char_traits@D@std@@V?$allocator@D@2@@std@@PAV12@@0@PAV?$basic_string@DU?$char_traits@D@std@@V?$allocator@D@2@@0@0P6A_NABV20@1@Z@Z 005017c0 f i u_s_pointcloud.obj
 0001:00100aa0       ??$_Pop_heap_hole_by_index@PAV?$basic_string@DU?$char_traits@D@std@@V?$allocator@D@2@@std@@V12@P6A_NABV12@0@Z@std@@YAXPAV?$basic_string@DU?$char_traits@D@std@@V?$allocator@D@2@@0@HH$$QAV10@P6A_NABV10@2@Z@Z 00501aa0 f i u_s_pointcloud.obj
 0001:00100cf0       ??$_Sort_heap_unchecked@PAV?$basic_string@DU?$char_traits@D@std@@V?$allocator@D@2@@std@@P6A_NABV12@0@Z@std@@YAXPAV?$basic_string@DU?$char_traits@D@std@@V?$allocator@D@2@@0@0P6A_NABV10@1@Z@Z 00501cf0 f i u_s_pointcloud.obj
 0001:00100e70       ??$_Sort_unchecked@PAV?$basic_string@DU?$char_traits@D@std@@V?$allocator@D@2@@std@@P6A_NABV12@0@Z@std@@YAXPAV?$basic_string@DU?$char_traits@D@std@@V?$allocator@D@2@@0@0HP6A_NABV10@1@Z@Z 00501e70 f i u_s_pointcloud.obj
 0001:00101060       ??1?$median@V?$basic_string@DU?$char_traits@D@std@@V?$allocator@D@2@@std@@@@QAE@XZ 00502060 f i u_s_pointcloud.obj
 0001:00101080       ?getvalue@?$median@V?$basic_string@DU?$char_traits@D@std@@V?$allocator@D@2@@std@@@@QBE?AV?$basic_string@DU?$char_traits@D@std@@V?$allocator@D@2@@std@@I@Z 00502080 f i u_s_pointcloud.obj
 0001:00101520       ?medianofmedian@?$median@V?$basic_string@DU?$char_traits@D@std@@V?$allocator@D@2@@std@@@@ABE?AV?$basic_string@DU?$char_traits@D@std@@V?$allocator@D@2@@std@@XZ 00502520 f i u_s_pointcloud.obj
 0001:001019f0       ?pointclouddraw3d@@YAXXZ   005029f0 f   u_s_pointcloud.obj
 0001:00101a20       ?pointcloudexit@@YAXXZ     00502a20 f   u_s_pointcloud.obj
 0001:00101b00       ?pointcloudinit@@YAXXZ     00502b00 f   u_s_pointcloud.obj
 0001:00102290       ?pointcloudproc@@YAXXZ     00503290 f   u_s_pointcloud.obj
 0001:00102650       ?splitval@?$median@V?$basic_string@DU?$char_traits@D@std@@V?$allocator@D@2@@std@@@@AAEXAAV?$vector@V?$basic_string@DU?$char_traits@D@std@@V?$allocator@D@2@@std@@V?$allocator@V?$basic_string@DU?$char_traits@D@std@@V?$allocator@D@2@@std@@@2@@std@@00V?$basic_string@DU?$char_traits@D@std@@V?$allocator@D@2@@3@@Z 00503650 f i u_s_pointcloud.obj
 0001:00103520       ??$_Assign_range@PAVfraction@@@?$vector@Vfraction@@V?$allocator@Vfraction@@@std@@@std@@AAEXPAVfraction@@0Uforward_iterator_tag@1@@Z 00504520 f i u_s_polynomial.obj
 0001:00103690       ??$_Emplace_reallocate@Vfraction@@@?$vector@Vfraction@@V?$allocator@Vfraction@@@std@@@std@@QAEPAVfraction@@QAV2@$$QAV2@@Z 00504690 f i u_s_polynomial.obj
 0001:00103b80       ?polynomial_draw2d@@YAXXZ  00504b80 f   u_s_polynomial.obj
 0001:00103b90       ?polynomial_exit@@YAXXZ    00504b90 f   u_s_polynomial.obj
 0001:00103bb0       ?polynomial_init@@YAXXZ    00504bb0 f   u_s_polynomial.obj
 0001:00103ff0       ?polynomial_proc@@YAXXZ    00504ff0 f   u_s_polynomial.obj
 0001:00104f50       ??$_Construct@V?$_Deque_const_iterator@V?$_Deque_val@U?$_Deque_simple_types@Vbase@poly_sym@@@std@@@std@@@std@@@?$deque@Vbase@poly_sym@@V?$allocator@Vbase@poly_sym@@@std@@@std@@QAEXV?$_Deque_const_iterator@V?$_Deque_val@U?$_Deque_simple_types@Vbase@poly_sym@@@std@@@std@@@1@0@Z 00505f50 f i u_s_poly_sym.obj
 0001:00105080       ??$_Construct@V?$_Deque_const_iterator@V?$_Deque_val@U?$_Deque_simple_types@Vterm@poly_sym@@@std@@@std@@@std@@@?$deque@Vterm@poly_sym@@V?$allocator@Vterm@poly_sym@@@std@@@std@@QAEXV?$_Deque_const_iterator@V?$_Deque_val@U?$_Deque_simple_types@Vterm@poly_sym@@@std@@@std@@@1@0@Z 00506080 f i u_s_poly_sym.obj
 0001:00105150       ??$_Insertion_sort_unchecked@V?$_Deque_unchecked_iterator@V?$_Deque_val@U?$_Deque_simple_types@Vbase@poly_sym@@@std@@@std@@@std@@P6A_NABVbase@poly_sym@@0@Z@std@@YA?AV?$_Deque_unchecked_iterator@V?$_Deque_val@U?$_Deque_simple_types@Vbase@poly_sym@@@std@@@std@@@0@V10@V10@P6A_NABVbase@poly_sym@@2@Z@Z 00506150 f i u_s_poly_sym.obj
 0001:00105360       ??$_Insertion_sort_unchecked@V?$_Deque_unchecked_iterator@V?$_Deque_val@U?$_Deque_simple_types@Vterm@poly_sym@@@std@@@std@@@std@@P6A_NABVterm@poly_sym@@0@Z@std@@YA?AV?$_Deque_unchecked_iterator@V?$_Deque_val@U?$_Deque_simple_types@Vterm@poly_sym@@@std@@@std@@@0@V10@V10@P6A_NABVterm@poly_sym@@2@Z@Z 00506360 f i u_s_poly_sym.obj
 0001:001056f0       ??$_Make_heap_unchecked@V?$_Deque_unchecked_iterator@V?$_Deque_val@U?$_Deque_simple_types@Vbase@poly_sym@@@std@@@std@@@std@@P6A_NABVbase@poly_sym@@0@Z@std@@YAXV?$_Deque_unchecked_iterator@V?$_Deque_val@U?$_Deque_simple_types@Vbase@poly_sym@@@std@@@std@@@0@0P6A_NABVbase@poly_sym@@1@Z@Z 005066f0 f i u_s_poly_sym.obj
 0001:00105930       ??$_Med3_unchecked@V?$_Deque_unchecked_iterator@V?$_Deque_val@U?$_Deque_simple_types@Vbase@poly_sym@@@std@@@std@@@std@@P6A_NABVbase@poly_sym@@0@Z@std@@YAXV?$_Deque_unchecked_iterator@V?$_Deque_val@U?$_Deque_simple_types@Vbase@poly_sym@@@std@@@std@@@0@00P6A_NABVbase@poly_sym@@1@Z@Z 00506930 f i u_s_poly_sym.obj
 0001:00105a00       ??$_Med3_unchecked@V?$_Deque_unchecked_iterator@V?$_Deque_val@U?$_Deque_simple_types@Vterm@poly_sym@@@std@@@std@@@std@@P6A_NABVterm@poly_sym@@0@Z@std@@YAXV?$_Deque_unchecked_iterator@V?$_Deque_val@U?$_Deque_simple_types@Vterm@poly_sym@@@std@@@std@@@0@00P6A_NABVterm@poly_sym@@1@Z@Z 00506a00 f i u_s_poly_sym.obj
 0001:00105ad0       ??$_Move_backward_unchecked@V?$_Deque_unchecked_iterator@V?$_Deque_val@U?$_Deque_simple_types@Vterm@poly_sym@@@std@@@std@@@std@@V12@@std@@YA?AV?$_Deque_unchecked_iterator@V?$_Deque_val@U?$_Deque_simple_types@Vterm@poly_sym@@@std@@@std@@@0@V10@00@Z 00506ad0 f i u_s_poly_sym.obj
 0001:00105bd0       ??$_Partition_by_median_guess_unchecked@V?$_Deque_unchecked_iterator@V?$_Deque_val@U?$_Deque_simple_types@Vbase@poly_sym@@@std@@@std@@@std@@P6A_NABVbase@poly_sym@@0@Z@std@@YA?AU?$pair@V?$_Deque_unchecked_iterator@V?$_Deque_val@U?$_Deque_simple_types@Vbase@poly_sym@@@std@@@std@@@std@@V12@@0@V?$_Deque_unchecked_iterator@V?$_Deque_val@U?$_Deque_simple_types@Vbase@poly_sym@@@std@@@std@@@0@0P6A_NABVbase@poly_sym@@1@Z@Z 00506bd0 f i u_s_poly_sym.obj
 0001:001064d0       ??$_Partition_by_median_guess_unchecked@V?$_Deque_unchecked_iterator@V?$_Deque_val@U?$_Deque_simple_types@Vterm@poly_sym@@@std@@@std@@@std@@P6A_NABVterm@poly_sym@@0@Z@std@@YA?AU?$pair@V?$_Deque_unchecked_iterator@V?$_Deque_val@U?$_Deque_simple_types@Vterm@poly_sym@@@std@@@std@@@std@@V12@@0@V?$_Deque_unchecked_iterator@V?$_Deque_val@U?$_Deque_simple_types@Vterm@poly_sym@@@std@@@std@@@0@0P6A_NABVterm@poly_sym@@1@Z@Z 005074d0 f i u_s_poly_sym.obj
 0001:00106c70       ??$_Pop_heap_hole_by_index@V?$_Deque_unchecked_iterator@V?$_Deque_val@U?$_Deque_simple_types@Vbase@poly_sym@@@std@@@std@@@std@@Vbase@poly_sym@@P6A_NABV34@0@Z@std@@YAXV?$_Deque_unchecked_iterator@V?$_Deque_val@U?$_Deque_simple_types@Vbase@poly_sym@@@std@@@std@@@0@HH$$QAVbase@poly_sym@@P6A_NABV23@2@Z@Z 00507c70 f i u_s_poly_sym.obj
 0001:00106dd0       ??$_Pop_heap_hole_by_index@V?$_Deque_unchecked_iterator@V?$_Deque_val@U?$_Deque_simple_types@Vterm@poly_sym@@@std@@@std@@@std@@Vterm@poly_sym@@P6A_NABV34@0@Z@std@@YAXV?$_Deque_unchecked_iterator@V?$_Deque_val@U?$_Deque_simple_types@Vterm@poly_sym@@@std@@@std@@@0@HH$$QAVterm@poly_sym@@P6A_NABV23@2@Z@Z 00507dd0 f i u_s_poly_sym.obj
 0001:00106f90       ??$_Push_heap_by_index@V?$_Deque_unchecked_iterator@V?$_Deque_val@U?$_Deque_simple_types@Vterm@poly_sym@@@std@@@std@@@std@@Vterm@poly_sym@@P6A_NABV34@0@Z@std@@YAXV?$_Deque_unchecked_iterator@V?$_Deque_val@U?$_Deque_simple_types@Vterm@poly_sym@@@std@@@std@@@0@HH$$QAVterm@poly_sym@@P6A_NABV23@2@Z@Z 00507f90 f i u_s_poly_sym.obj
 0001:00107120       ??$_Reverse_unchecked1@V?$_Deque_unchecked_iterator@V?$_Deque_val@U?$_Deque_simple_types@Vterm@poly_sym@@@std@@@std@@@std@@@std@@YAXV?$_Deque_unchecked_iterator@V?$_Deque_val@U?$_Deque_simple_types@Vterm@poly_sym@@@std@@@std@@@0@0U?$integral_constant@I$0A@@0@@Z 00508120 f i u_s_poly_sym.obj
 0001:001072a0       ??$_Reverse_unchecked@V?$_Deque_unchecked_iterator@V?$_Deque_val@U?$_Deque_simple_types@Vbase@poly_sym@@@std@@@std@@@std@@@std@@YAXV?$_Deque_unchecked_iterator@V?$_Deque_val@U?$_Deque_simple_types@Vbase@poly_sym@@@std@@@std@@@0@0@Z 005082a0 f i u_s_poly_sym.obj
 0001:001073d0       ??$_Sort_unchecked@V?$_Deque_unchecked_iterator@V?$_Deque_val@U?$_Deque_simple_types@Vbase@poly_sym@@@std@@@std@@@std@@P6A_NABVbase@poly_sym@@0@Z@std@@YAXV?$_Deque_unchecked_iterator@V?$_Deque_val@U?$_Deque_simple_types@Vbase@poly_sym@@@std@@@std@@@0@0HP6A_NABVbase@poly_sym@@1@Z@Z 005083d0 f i u_s_poly_sym.obj
 0001:00107620       ??$_Sort_unchecked@V?$_Deque_unchecked_iterator@V?$_Deque_val@U?$_Deque_simple_types@Vterm@poly_sym@@@std@@@std@@@std@@P6A_NABVterm@poly_sym@@0@Z@std@@YAXV?$_Deque_unchecked_iterator@V?$_Deque_val@U?$_Deque_simple_types@Vterm@poly_sym@@@std@@@std@@@0@0HP6A_NABVterm@poly_sym@@1@Z@Z 00508620 f i u_s_poly_sym.obj
 0001:00107980       ??$copy@V?$_Deque_const_iterator@V?$_Deque_val@U?$_Deque_simple_types@Vbase@poly_sym@@@std@@@std@@@std@@V?$_Deque_iterator@V?$_Deque_val@U?$_Deque_simple_types@Vbase@poly_sym@@@std@@@std@@@2@@std@@YA?AV?$_Deque_iterator@V?$_Deque_val@U?$_Deque_simple_types@Vbase@poly_sym@@@std@@@std@@@0@V?$_Deque_const_iterator@V?$_Deque_val@U?$_Deque_simple_types@Vbase@poly_sym@@@std@@@std@@@0@0V10@@Z 00508980 f i u_s_poly_sym.obj
 0001:00107a10       ??$copy@V?$_Deque_const_iterator@V?$_Deque_val@U?$_Deque_simple_types@Vterm@poly_sym@@@std@@@std@@@std@@V?$_Deque_iterator@V?$_Deque_val@U?$_Deque_simple_types@Vterm@poly_sym@@@std@@@std@@@2@@std@@YA?AV?$_Deque_iterator@V?$_Deque_val@U?$_Deque_simple_types@Vterm@poly_sym@@@std@@@std@@@0@V?$_Deque_const_iterator@V?$_Deque_val@U?$_Deque_simple_types@Vterm@poly_sym@@@std@@@std@@@0@0V10@@Z 00508a10 f i u_s_poly_sym.obj
 0001:00107ab0       ??$insert@V?$_Deque_const_iterator@V?$_Deque_val@U?$_Deque_simple_types@Vbase@poly_sym@@@std@@@std@@@std@@X@?$deque@Vbase@poly_sym@@V?$allocator@Vbase@poly_sym@@@std@@@std@@QAE?AV?$_Deque_iterator@V?$_Deque_val@U?$_Deque_simple_types@Vbase@poly_sym@@@std@@@std@@@1@V?$_Deque_const_iterator@V?$_Deque_val@U?$_Deque_simple_types@Vbase@poly_sym@@@std@@@std@@@1@00@Z 00508ab0 f i u_s_poly_sym.obj
 0001:00107f20       ??$insert@V?$_Deque_const_iterator@V?$_Deque_val@U?$_Deque_simple_types@Vterm@poly_sym@@@std@@@std@@@std@@X@?$deque@Vterm@poly_sym@@V?$allocator@Vterm@poly_sym@@@std@@@std@@QAE?AV?$_Deque_iterator@V?$_Deque_val@U?$_Deque_simple_types@Vterm@poly_sym@@@std@@@std@@@1@V?$_Deque_const_iterator@V?$_Deque_val@U?$_Deque_simple_types@Vterm@poly_sym@@@std@@@std@@@1@00@Z 00508f20 f i u_s_poly_sym.obj
 0001:00107f20       ??$insert@V?$_Deque_iterator@V?$_Deque_val@U?$_Deque_simple_types@Vterm@poly_sym@@@std@@@std@@@std@@X@?$deque@Vterm@poly_sym@@V?$allocator@Vterm@poly_sym@@@std@@@std@@QAE?AV?$_Deque_iterator@V?$_Deque_val@U?$_Deque_simple_types@Vterm@poly_sym@@@std@@@std@@@1@V?$_Deque_const_iterator@V?$_Deque_val@U?$_Deque_simple_types@Vterm@poly_sym@@@std@@@std@@@1@V21@1@Z 00508f20 f i u_s_poly_sym.obj
 0001:001082e0       ??$iter_swap@V?$_Deque_unchecked_iterator@V?$_Deque_val@U?$_Deque_simple_types@Vbase@poly_sym@@@std@@@std@@@std@@V12@@std@@YAXV?$_Deque_unchecked_iterator@V?$_Deque_val@U?$_Deque_simple_types@Vbase@poly_sym@@@std@@@std@@@0@0@Z 005092e0 f i u_s_poly_sym.obj
 0001:001083d0       ??$iter_swap@V?$_Deque_unchecked_iterator@V?$_Deque_val@U?$_Deque_simple_types@Vterm@poly_sym@@@std@@@std@@@std@@V12@@std@@YAXV?$_Deque_unchecked_iterator@V?$_Deque_val@U?$_Deque_simple_types@Vterm@poly_sym@@@std@@@std@@@0@0@Z 005093d0 f i u_s_poly_sym.obj
 0001:001084a0       ??$rotate@V?$_Deque_iterator@V?$_Deque_val@U?$_Deque_simple_types@Vbase@poly_sym@@@std@@@std@@@std@@@std@@YA?AV?$_Deque_iterator@V?$_Deque_val@U?$_Deque_simple_types@Vbase@poly_sym@@@std@@@std@@@0@V10@00@Z 005094a0 f i u_s_poly_sym.obj
 0001:00108550       ??$rotate@V?$_Deque_iterator@V?$_Deque_val@U?$_Deque_simple_types@Vterm@poly_sym@@@std@@@std@@@std@@@std@@YA?AV?$_Deque_iterator@V?$_Deque_val@U?$_Deque_simple_types@Vterm@poly_sym@@@std@@@std@@@0@V10@00@Z 00509550 f i u_s_poly_sym.obj
 0001:00108610       ??0?$deque@Vterm@poly_sym@@V?$allocator@Vterm@poly_sym@@@std@@@std@@QAE@ABV01@@Z 00509610 f i u_s_poly_sym.obj
 0001:001086d0       ??0poly@poly_sym@@QAE@$$QAV01@@Z 005096d0 f i u_s_poly_sym.obj
 0001:00108780       ??0poly@poly_sym@@QAE@ABV01@@Z 00509780 f i u_s_poly_sym.obj
 0001:00108840       ??0poly@poly_sym@@QAE@PBD@Z 00509840 f   u_s_poly_sym.obj
 0001:001089c0       ??0term@poly_sym@@QAE@$$QAV01@@Z 005099c0 f i u_s_poly_sym.obj
 0001:00108a80       ??0term@poly_sym@@QAE@ABV01@@Z 00509a80 f i u_s_poly_sym.obj
 0001:00108b50       ??0term@poly_sym@@QAE@XZ   00509b50 f i u_s_poly_sym.obj
 0001:00108bb0       ??1?$_Deque_alloc@U?$_Deque_base_types@Vterm@poly_sym@@V?$allocator@Vterm@poly_sym@@@std@@@std@@@std@@QAE@XZ 00509bb0 f i u_s_poly_sym.obj
 0001:00108bb0       ?_Free_proxy@?$_Deque_alloc@U?$_Deque_base_types@Vbase@poly_sym@@V?$allocator@Vbase@poly_sym@@@std@@@std@@@std@@QAEXXZ 00509bb0 f i u_s_poly_sym.obj
 0001:00108bb0       ??1?$_Deque_alloc@U?$_Deque_base_types@Vbase@poly_sym@@V?$allocator@Vbase@poly_sym@@@std@@@std@@@std@@QAE@XZ 00509bb0 f i u_s_poly_sym.obj
 0001:00108bd0       ??1?$deque@Vbase@poly_sym@@V?$allocator@Vbase@poly_sym@@@std@@@std@@QAE@XZ 00509bd0 f i u_s_poly_sym.obj
 0001:00108c20       ??1?$deque@Vterm@poly_sym@@V?$allocator@Vterm@poly_sym@@@std@@@std@@QAE@XZ 00509c20 f i u_s_poly_sym.obj
 0001:00108c70       ??1base@poly_sym@@QAE@XZ   00509c70 f   u_s_poly_sym.obj
 0001:00108cd0       ??1poly@poly_sym@@QAE@XZ   00509cd0 f i u_s_poly_sym.obj
 0001:00108d20       ??1term@poly_sym@@QAE@XZ   00509d20 f i u_s_poly_sym.obj
 0001:00108d70       ??4?$deque@Vbase@poly_sym@@V?$allocator@Vbase@poly_sym@@@std@@@std@@QAEAAV01@ABV01@@Z 00509d70 f i u_s_poly_sym.obj
 0001:00108fa0       ??4?$deque@Vterm@poly_sym@@V?$allocator@Vterm@poly_sym@@@std@@@std@@QAEAAV01@ABV01@@Z 00509fa0 f i u_s_poly_sym.obj
 0001:001091d0       ??4base@poly_sym@@QAEAAV01@ABV01@@Z 0050a1d0 f   u_s_poly_sym.obj
 0001:00109280       ??4term@poly_sym@@QAEAAV01@$$QAV01@@Z 0050a280 f i u_s_poly_sym.obj
 0001:001092e0       ??C?$_Deque_const_iterator@V?$_Deque_val@U?$_Deque_simple_types@Vbase@poly_sym@@@std@@@std@@@std@@QBEPBVbase@poly_sym@@XZ 0050a2e0 f i u_s_poly_sym.obj
 0001:00109310       ??H?$_Deque_const_iterator@V?$_Deque_val@U?$_Deque_simple_types@Vbase@poly_sym@@@std@@@std@@@std@@QBE?AV01@H@Z 0050a310 f i u_s_poly_sym.obj
 0001:00109310       ??H?$_Deque_const_iterator@V?$_Deque_val@U?$_Deque_simple_types@Vterm@poly_sym@@@std@@@std@@@std@@QBE?AV01@H@Z 0050a310 f i u_s_poly_sym.obj
 0001:00109350       ?_Assign_rv@?$deque@Vterm@poly_sym@@V?$allocator@Vterm@poly_sym@@@std@@@std@@QAEX$$QAV12@U?$integral_constant@_N$00@2@@Z 0050a350 f i u_s_poly_sym.obj
 0001:00109350       ?_Assign_rv@?$deque@Vbase@poly_sym@@V?$allocator@Vbase@poly_sym@@@std@@@std@@QAEX$$QAV12@U?$integral_constant@_N$00@2@@Z 0050a350 f i u_s_poly_sym.obj
 0001:001093b0       ?_Growmap@?$deque@Vbase@poly_sym@@V?$allocator@Vbase@poly_sym@@@std@@@std@@IAEXI@Z 0050a3b0 f i u_s_poly_sym.obj
 0001:00109550       ?_Growmap@?$deque@Vterm@poly_sym@@V?$allocator@Vterm@poly_sym@@@std@@@std@@IAEXI@Z 0050a550 f i u_s_poly_sym.obj
 0001:001096f0       ?_Tidy@?$deque@Vbase@poly_sym@@V?$allocator@Vbase@poly_sym@@@std@@@std@@IAEXXZ 0050a6f0 f i u_s_poly_sym.obj
 0001:001097f0       ?_Tidy@?$deque@Vterm@poly_sym@@V?$allocator@Vterm@poly_sym@@@std@@@std@@IAEXXZ 0050a7f0 f i u_s_poly_sym.obj
 0001:001098e0       ?_Xlen@?$deque@Vterm@poly_sym@@V?$allocator@Vterm@poly_sym@@@std@@@std@@IBEXXZ 0050a8e0 f i u_s_poly_sym.obj
 0001:001098e0       ?_Xlen@?$deque@Vbase@poly_sym@@V?$allocator@Vbase@poly_sym@@@std@@@std@@IBEXXZ 0050a8e0 f i u_s_poly_sym.obj
 0001:001098f0       ?add@poly@poly_sym@@QBE?AV12@ABV12@@Z 0050a8f0 f   u_s_poly_sym.obj
 0001:001099d0       ?baseless@poly_sym@@YA_NABVbase@1@0@Z 0050a9d0 f   u_s_poly_sym.obj
 0001:00109a10       ?calcele@poly@poly_sym@@QBEXV?$vector@HV?$allocator@H@std@@@std@@@Z 0050aa10 f   u_s_poly_sym.obj
 0001:0010a190       ?calcpoly@poly_sym@@YAXXZ  0050b190 f   u_s_poly_sym.obj
 0001:0010a2e0       ?calcsym@poly@poly_sym@@QBEXXZ 0050b2e0 f   u_s_poly_sym.obj
 0001:0010aa00       ?erase@?$deque@Vbase@poly_sym@@V?$allocator@Vbase@poly_sym@@@std@@@std@@QAE?AV?$_Deque_iterator@V?$_Deque_val@U?$_Deque_simple_types@Vbase@poly_sym@@@std@@@std@@@2@V?$_Deque_const_iterator@V?$_Deque_val@U?$_Deque_simple_types@Vbase@poly_sym@@@std@@@std@@@2@0@Z 0050ba00 f i u_s_poly_sym.obj
 0001:0010ac80       ?erase@?$deque@Vterm@poly_sym@@V?$allocator@Vterm@poly_sym@@@std@@@std@@QAE?AV?$_Deque_iterator@V?$_Deque_val@U?$_Deque_simple_types@Vterm@poly_sym@@@std@@@std@@@2@V?$_Deque_const_iterator@V?$_Deque_val@U?$_Deque_simple_types@Vterm@poly_sym@@@std@@@std@@@2@0@Z 0050bc80 f i u_s_poly_sym.obj
 0001:0010af20       ?expandterm@poly@poly_sym@@CA?AV12@ABVterm@2@@Z 0050bf20 f   u_s_poly_sym.obj
 0001:0010b410       ?expandterms@poly@poly_sym@@AAEXXZ 0050c410 f   u_s_poly_sym.obj
 0001:0010b570       ?getelem@poly@poly_sym@@SA?AV12@V?$vector@HV?$allocator@H@std@@@std@@HH@Z 0050c570 f   u_s_poly_sym.obj
 0001:0010bb30       ?getm1mw@poly_sym@@YAPAVpoly@1@XZ 0050cb30 f   u_s_poly_sym.obj
 0001:0010bca0       ?haspoly@term@poly_sym@@QBE_NXZ 0050cca0 f   u_s_poly_sym.obj
 0001:0010bd10       ?mul@poly@poly_sym@@QBE?AV12@ABV12@@Z 0050cd10 f   u_s_poly_sym.obj
 0001:0010bee0       ?mul@term@poly_sym@@QBE?AV12@ABV12@@Z 0050cee0 f   u_s_poly_sym.obj
 0001:0010c7c0       ?parseposnum@poly@poly_sym@@AAEHH@Z 0050d7c0 f   u_s_poly_sym.obj
 0001:0010c850       ?parseterm@poly@poly_sym@@AAE?AVterm@2@H@Z 0050d850 f   u_s_poly_sym.obj
 0001:0010cc30       ?permpoly@poly@poly_sym@@QBE?AV12@ABV?$vector@HV?$allocator@H@std@@@std@@@Z 0050dc30 f   u_s_poly_sym.obj
 0001:0010cd70       ?polysymdraw2d@@YAXXZ      0050dd70 f   u_s_poly_sym.obj
 0001:0010cdb0       ?polysymexit@@YAXXZ        0050ddb0 f   u_s_poly_sym.obj
 0001:0010cdd0       ?polysyminit@@YAXXZ        0050ddd0 f   u_s_poly_sym.obj
 0001:0010cf70       ?polysymproc@@YAXXZ        0050df70 f   u_s_poly_sym.obj
 0001:0010d020       ?pop_back@?$deque@Vbase@poly_sym@@V?$allocator@Vbase@poly_sym@@@std@@@std@@QAEXXZ 0050e020 f i u_s_poly_sym.obj
 0001:0010d0a0       ?pop_back@?$deque@Vterm@poly_sym@@V?$allocator@Vterm@poly_sym@@@std@@@std@@QAEXXZ 0050e0a0 f i u_s_poly_sym.obj
 0001:0010d110       ?pop_front@?$deque@Vbase@poly_sym@@V?$allocator@Vbase@poly_sym@@@std@@@std@@QAEXXZ 0050e110 f i u_s_poly_sym.obj
 0001:0010d1a0       ?pop_front@?$deque@Vterm@poly_sym@@V?$allocator@Vterm@poly_sym@@@std@@@std@@QAEXXZ 0050e1a0 f i u_s_poly_sym.obj
 0001:0010d220       ?pretty@poly@poly_sym@@QBE?AV?$basic_string@DU?$char_traits@D@std@@V?$allocator@D@2@@std@@XZ 0050e220 f   u_s_poly_sym.obj
 0001:0010d6e0       ?push_back@?$deque@Vbase@poly_sym@@V?$allocator@Vbase@poly_sym@@@std@@@std@@QAEXABVbase@poly_sym@@@Z 0050e6e0 f i u_s_poly_sym.obj
 0001:0010d7c0       ?push_back@?$deque@Vterm@poly_sym@@V?$allocator@Vterm@poly_sym@@@std@@@std@@QAEXABVterm@poly_sym@@@Z 0050e7c0 f i u_s_poly_sym.obj
 0001:0010d830       ?skip@poly@poly_sym@@AAEXXZ 0050e830 f   u_s_poly_sym.obj
 0001:0010d870       ?sortandmerge@term@poly_sym@@QAEXXZ 0050e870 f   u_s_poly_sym.obj
 0001:0010dd20       ?sortcleanterms@poly@poly_sym@@AAEXXZ 0050ed20 f   u_s_poly_sym.obj
 0001:0010e250       ?stripperms@term@poly_sym@@QBE?AV12@XZ 0050f250 f   u_s_poly_sym.obj
 0001:0010e410       ?termequal@poly_sym@@YA_NABVterm@1@0@Z 0050f410 f   u_s_poly_sym.obj
 0001:0010e580       ?termless@poly_sym@@YA_NABVterm@1@0@Z 0050f580 f   u_s_poly_sym.obj
 0001:0010e740       ?post_draw2d@@YAXXZ        0050f740 f   u_s_post.obj
 0001:0010e7b0       ?post_exit@@YAXXZ          0050f7b0 f   u_s_post.obj
 0001:0010e7f0       ?post_init@@YAXXZ          0050f7f0 f   u_s_post.obj
 0001:0010ec00       ?post_proc@@YAXXZ          0050fc00 f   u_s_post.obj
 0001:0010f3e0       ??$?HDU?$char_traits@D@std@@V?$allocator@D@1@@std@@YA?AV?$basic_string@DU?$char_traits@D@std@@V?$allocator@D@2@@0@$$QAV10@QBD@Z 005103e0 f i u_s_qcomp.obj
 0001:0010f440       ?changecursorqgate@qcomp@@YAXI@Z 00510440 f   u_s_qcomp.obj
 0001:0010f490       ?playagame@qcomp@@YA_NABVqmat@1@0ABVqstate@1@II@Z 00510490 f   u_s_qcomp.obj
 0001:0010f7a0       ?playgames@qcomp@@YAXXZ    005107a0 f   u_s_qcomp.obj
 0001:00110230       ?printtoconsole@qcomp@@YAXH@Z 00511230 f   u_s_qcomp.obj
 0001:00110770       ?qcompdraw2d@@YAXXZ        00511770 f   u_s_qcomp.obj
 0001:00110810       ?qcompexit@@YAXXZ          00511810 f   u_s_qcomp.obj
 0001:00110880       ?qcompinit@@YAXXZ          00511880 f   u_s_qcomp.obj
 0001:00110fe0       ?qcompproc@@YAXXZ          00511fe0 f   u_s_qcomp.obj
 0001:00111740       ?refreshfilelist@qcomp@@YAXXZ 00512740 f   u_s_qcomp.obj
 0001:001118e0       ?savelastfile@qcomp@@YAXABV?$basic_string@DU?$char_traits@D@std@@V?$allocator@D@2@@std@@@Z 005128e0 f   u_s_qcomp.obj
 0001:001118e0       ?savelastfile@turing@@YAXABV?$basic_string@DU?$char_traits@D@std@@V?$allocator@D@2@@std@@@Z 005128e0 f   u_s_turing.obj
 0001:001121b0       ?qrcodedraw2d@@YAXXZ       005131b0 f   u_s_qr_code.obj
 0001:001121f0       ?qrcodeexit@@YAXXZ         005131f0 f   u_s_qr_code.obj
 0001:00112210       ?qrcodeinit@@YAXXZ         00513210 f   u_s_qr_code.obj
 0001:00112ce0       ?qrcodeproc@@YAXXZ         00513ce0 f   u_s_qr_code.obj
 0001:00113780       ??$_Emplace_reallocate@ABUpointS82@sokoban@@@?$vector@UpointS82@sokoban@@V?$allocator@UpointS82@sokoban@@@std@@@std@@QAEPAUpointS82@sokoban@@QAU23@ABU23@@Z 00514780 f i u_s_sokoban.obj
 0001:00113780       ??$_Emplace_reallocate@E@?$vector@EV?$allocator@E@std@@@std@@QAEPAEQAE$$QAE@Z 00514780 f i u_s_qr_code2.obj
 0001:00113780       ??$_Emplace_reallocate@ABUpointS82@sokoban2@@@?$vector@UpointS82@sokoban2@@V?$allocator@UpointS82@sokoban2@@@std@@@std@@QAEPAUpointS82@sokoban2@@QAU23@ABU23@@Z 00514780 f i u_s_sokoban2.obj
 0001:00113c90       ?qrcodedraw2d2@@YAXXZ      00514c90 f   u_s_qr_code2.obj
 0001:00113ef0       ?qrcodeexit2@@YAXXZ        00514ef0 f   u_s_qr_code2.obj
 0001:00113f70       ?qrcodeinit2@@YAXXZ        00514f70 f   u_s_qr_code2.obj
 0001:00114380       ?qrcodeproc2@@YAXXZ        00515380 f   u_s_qr_code2.obj
 0001:00115210       ?rcastledraw3d@@YAXXZ      00516210 f   u_s_rcastle.obj
 0001:00115240       ?rcastleexit@@YAXXZ        00516240 f   u_s_rcastle.obj
 0001:001153f0       ?rcastleinit@@YAXXZ        005163f0 f   u_s_rcastle.obj
 0001:00118420       ?rcastleproc@@YAXXZ        00519420 f   u_s_rcastle.obj
 0001:001187f0       ?renamerdraw2d@@YAXXZ      005197f0 f   u_s_renamer.obj
 0001:00118860       ?renamerinit@@YAXXZ        00519860 f   u_s_renamer.obj
 0001:00118880       ?riemann_draw2d@@YAXXZ     00519880 f   u_s_riemann.obj
 0001:00118ae0       ?riemann_exit@@YAXXZ       00519ae0 f   u_s_riemann.obj
 0001:00118b00       ?riemann_init@@YAXXZ       00519b00 f   u_s_riemann.obj
 0001:00118e30       ?riemann_proc@@YAXXZ       00519e30 f   u_s_riemann.obj
 0001:00119100       ??0?$vector@Upointf3@@V?$allocator@Upointf3@@@std@@@std@@QAE@IABV?$allocator@Upointf3@@@1@@Z 0051a100 f i u_s_rubikscube.obj
 0001:0011a0d0       ?rcubedraw2d@@YAXXZ        0051b0d0 f   u_s_rubikscube.obj
 0001:0011a120       ?rcubedraw3d@@YAXXZ        0051b120 f   u_s_rubikscube.obj
 0001:0011a150       ?rcubeexit@@YAXXZ          0051b150 f   u_s_rubikscube.obj
 0001:0011a180       ?rcubeinit@@YAXXZ          0051b180 f   u_s_rubikscube.obj
 0001:0011a530       ?rcubeproc@@YAXXZ          0051b530 f   u_s_rubikscube.obj
 0001:0011a990       ??1TiXmlDocument@@UAE@XZ   0051b990 f i u_s_scratch.obj
 0001:0011a9f0       ??_ETiXmlDocument@@UAEPAXI@Z 0051b9f0 f i u_s_scratch.obj
 0001:0011a9f0       ??_GTiXmlDocument@@UAEPAXI@Z 0051b9f0 f i u_s_scratch.obj
 0001:0011aa20       ?scratchdraw2d@@YAXXZ      0051ba20 f   u_s_scratch.obj
 0001:0011ae00       ?scratchexit@@YAXXZ        0051be00 f   u_s_scratch.obj
 0001:0011ae20       ?scratchinit@@YAXXZ        0051be20 f   u_s_scratch.obj
 0001:0011aee0       ?parse_gog@u_s_searcher@@YAXAAV?$vector@Uplace@u_s_searcher@@V?$allocator@Uplace@u_s_searcher@@@std@@@std@@V?$basic_string@DU?$char_traits@D@std@@V?$allocator@D@2@@3@PBD@Z 0051bee0 f   u_s_searcher.obj
 0001:0011b880       ?buildget_gog@u_s_searcher@@YA?AV?$basic_string@DU?$char_traits@D@std@@V?$allocator@D@2@@std@@V23@@Z 0051c880 f   u_s_searcher.obj
 0001:0011ba20       ?parse_yah@u_s_searcher@@YAXAAV?$vector@Uplace@u_s_searcher@@V?$allocator@Uplace@u_s_searcher@@@std@@@std@@V?$basic_string@DU?$char_traits@D@std@@V?$allocator@D@2@@3@PBD@Z 0051ca20 f   u_s_searcher.obj
 0001:0011c400       ?buildget_yah@u_s_searcher@@YA?AV?$basic_string@DU?$char_traits@D@std@@V?$allocator@D@2@@std@@V23@@Z 0051d400 f   u_s_searcher.obj
 0001:0011c5c0       ?parse_ask@u_s_searcher@@YAXAAV?$vector@Uplace@u_s_searcher@@V?$allocator@Uplace@u_s_searcher@@@std@@@std@@V?$basic_string@DU?$char_traits@D@std@@V?$allocator@D@2@@3@PBD@Z 0051d5c0 f   u_s_searcher.obj
 0001:0011d090       ?buildget_ask@u_s_searcher@@YA?AV?$basic_string@DU?$char_traits@D@std@@V?$allocator@D@2@@std@@V23@@Z 0051e090 f   u_s_searcher.obj
 0001:0011d250       ??$?HDU?$char_traits@D@std@@V?$allocator@D@1@@std@@YA?AV?$basic_string@DU?$char_traits@D@std@@V?$allocator@D@2@@0@ABV10@0@Z 0051e250 f i u_s_searcher.obj
 0001:0011d400       ??$_Emplace_reallocate@ABUplace@u_s_searcher@@@?$vector@Uplace@u_s_searcher@@V?$allocator@Uplace@u_s_searcher@@@std@@@std@@QAEPAUplace@u_s_searcher@@QAU23@ABU23@@Z 0051e400 f i u_s_searcher.obj
 0001:0011d690       ??$_Insertion_sort_unchecked@PAUplace@u_s_searcher@@U?$less@X@std@@@std@@YAPAUplace@u_s_searcher@@PAU12@QAU12@U?$less@X@0@@Z 0051e690 f i u_s_searcher.obj
 0001:0011dc50       ??$_Make_heap_unchecked@PAUplace@u_s_searcher@@U?$less@X@std@@@std@@YAXPAUplace@u_s_searcher@@0U?$less@X@0@@Z 0051ec50 f i u_s_searcher.obj
 0001:0011ddc0       ??$_Med3_unchecked@PAUplace@u_s_searcher@@U?$less@X@std@@@std@@YAXPAUplace@u_s_searcher@@00U?$less@X@0@@Z 0051edc0 f i u_s_searcher.obj
 0001:0011de60       ??$_Move_backward_unchecked1@PAUplace@u_s_searcher@@PAU12@@std@@YAPAUplace@u_s_searcher@@PAU12@00U_General_ptr_iterator_tag@0@@Z 0051ee60 f i u_s_searcher.obj
 0001:0011e000       ??$_Partition_by_median_guess_unchecked@PAUplace@u_s_searcher@@U?$less@X@std@@@std@@YA?AU?$pair@PAUplace@u_s_searcher@@PAU12@@0@PAUplace@u_s_searcher@@0U?$less@X@0@@Z 0051f000 f i u_s_searcher.obj
 0001:0011e2e0       ??$_Pop_heap_hole_by_index@PAUplace@u_s_searcher@@U12@U?$less@X@std@@@std@@YAXPAUplace@u_s_searcher@@HH$$QAU12@U?$less@X@0@@Z 0051f2e0 f i u_s_searcher.obj
 0001:0011e4f0       ??$_Push_heap_by_index@PAUplace@u_s_searcher@@U12@U?$less@X@std@@@std@@YAXPAUplace@u_s_searcher@@HH$$QAU12@U?$less@X@0@@Z 0051f4f0 f i u_s_searcher.obj
 0001:0011e6c0       ??$_Sort_unchecked@PAUplace@u_s_searcher@@U?$less@X@std@@@std@@YAXPAUplace@u_s_searcher@@0HU?$less@X@0@@Z 0051f6c0 f i u_s_searcher.obj
 0001:0011e840       ??$_Traits_find@U?$char_traits@D@std@@@std@@YAIQBDII0I@Z 0051f840 f i u_s_searcher.obj
 0001:0011e930       ??0place@u_s_searcher@@QAE@$$QAU01@@Z 0051f930 f i u_s_searcher.obj
 0001:0011e9e0       ??0place@u_s_searcher@@QAE@ABU01@@Z 0051f9e0 f i u_s_searcher.obj
 0001:0011ea50       ??1?$vector@Uplace@u_s_searcher@@V?$allocator@Uplace@u_s_searcher@@@std@@@std@@QAE@XZ 0051fa50 f i u_s_searcher.obj
 0001:0011ead0       ??1place@u_s_searcher@@QAE@XZ 0051fad0 f i u_s_searcher.obj
 0001:0011ebb0       ??4place@u_s_searcher@@QAEAAU01@$$QAU01@@Z 0051fbb0 f i u_s_searcher.obj
 0001:0011ec60       ??_Gserv@u_s_searcher@@QAEPAXI@Z 0051fc60 f i u_s_searcher.obj
 0001:0011edb0       ?_Destroy@?$vector@Uplace@u_s_searcher@@V?$allocator@Uplace@u_s_searcher@@@std@@@std@@AAEXPAUplace@u_s_searcher@@0@Z 0051fdb0 f i u_s_searcher.obj
 0001:0011ede0       ?deallocate@?$allocator@Uplace@u_s_searcher@@@std@@QAEXQAUplace@u_s_searcher@@I@Z 0051fde0 f i u_s_searcher.obj
 0001:0011ee20       ?getbetween@u_s_searcher@@YA?AV?$basic_string@DU?$char_traits@D@std@@V?$allocator@D@2@@std@@V23@H00PAH@Z 0051fe20 f   u_s_searcher.obj
 0001:0011f0f0       ?getbetweeninclude@u_s_searcher@@YA?AV?$basic_string@DU?$char_traits@D@std@@V?$allocator@D@2@@std@@V23@H00PAH@Z 005200f0 f   u_s_searcher.obj
 0001:0011f340       ?getdt@u_s_searcher@@YA?AV?$basic_string@DU?$char_traits@D@std@@V?$allocator@D@2@@std@@PBD@Z 00520340 f   u_s_searcher.obj
 0001:0011f410       ?getfile@u_s_searcher@@YAPADPBDPAH@Z 00520410 f   u_s_searcher.obj
 0001:0011f4b0       ?getfile_addhead@u_s_searcher@@YAPADPBDPAH@Z 005204b0 f   u_s_searcher.obj
 0001:0011f730       ?getfile_redir@u_s_searcher@@YAPADPBDPAH@Z 00520730 f   u_s_searcher.obj
 0001:0011fb10       ?parse@u_s_searcher@@YAPADPADHPAHPAW4parseresult@1@@Z 00520b10 f   u_s_searcher.obj
 0001:0011fd80       ?push_back@?$vector@Uplace@u_s_searcher@@V?$allocator@Uplace@u_s_searcher@@@std@@@std@@QAEXABUplace@u_s_searcher@@@Z 00520d80 f i u_s_searcher.obj
 0001:0011fe10       ?searcher_draw2d@@YAXXZ    00520e10 f   u_s_searcher.obj
 0001:00120000       ?searcher_exit@@YAXXZ      00521000 f   u_s_searcher.obj
 0001:00120350       ?searcher_init@@YAXXZ      00521350 f   u_s_searcher.obj
 0001:001206e0       ?searcher_proc@@YAXXZ      005216e0 f   u_s_searcher.obj
 0001:00120c70       ?sproc@serv@u_s_searcher@@QAEXXZ 00521c70 f i u_s_searcher.obj
 0001:00121a90       ?checkbasiccol@simplex@@YAHH@Z 00522a90 f   u_s_simplex.obj
 0001:00121b00       ?dopivot@simplex@@YAXHH@Z  00522b00 f   u_s_simplex.obj
 0001:00121df0       ?doreduce@simplex@@YAXXZ   00522df0 f   u_s_simplex.obj
 0001:00122460       ?dosave@simplex@@YAXXZ     00523460 f   u_s_simplex.obj
 0001:00122490       ?dosolve@simplex@@YAXXZ    00523490 f   u_s_simplex.obj
 0001:00122690       ?findbestpivots@simplex@@YAXXZ 00523690 f   u_s_simplex.obj
 0001:00122a30       ?getgame@simplex@@YAXXZ    00523a30 f   u_s_simplex.obj
 0001:00122b30       ?getorig@simplex@@YAXXZ    00523b30 f   u_s_simplex.obj
 0001:00122c70       ?removecolumn@simplex@@YAXH@Z 00523c70 f   u_s_simplex.obj
 0001:00122e60       ?removerow@simplex@@YAXH@Z 00523e60 f   u_s_simplex.obj
 0001:00123060       ?setdim@simplex@@YAXXZ     00524060 f   u_s_simplex.obj
 0001:00123180       ?simplexdraw2d@@YAXXZ      00524180 f   u_s_simplex.obj
 0001:001234b0       ?simplexexit@@YAXXZ        005244b0 f   u_s_simplex.obj
 0001:001234e0       ?simplexinit@@YAXXZ        005244e0 f   u_s_simplex.obj
 0001:001239f0       ?simplexproc@@YAXXZ        005249f0 f   u_s_simplex.obj
 0001:00124190       ?updatenumbers@simplex@@YAXXZ 00525190 f   u_s_simplex.obj
 0001:00124270       ??$_Emplace_reallocate@ABUboard@slider@@@?$vector@Uboard@slider@@V?$allocator@Uboard@slider@@@std@@@std@@QAEPAUboard@slider@@QAU23@ABU23@@Z 00525270 f i u_s_slider.obj
 0001:00124270       ??$_Emplace_reallocate@ABUboard@wriggler@@@?$vector@Uboard@wriggler@@V?$allocator@Uboard@wriggler@@@std@@@std@@QAEPAUboard@wriggler@@QAU23@ABU23@@Z 00525270 f i u_s_wriggler.obj
 0001:00124480       ??$_Emplace_reallocate@ABUboardcollinfo@slider@@@?$vector@Uboardcollinfo@slider@@V?$allocator@Uboardcollinfo@slider@@@std@@@std@@QAEPAUboardcollinfo@slider@@QAU23@ABU23@@Z 00525480 f i u_s_slider.obj
 0001:00124480       ??$_Emplace_reallocate@ABUboardcollinfo@wriggler@@@?$vector@Uboardcollinfo@wriggler@@V?$allocator@Uboardcollinfo@wriggler@@@std@@@std@@QAEPAUboardcollinfo@wriggler@@QAU23@ABU23@@Z 00525480 f i u_s_wriggler.obj
 0001:00124690       ??0board@slider@@QAE@PBD@Z 00525690 f   u_s_slider.obj
 0001:00124dd0       ??0game@slider@@QAE@PBD@Z  00525dd0 f i u_s_slider.obj
 0001:00124e40       ??1?$vector@Uboard@slider@@V?$allocator@Uboard@slider@@@std@@@std@@QAE@XZ 00525e40 f i u_s_slider.obj
 0001:00124e40       ??1?$vector@Uboard@wriggler@@V?$allocator@Uboard@wriggler@@@std@@@std@@QAE@XZ 00525e40 f i u_s_wriggler.obj
 0001:00124eb0       ??1?$vector@Uboardcollinfo@slider@@V?$allocator@Uboardcollinfo@slider@@@std@@@std@@QAE@XZ 00525eb0 f i u_s_slider.obj
 0001:00124eb0       ??1?$vector@Uboardcollinfo@wriggler@@V?$allocator@Uboardcollinfo@wriggler@@@std@@@std@@QAE@XZ 00525eb0 f i u_s_wriggler.obj
 0001:00124f30       ?addboard@boardcoll@slider@@QAE_NABUboard@2@HHHABUms@2@@Z 00525f30 f   u_s_slider.obj
 0001:00125140       ?addundo@game@wriggler@@QAEXABUboard@2@@Z 00526140 f   u_s_wriggler.obj
 0001:00125140       ?addundo@game@slider@@QAEXABUboard@2@@Z 00526140 f   u_s_slider.obj
 0001:00125180       ?cleanup@board@slider@@SAXXZ 00526180 f   u_s_slider.obj
 0001:001251f0       ?draw@game@slider@@QBEXABUpointi2@@@Z 005261f0 f   u_s_slider.obj
 0001:001257e0       ?iswinner@game@slider@@QAE_NXZ 005267e0 f   u_s_slider.obj
 0001:00125830       ?move@game@slider@@QAE_NABUpointi2@@@Z 00526830 f   u_s_slider.obj
 0001:00125a80       ?sliderdraw2d@@YAXXZ       00526a80 f   u_s_slider.obj
 0001:00125bf0       ?sliderexit@@YAXXZ         00526bf0 f   u_s_slider.obj
 0001:00125c90       ?sliderinit@@YAXXZ         00526c90 f   u_s_slider.obj
 0001:00125eb0       ?sliderproc@@YAXXZ         00526eb0 f   u_s_slider.obj
 0001:00126490       ?solve@game@slider@@AAEXXZ 00527490 f   u_s_slider.obj
 0001:00126920       ?plot2soccergoaldraw2d@@YAXXZ 00527920 f   u_s_plot2soccergoal.obj
 0001:00126a30       ?plot2soccergoalexit@@YAXXZ 00527a30 f   u_s_plot2soccergoal.obj
 0001:00126a70       ?plot2soccergoalinit@@YAXXZ 00527a70 f   u_s_plot2soccergoal.obj
 0001:00126ac0       ?plot2soccergoalproc@@YAXXZ 00527ac0 f   u_s_plot2soccergoal.obj
 0001:00126bd0       ??$_Emplace_reallocate@ABUboardcollinfo@sokoban@@@?$vector@Uboardcollinfo@sokoban@@V?$allocator@Uboardcollinfo@sokoban@@@std@@@std@@QAEPAUboardcollinfo@sokoban@@QAU23@ABU23@@Z 00527bd0 f i u_s_sokoban.obj
 0001:00126bd0       ??$_Emplace_reallocate@ABUboardcollinfo@sokoban2@@@?$vector@Uboardcollinfo@sokoban2@@V?$allocator@Uboardcollinfo@sokoban2@@@std@@@std@@QAEPAUboardcollinfo@sokoban2@@QAU23@ABU23@@Z 00527bd0 f i u_s_sokoban2.obj
 0001:00126dc0       ??$_Emplace_reallocate@ABUobjects@sokoban2@@@?$vector@Uobjects@sokoban2@@V?$allocator@Uobjects@sokoban2@@@std@@@std@@QAEPAUobjects@sokoban2@@QAU23@ABU23@@Z 00527dc0 f i u_s_sokoban2.obj
 0001:00126dc0       ??$_Emplace_reallocate@ABUobjects@sokoban@@@?$vector@Uobjects@sokoban@@V?$allocator@Uobjects@sokoban@@@std@@@std@@QAEPAUobjects@sokoban@@QAU23@ABU23@@Z 00527dc0 f i u_s_sokoban.obj
 0001:00126fd0       ??0game@sokoban@@QAE@PBD@Z 00527fd0 f i u_s_sokoban.obj
 0001:00127030       ??0objects@sokoban@@QAE@PBD@Z 00528030 f   u_s_sokoban.obj
 0001:00127470       ??1?$vector@Uboardcollinfo@sokoban2@@V?$allocator@Uboardcollinfo@sokoban2@@@std@@@std@@QAE@XZ 00528470 f i u_s_sokoban2.obj
 0001:00127470       ??1?$vector@Uboardcollinfo@sokoban@@V?$allocator@Uboardcollinfo@sokoban@@@std@@@std@@QAE@XZ 00528470 f i u_s_sokoban.obj
 0001:001274e0       ??1?$vector@Uobjects@sokoban2@@V?$allocator@Uobjects@sokoban2@@@std@@@std@@QAE@XZ 005284e0 f i u_s_sokoban2.obj
 0001:001274e0       ??1?$vector@Uobjects@sokoban@@V?$allocator@Uobjects@sokoban@@@std@@@std@@QAE@XZ 005284e0 f i u_s_sokoban.obj
 0001:00127550       ??_Ggame@sokoban@@QAEPAXI@Z 00528550 f i u_s_sokoban.obj
 0001:001275d0       ?_Umove@?$vector@Uboardcollinfo@sokoban2@@V?$allocator@Uboardcollinfo@sokoban2@@@std@@@std@@AAEPAUboardcollinfo@sokoban2@@PAU34@00@Z 005285d0 f i u_s_sokoban2.obj
 0001:001275d0       ?_Umove@?$vector@Uboardcollinfo@sokoban@@V?$allocator@Uboardcollinfo@sokoban@@@std@@@std@@AAEPAUboardcollinfo@sokoban@@PAU34@00@Z 005285d0 f i u_s_sokoban.obj
 0001:00127610       ?addboard@boardcoll@sokoban@@QAE_NABUobjects@2@HHHABUpointS82@2@@Z 00528610 f   u_s_sokoban.obj
 0001:001277a0       ?addundo@game@sokoban2@@QAEXABUobjects@2@@Z 005287a0 f   u_s_sokoban2.obj
 0001:001277a0       ?addundo@game@sokoban@@QAEXABUobjects@2@@Z 005287a0 f   u_s_sokoban.obj
 0001:001277e0       ?beq@objects@sokoban@@QBE_NABU12@@Z 005287e0 f   u_s_sokoban.obj
 0001:00127840       ?draw@game@sokoban@@QBEXABUpointi2@@@Z 00528840 f   u_s_sokoban.obj
 0001:00127ae0       ?isloser@game@sokoban@@QAE_NXZ 00528ae0 f   u_s_sokoban.obj
 0001:00127d10       ?iswinner@game@sokoban@@QAE_NXZ 00528d10 f   u_s_sokoban.obj
 0001:00127d50       ?move@game@sokoban@@QAE_NABUpointS82@2@@Z 00528d50 f   u_s_sokoban.obj
 0001:00127f30       ?sokobandraw2d@@YAXXZ      00528f30 f   u_s_sokoban.obj
 0001:00128140       ?sokobanexit@@YAXXZ        00529140 f   u_s_sokoban.obj
 0001:00128210       ?sokobaninit@@YAXXZ        00529210 f   u_s_sokoban.obj
 0001:00128490       ?sokobanproc@@YAXXZ        00529490 f   u_s_sokoban.obj
 0001:001288c0       ?solve@game@sokoban@@AAEXXZ 005298c0 f   u_s_sokoban.obj
 0001:00128e00       ??$_Emplace_reallocate@ABUplayermove@sokoban2@@@?$vector@Uplayermove@sokoban2@@V?$allocator@Uplayermove@sokoban2@@@std@@@std@@QAEPAUplayermove@sokoban2@@QAU23@ABU23@@Z 00529e00 f i u_s_sokoban2.obj
 0001:00128f90       ??0game@sokoban2@@QAE@PBD@Z 00529f90 f i u_s_sokoban2.obj
 0001:00128ff0       ??0objects@sokoban2@@QAE@PBD@Z 00529ff0 f   u_s_sokoban2.obj
 0001:00129430       ??1?$vector@Uplayermove@sokoban2@@V?$allocator@Uplayermove@sokoban2@@@std@@@std@@QAE@XZ 0052a430 f i u_s_sokoban2.obj
 0001:001294a0       ??1boardcoll@sokoban2@@QAE@XZ 0052a4a0 f i u_s_sokoban2.obj
 0001:00129500       ??_Ggame@sokoban2@@QAEPAXI@Z 0052a500 f i u_s_sokoban2.obj
 0001:00129580       ?addboard@boardcoll@sokoban2@@QAEHAAUobjects@2@H@Z 0052a580 f   u_s_sokoban2.obj
 0001:001296e0       ?backtrace@game@sokoban2@@QAEXHABVboardcoll@2@Uobjects@2@UpointU82@2@@Z 0052a6e0 f   u_s_sokoban2.obj
 0001:00129b30       ?beq@objects@sokoban2@@QAE_NAAU12@@Z 0052ab30 f   u_s_sokoban2.obj
 0001:00129b90       ?calcmovesfromto@objects@sokoban2@@QAE?AV?$vector@UpointS82@sokoban2@@V?$allocator@UpointS82@sokoban2@@@std@@@std@@UpointU82@2@0@Z 0052ab90 f   u_s_sokoban2.obj
 0001:00129d70       ?calcplayerrange@objects@sokoban2@@QAE?AV?$vector@Uplayermove@sokoban2@@V?$allocator@Uplayermove@sokoban2@@@std@@@std@@UpointU82@2@PAU52@@Z 0052ad70 f   u_s_sokoban2.obj
 0001:00129fa0       ?domovesfromto@game@sokoban2@@QAEXUpointU82@2@0@Z 0052afa0 f   u_s_sokoban2.obj
 0001:0012a060       ?draw@objects@sokoban2@@QAEXABUpointi2@@@Z 0052b060 f   u_s_sokoban2.obj
 0001:0012a2f0       ?isloser@objects@sokoban2@@QAE_NXZ 0052b2f0 f   u_s_sokoban2.obj
 0001:0012a4b0       ?mark@objects@sokoban2@@QAEXXZ 0052b4b0 f   u_s_sokoban2.obj
 0001:0012a540       ?move@objects@sokoban2@@QAEHABUpointS82@2@@Z 0052b540 f   u_s_sokoban2.obj
 0001:0012a700       ?sokoban2draw2d@@YAXXZ     0052b700 f   u_s_sokoban2.obj
 0001:0012a8d0       ?sokoban2exit@@YAXXZ       0052b8d0 f   u_s_sokoban2.obj
 0001:0012a9a0       ?sokoban2init@@YAXXZ       0052b9a0 f   u_s_sokoban2.obj
 0001:0012abd0       ?sokoban2proc@@YAXXZ       0052bbd0 f   u_s_sokoban2.obj
 0001:0012b060       ?solve@game@sokoban2@@AAEXXZ 0052c060 f   u_s_sokoban2.obj
 0001:0012b4d0       ?spawner_draw2d@@YAXXZ     0052c4d0 f   u_s_spawner.obj
 0001:0012b530       ?spawner_exit@@YAXXZ       0052c530 f   u_s_spawner.obj
 0001:0012b540       ?spawner_init@@YAXXZ       0052c540 f   u_s_spawner.obj
 0001:0012b580       ?spawner_proc@@YAXXZ       0052c580 f   u_s_spawner.obj
 0001:0012b800       ?spritetest2draw2d@@YAXXZ  0052c800 f   u_s_spritetest2.obj
 0001:0012b8c0       ?spritetest2exit@@YAXXZ    0052c8c0 f   u_s_spritetest2.obj
 0001:0012b940       ?spritetest2init@@YAXXZ    0052c940 f   u_s_spritetest2.obj
 0001:0012bc00       ?spritetest2proc@@YAXXZ    0052cc00 f   u_s_spritetest2.obj
 0001:0012be40       ?spritetest3draw3d@@YAXXZ  0052ce40 f   u_s_spritetest3.obj
 0001:0012bf10       ?spritetest3exit@@YAXXZ    0052cf10 f   u_s_spritetest3.obj
 0001:0012c0c0       ?spritetest3init@@YAXXZ    0052d0c0 f   u_s_spritetest3.obj
 0001:0012c380       ?spritetest3proc@@YAXXZ    0052d380 f   u_s_spritetest3.obj
 0001:0012c3f0       ?stepCircles@stoid@@YAXXZ  0052d3f0 f   u_s_stoid.obj
 0001:0012c640       ?stoiddraw2d@@YAXXZ        0052d640 f   u_s_stoid.obj
 0001:0012c670       ?stoidexit@@YAXXZ          0052d670 f   u_s_stoid.obj
 0001:0012c6a0       ?stoidinit@@YAXXZ          0052d6a0 f   u_s_stoid.obj
 0001:0012c7a0       ?stoidproc@@YAXXZ          0052d7a0 f   u_s_stoid.obj
 0001:0012cca0       ?syncro_draw2d@@YAXXZ      0052dca0 f   u_s_syncro.obj
 0001:0012cd20       ?syncro_exit@@YAXXZ        0052dd20 f   u_s_syncro.obj
 0001:0012cd40       ?syncro_init@@YAXXZ        0052dd40 f   u_s_syncro.obj
 0001:0012cdc0       ?syncro_proc@@YAXXZ        0052ddc0 f   u_s_syncro.obj
 0001:0012ce40       ?testres3ddraw3d@@YAXXZ    0052de40 f   u_s_testres3d.obj
 0001:0012cea0       ?testres3dexit@@YAXXZ      0052dea0 f   u_s_testres3d.obj
 0001:0012cf20       ?testres3dinit@@YAXXZ      0052df20 f   u_s_testres3d.obj
 0001:0012d280       ?testres3dproc@@YAXXZ      0052e280 f   u_s_testres3d.obj
 0001:0012d390       ??0?$vector@_NV?$allocator@_N@std@@@std@@QAE@IABV?$allocator@_N@1@@Z 0052e390 f i u_s_toon.obj
 0001:0012d440       ?edgeify@@YAXPAVtree2@@@Z  0052e440 f   u_s_toon.obj
 0001:0012de90       ?normalify@@YAXPAVtree2@@I@Z 0052ee90 f   u_s_toon.obj
 0001:0012e400       ?toondraw3d@@YAXXZ         0052f400 f   u_s_toon.obj
 0001:0012e430       ?toonexit@@YAXXZ           0052f430 f   u_s_toon.obj
 0001:0012e480       ?tooninit@@YAXXZ           0052f480 f   u_s_toon.obj
 0001:0012e750       ?toonproc@@YAXXZ           0052f750 f   u_s_toon.obj
 0001:0012ea80       ?tritest1draw3d@@YAXXZ     0052fa80 f   u_s_tritest1.obj
 0001:0012eb20       ?tritest1exit@@YAXXZ       0052fb20 f   u_s_tritest1.obj
 0001:0012ec10       ?tritest1init@@YAXXZ       0052fc10 f   u_s_tritest1.obj
 0001:0012f3a0       ?tritest1proc@@YAXXZ       005303a0 f   u_s_tritest1.obj
 0001:0012f830       ?tritest2draw2d@@YAXXZ     00530830 f   u_s_tritest2.obj
 0001:0012f8c0       ?tritest2draw3d@@YAXXZ     005308c0 f   u_s_tritest2.obj
 0001:0012f8e0       ?tritest2exit@@YAXXZ       005308e0 f   u_s_tritest2.obj
 0001:0012f9e0       ?tritest2init@@YAXXZ       005309e0 f   u_s_tritest2.obj
 0001:0012fc10       ?tritest2proc@@YAXXZ       00530c10 f   u_s_tritest2.obj
 0001:0012fe80       ?tritest3draw3d@@YAXXZ     00530e80 f   u_s_tritest3.obj
 0001:0012ff20       ?tritest3exit@@YAXXZ       00530f20 f   u_s_tritest3.obj
 0001:00130020       ?tritest3init@@YAXXZ       00531020 f   u_s_tritest3.obj
 0001:001302a0       ?tritest3proc@@YAXXZ       005312a0 f   u_s_tritest3.obj
 0001:00130540       ?tritest4draw3d@@YAXXZ     00531540 f   u_s_tritest4.obj
 0001:00130950       ?tritest4exit@@YAXXZ       00531950 f   u_s_tritest4.obj
 0001:00130af0       ?tritest4init@@YAXXZ       00531af0 f   u_s_tritest4.obj
 0001:00130f10       ?tritest4proc@@YAXXZ       00531f10 f   u_s_tritest4.obj
 0001:001311a0       ?tritest5draw3d@@YAXXZ     005321a0 f   u_s_tritest5.obj
 0001:001311c0       ?tritest5exit@@YAXXZ       005321c0 f   u_s_tritest5.obj
 0001:00131200       ?tritest5init@@YAXXZ       00532200 f   u_s_tritest5.obj
 0001:001313e0       ?tritest5proc@@YAXXZ       005323e0 f   u_s_tritest5.obj
 0001:00131540       ?checkO@ttt@@YA?AW4status@1@XZ 00532540 f   u_s_ttt.obj
 0001:00131600       ?draw@ttt@@YAXXZ           00532600 f   u_s_ttt.obj
 0001:00131770       ?endagame@ttt@@YAXW4status@1@@Z 00532770 f   u_s_ttt.obj
 0001:00131800       ?humango@ttt@@YAXXZ        00532800 f   u_s_ttt.obj
 0001:00131830       ?positO@ttt@@YA?AW4status@1@XZ 00532830 f   u_s_ttt.obj
 0001:00131920       ?positX@ttt@@YA?AW4status@1@XZ 00532920 f   u_s_ttt.obj
 0001:001319f0       ?startagame@ttt@@YAXXZ     005329f0 f   u_s_ttt.obj
 0001:00131a60       ?tttdraw2d@@YAXXZ          00532a60 f   u_s_ttt.obj
 0001:00131ab0       ?tttexit@@YAXXZ            00532ab0 f   u_s_ttt.obj
 0001:00131ad0       ?tttinit@@YAXXZ            00532ad0 f   u_s_ttt.obj
 0001:00131b40       ?tttproc@@YAXXZ            00532b40 f   u_s_ttt.obj
 0001:00131da0       ?next_funct@turing@@YAXHHH@Z 00532da0 f   u_s_turing.obj
 0001:00131e00       ?action_funct@turing@@YAXHHH@Z 00532e00 f   u_s_turing.obj
 0001:00131ea0       ?write_funct@turing@@YAXHHH@Z 00532ea0 f   u_s_turing.obj
 0001:00131ef0       ?state_funct@turing@@YAXHHH@Z 00532ef0 f   u_s_turing.obj
 0001:00131f20       ?tape_funct@turing@@YAXHHH@Z 00532f20 f   u_s_turing.obj
 0001:00131f90       ?head_funct@turing@@YAXHHH@Z 00532f90 f   u_s_turing.obj
 0001:00131fb0       ?continue_funct@turing@@YAXHHH@Z 00532fb0 f   u_s_turing.obj
 0001:00131ff0       ?start_funct@turing@@YAXHHH@Z 00532ff0 f   u_s_turing.obj
 0001:00132030       ?stop_funct@turing@@YAXHHH@Z 00533030 f   u_s_turing.obj
 0001:00132040       ?speed_funct@turing@@YAXHHH@Z 00533040 f   u_s_turing.obj
 0001:001320b0       ?drawmachine@turing@@YAXPAUbitmap32@@@Z 005330b0 f   u_s_turing.obj
 0001:00132610       ?initmachine@turing@@YAXXZ 00533610 f   u_s_turing.obj
 0001:00132700       ?loadmachine@turing@@YAXPBD@Z 00533700 f   u_s_turing.obj
 0001:001327a0       ?refreshfilelist@turing@@YAXXZ 005337a0 f   u_s_turing.obj
 0001:00132940       ?tristate@turing@@YAHHH@Z  00533940 f   u_s_turing.obj
 0001:00132990       ?turingdraw2d@@YAXXZ       00533990 f   u_s_turing.obj
 0001:00132c20       ?turingexit@@YAXXZ         00533c20 f   u_s_turing.obj
 0001:00132c50       ?turinginit@@YAXXZ         00533c50 f   u_s_turing.obj
 0001:00132ff0       ?turingproc@@YAXXZ         00533ff0 f   u_s_turing.obj
 0001:00133580       ?newclass_from_handle@?$factory@Vuitree@@Vscript@@@@QAEPAVuitree@@AAVscript@@@Z 00534580 f i u_s_ui.obj
 0001:001338e0       ?ui_draw2d@@YAXXZ          005348e0 f   u_s_ui.obj
 0001:001339a0       ?ui_exit@@YAXXZ            005349a0 f   u_s_ui.obj
 0001:00133a00       ?ui_init@@YAXXZ            00534a00 f   u_s_ui.obj
 0001:00133b00       ?ui_proc@@YAXXZ            00534b00 f   u_s_ui.obj
 0001:00133b50       ?user0draw2d@@YAXXZ        00534b50 f   u_s_user0.obj
 0001:00133b90       ?user0exit@@YAXXZ          00534b90 f   u_s_user0.obj
 0001:00133bb0       ?user0init@@YAXXZ          00534bb0 f   u_s_user0.obj
 0001:00133ce0       ?user0proc@@YAXXZ          00534ce0 f   u_s_user0.obj
 0001:00133d20       ?smallgroupstest@@YAXXZ    00534d20 f   u_s_user1.obj
 0001:00134790       ?user1draw2d@@YAXXZ        00535790 f   u_s_user1.obj
 0001:001347e0       ?user1init@@YAXXZ          005357e0 f   u_s_user1.obj
 0001:00134800       ?user1proc@@YAXXZ          00535800 f   u_s_user1.obj
 0001:00134880       ?scanbm@user2@@YAXPAUbitmap32@@0@Z 00535880 f   u_s_user2.obj
 0001:00134e70       ?showhsv@user2@@YAXXZ      00535e70 f   u_s_user2.obj
 0001:00135110       ?user2draw2d@@YAXXZ        00536110 f   u_s_user2.obj
 0001:00135310       ?user2exit@@YAXXZ          00536310 f   u_s_user2.obj
 0001:00135350       ?user2init@@YAXXZ          00536350 f   u_s_user2.obj
 0001:00135610       ?user2proc@@YAXXZ          00536610 f   u_s_user2.obj
 0001:001356b0       ?vidcap_draw2d@@YAXXZ      005366b0 f   u_s_vidcap.obj
 0001:00135740       ?vidcap_draw3d@@YAXXZ      00536740 f   u_s_vidcap.obj
 0001:00135820       ?vidcap_exit@@YAXXZ        00536820 f   u_s_vidcap.obj
 0001:00135880       ?vidcap_init@@YAXXZ        00536880 f   u_s_vidcap.obj
 0001:00135d00       ?vidcap_proc@@YAXXZ        00536d00 f   u_s_vidcap.obj
 0001:00135ed0       ?vidtestdraw3d@@YAXXZ      00536ed0 f   u_s_vidtest.obj
 0001:00135f00       ?vidtestexit@@YAXXZ        00536f00 f   u_s_vidtest.obj
 0001:00135f70       ?vidtestinit@@YAXXZ        00536f70 f   u_s_vidtest.obj
 0001:00136180       ?vidtestproc@@YAXXZ        00537180 f   u_s_vidtest.obj
 0001:00136420       ??0board@wriggler@@QAE@PBD@Z 00537420 f   u_s_wriggler.obj
 0001:00136960       ??0game@wriggler@@QAE@PBD@Z 00537960 f i u_s_wriggler.obj
 0001:001369d0       ?addboard@boardcoll@wriggler@@QAE_NABUboard@2@HHHABUms@2@@Z 005379d0 f   u_s_wriggler.obj
 0001:00136c30       ?adddir@tile@wriggler@@QAEXHH@Z 00537c30 f   u_s_wriggler.obj
 0001:00136c70       ?draw@game@wriggler@@QBEXABUpointi2@@@Z 00537c70 f   u_s_wriggler.obj
 0001:00137020       ?iswinner@game@wriggler@@QAE_NXZ 00538020 f   u_s_wriggler.obj
 0001:00137080       ?move@game@wriggler@@QAE_NABUpointi2@@@Z 00538080 f   u_s_wriggler.obj
 0001:001372b0       ?parse_tile@board@wriggler@@QAE?AUtile@2@PBD@Z 005382b0 f   u_s_wriggler.obj
 0001:00137420       ?solve@game@wriggler@@AAEXXZ 00538420 f   u_s_wriggler.obj
 0001:001378b0       ?wrigglerdraw2d@@YAXXZ     005388b0 f   u_s_wriggler.obj
 0001:00137a50       ?wrigglerexit@@YAXXZ       00538a50 f   u_s_wriggler.obj
 0001:00137af0       ?wrigglerinit@@YAXXZ       00538af0 f   u_s_wriggler.obj
 0001:00137d10       ?wrigglerproc@@YAXXZ       00538d10 f   u_s_wriggler.obj
 0001:001382b0       ??0trackpath_fo@@QAE@ABUpointf3@@MQBW4PIECES@@IMM@Z 005392b0 f   u_trackpath.obj
 0001:001384e0       ??1trackpath_fo@@QAE@XZ    005394e0 f   u_trackpath.obj
 0001:00138500       ??Rtrackpath_fo@@QAEXMAAUpointf3@@0@Z 00539500 f   u_trackpath.obj
 0001:00138800       ??$?HDU?$char_traits@D@std@@V?$allocator@D@1@@std@@YA?AV?$basic_string@DU?$char_traits@D@std@@V?$allocator@D@2@@0@$$QAV10@0@Z 00539800 f i u_uiclass.obj
 0001:00138880       ??0?$factory@Vuitree@@Vscript@@@@QAE@XZ 00539880 f   u_uiclass.obj
 0001:001392f0       ??0button@@QAE@AAVscript@@@Z 0053a2f0 f i u_uiclass.obj
 0001:001393b0       ??0button@@QAE@PBDMMMM0@Z  0053a3b0 f i u_uiclass.obj
 0001:00139480       ??0checkbox@@QAE@AAVscript@@@Z 0053a480 f i u_uiclass.obj
 0001:00139500       ??0listbox2d@@QAE@AAVscript@@@Z 0053a500 f   u_uiclass.obj
 0001:00139550       ??0listbox2d@@QAE@PBDMMMM@Z 0053a550 f   u_uiclass.obj
 0001:001395e0       ??0texter@@QAE@AAVscript@@@Z 0053a5e0 f i u_uiclass.obj
 0001:001396a0       ??0texter@@QAE@PBDMMMM0@Z  0053a6a0 f i u_uiclass.obj
 0001:00139760       ??0uitree2d@@QAE@AAVscript@@@Z 0053a760 f i u_uiclass.obj
 0001:00139830       ??0uitree2dbitmap@@QAE@AAVscript@@@Z 0053a830 f   u_uiclass.obj
 0001:00139ab0       ??0uitree2dbitmap@@QAE@PBDMMMMMM00@Z 0053aab0 f   u_uiclass.obj
 0001:00139bf0       ??0uitree2dbitmapscale@@QAE@PBDMMMMMM00@Z 0053abf0 f   u_uiclass.obj
 0001:00139c70       ??0uitree2drect@@QAE@AAVscript@@@Z 0053ac70 f i u_uiclass.obj
 0001:00139d40       ??0uitree@@QAE@AAVscript@@@Z 0053ad40 f i u_uiclass.obj
 0001:00139e20       ??0uitree@@QAE@PBD@Z       0053ae20 f i u_uiclass.obj
 0001:00139ec0       ??1uitree2dbitmap@@UAE@XZ  0053aec0 f i u_uiclass.obj
 0001:00139fa0       ??1uitree2drect@@UAE@XZ    0053afa0 f i u_uiclass.obj
 0001:00139fc0       ??1uitree@@MAE@XZ          0053afc0 f   u_uiclass.obj
 0001:0013a150       ??4?$basic_string@DU?$char_traits@D@std@@V?$allocator@D@2@@std@@QAEAAV01@$$QAV01@@Z 0053b150 f i u_uiclass.obj
 0001:0013a190       ??A?$map@V?$basic_string@DU?$char_traits@D@std@@V?$allocator@D@2@@std@@P6APAXAAVscript@@@ZU?$less@V?$basic_string@DU?$char_traits@D@std@@V?$allocator@D@2@@std@@@2@V?$allocator@U?$pair@$$CBV?$basic_string@DU?$char_traits@D@std@@V?$allocator@D@2@@std@@P6APAXAAVscript@@@Z@std@@@2@@std@@QAEAAP6APAXAAVscript@@@Z$$QAV?$basic_string@DU?$char_traits@D@std@@V?$allocator@D@2@@1@@Z 0053b190 f i u_uiclass.obj
 0001:0013a220       ??_Gcloner@@UAEPAXI@Z      0053b220 f i u_uiclass.obj
 0001:0013a220       ??_Ebuttest0@@UAEPAXI@Z    0053b220 f i u_uiclass.obj
 0001:0013a220       ??_Gbutton@@UAEPAXI@Z      0053b220 f i u_uiclass.obj
 0001:0013a220       ??_Gbuttest0@@UAEPAXI@Z    0053b220 f i u_uiclass.obj
 0001:0013a220       ??_Ecloner@@UAEPAXI@Z      0053b220 f i u_uiclass.obj
 0001:0013a220       ??_Gbuttest1@@UAEPAXI@Z    0053b220 f i u_uiclass.obj
 0001:0013a220       ??_Edeleter@@UAEPAXI@Z     0053b220 f i u_uiclass.obj
 0001:0013a220       ??_Ebuttest1@@UAEPAXI@Z    0053b220 f i u_uiclass.obj
 0001:0013a220       ??_Gdeleter@@UAEPAXI@Z     0053b220 f i u_uiclass.obj
 0001:0013a220       ??_Ebutton@@UAEPAXI@Z      0053b220 f i u_uiclass.obj
 0001:0013a290       ??_Echeckbox@@UAEPAXI@Z    0053b290 f i u_uiclass.obj
 0001:0013a290       ??_Gcheckbox@@UAEPAXI@Z    0053b290 f i u_uiclass.obj
 0001:0013a290       ??_Eradiobutton@@UAEPAXI@Z 0053b290 f i u_uiclass.obj
 0001:0013a290       ??_Gradiobutton@@UAEPAXI@Z 0053b290 f i u_uiclass.obj
 0001:0013a300       ??_Geditbox@@UAEPAXI@Z     0053b300 f i u_uiclass.obj
 0001:0013a300       ??_Eeditbox@@UAEPAXI@Z     0053b300 f i u_uiclass.obj
 0001:0013a370       ??_Glistbox2d@@UAEPAXI@Z   0053b370 f i u_uiclass.obj
 0001:0013a370       ??_Elistbox2d@@UAEPAXI@Z   0053b370 f i u_uiclass.obj
 0001:0013a3a0       ??_Exslider@@UAEPAXI@Z     0053b3a0 f i u_uiclass2.obj
 0001:0013a3a0       ??_Gmover@@UAEPAXI@Z       0053b3a0 f i u_uiclass.obj
 0001:0013a3a0       ??_Gyslider@@UAEPAXI@Z     0053b3a0 f i u_uiclass2.obj
 0001:0013a3a0       ??_Eyslider@@UAEPAXI@Z     0053b3a0 f i u_uiclass2.obj
 0001:0013a3a0       ??_Emover@@UAEPAXI@Z       0053b3a0 f i u_uiclass.obj
 0001:0013a3a0       ??_Gxslider@@UAEPAXI@Z     0053b3a0 f i u_uiclass2.obj
 0001:0013a3d0       ??_Gsizer@@UAEPAXI@Z       0053b3d0 f i u_uiclass.obj
 0001:0013a3d0       ??_Esizer@@UAEPAXI@Z       0053b3d0 f i u_uiclass.obj
 0001:0013a400       ??_Etabs@@UAEPAXI@Z        0053b400 f i u_uiclass.obj
 0001:0013a400       ??_Gtabs@@UAEPAXI@Z        0053b400 f i u_uiclass.obj
 0001:0013a430       ??_Gtexter@@UAEPAXI@Z      0053b430 f i u_uiclass.obj
 0001:0013a430       ??_Etexter@@UAEPAXI@Z      0053b430 f i u_uiclass.obj
 0001:0013a4a0       ??_Euitree2d@@UAEPAXI@Z    0053b4a0 f i u_uiclass.obj
 0001:0013a4a0       ??_Guitree2d@@UAEPAXI@Z    0053b4a0 f i u_uiclass.obj
 0001:0013a4d0       ??_Guitree2dbitmap@@UAEPAXI@Z 0053b4d0 f i u_uiclass.obj
 0001:0013a4d0       ??_Euitree2dbitmap@@UAEPAXI@Z 0053b4d0 f i u_uiclass.obj
 0001:0013a500       ??_Euitree2dbitmapscale@@UAEPAXI@Z 0053b500 f i u_uiclass.obj
 0001:0013a500       ??_Guitree2dbitmapscale@@UAEPAXI@Z 0053b500 f i u_uiclass.obj
 0001:0013a570       ??_Gyscroll@@UAEPAXI@Z     0053b570 f i u_uiclass2.obj
 0001:0013a570       ??_Euitree2drect@@UAEPAXI@Z 0053b570 f i u_uiclass.obj
 0001:0013a570       ??_Eyscroll@@UAEPAXI@Z     0053b570 f i u_uiclass2.obj
 0001:0013a570       ??_Exscroll@@UAEPAXI@Z     0053b570 f i u_uiclass2.obj
 0001:0013a570       ??_Guitree2drect@@UAEPAXI@Z 0053b570 f i u_uiclass.obj
 0001:0013a570       ??_Gxscroll@@UAEPAXI@Z     0053b570 f i u_uiclass2.obj
 0001:0013a5a0       ??_Euitree@@MAEPAXI@Z      0053b5a0 f i u_uiclass.obj
 0001:0013a5a0       ??_Guitree@@MAEPAXI@Z      0053b5a0 f i u_uiclass.obj
 0001:0013a5d0       ?add_popup_options@button@@UBEXPAVpopup@@@Z 0053b5d0 f   u_uiclass.obj
 0001:0013a600       ?add_popup_options@listbox2d@@UBEXPAVpopup@@@Z 0053b600 f   u_uiclass.obj
 0001:0013a630       ?add_popup_options@texter@@UBEXPAVpopup@@@Z 0053b630 f   u_uiclass.obj
 0001:0013a660       ?add_popup_options@uitree2dbitmap@@UBEXPAVpopup@@@Z 0053b660 f   u_uiclass.obj
 0001:0013a690       ?add_popup_options@uitree2drect@@UBEXPAVpopup@@@Z 0053b690 f   u_uiclass.obj
 0001:0013a6b0       ?addentry@listbox2d@@QAEXV?$basic_string@DU?$char_traits@D@std@@V?$allocator@D@2@@std@@@Z 0053b6b0 f   u_uiclass.obj
 0001:0013a750       ?addrem_controls@uitree2drect@@QAEXXZ 0053b750 f   u_uiclass.obj
 0001:0013acc0       ?addrem_scroll@uitree2drect@@QAEXXZ 0053bcc0 f   u_uiclass.obj
 0001:0013af10       ?buildo2w@uitree2d@@UAEXXZ 0053bf10 f   u_uiclass.obj
 0001:0013b020       ?buildo2w@uitree@@UAEXXZ   0053c020 f   u_uiclass.obj
 0001:0013b050       ?copy@buttest0@@UAEPAV1@XZ 0053c050 f i u_uiclass.obj
 0001:0013b0e0       ?copy@buttest1@@UAEPAV1@XZ 0053c0e0 f i u_uiclass.obj
 0001:0013b170       ?copy@button@@UAEPAV1@XZ   0053c170 f i u_uiclass.obj
 0001:0013b200       ?copy@checkbox@@UAEPAV1@XZ 0053c200 f i u_uiclass.obj
 0001:0013b2a0       ?copy@cloner@@UAEPAV1@XZ   0053c2a0 f i u_uiclass.obj
 0001:0013b330       ?copy@deleter@@UAEPAV1@XZ  0053c330 f i u_uiclass.obj
 0001:0013b3c0       ?copy@editbox@@UAEPAV1@XZ  0053c3c0 f i u_uiclass.obj
 0001:0013b460       ?copy@listbox2d@@UAEPAV1@XZ 0053c460 f i u_uiclass.obj
 0001:0013b590       ?copy@mover@@UAEPAV1@XZ    0053c590 f i u_uiclass.obj
 0001:0013b690       ?copy@radiobutton@@UAEPAV1@XZ 0053c690 f i u_uiclass.obj
 0001:0013b730       ?copy@sizer@@UAEPAV1@XZ    0053c730 f i u_uiclass.obj
 0001:0013b830       ?copy@tabs@@UAEPAV1@XZ     0053c830 f i u_uiclass.obj
 0001:0013b920       ?copy@texter@@UAEPAV1@XZ   0053c920 f i u_uiclass.obj
 0001:0013b9b0       ?copy@uitree2d@@UAEPAV1@XZ 0053c9b0 f i u_uiclass.obj
 0001:0013ba60       ?copy@uitree2dbitmap@@UAEPAV1@XZ 0053ca60 f i u_uiclass.obj
 0001:0013bb50       ?copy@uitree2dbitmapscale@@UAEPAV1@XZ 0053cb50 f i u_uiclass.obj
 0001:0013bc20       ?copy@uitree2drect@@UAEPAV1@XZ 0053cc20 f i u_uiclass.obj
 0001:0013bd20       ?copy@uitree@@UAEPAV1@XZ   0053cd20 f i u_uiclass.obj
 0001:0013bd90       ?copychildrenrec@uitree@@QAEXPAV1@@Z 0053cd90 f   u_uiclass.obj
 0001:0013be20       ?copydata@listbox2d@@IAEXPAV1@@Z 0053ce20 f i u_uiclass.obj
 0001:0013bfc0       ?create@buttest0@@SAPAXAAVscript@@@Z 0053cfc0 f i u_uiclass.obj
 0001:0013c030       ?create@buttest1@@SAPAXAAVscript@@@Z 0053d030 f i u_uiclass.obj
 0001:0013c0a0       ?create@button@@SAPAXAAVscript@@@Z 0053d0a0 f i u_uiclass.obj
 0001:0013c100       ?create@checkbox@@SAPAXAAVscript@@@Z 0053d100 f i u_uiclass.obj
 0001:0013c160       ?create@cloner@@SAPAXAAVscript@@@Z 0053d160 f i u_uiclass.obj
 0001:0013c1d0       ?create@deleter@@SAPAXAAVscript@@@Z 0053d1d0 f i u_uiclass.obj
 0001:0013c240       ?create@editbox@@SAPAXAAVscript@@@Z 0053d240 f i u_uiclass.obj
 0001:0013c2c0       ?create@listbox2d@@SAPAXAAVscript@@@Z 0053d2c0 f i u_uiclass.obj
 0001:0013c350       ?create@mover@@SAPAXAAVscript@@@Z 0053d350 f i u_uiclass.obj
 0001:0013c3d0       ?create@radiobutton@@SAPAXAAVscript@@@Z 0053d3d0 f i u_uiclass.obj
 0001:0013c440       ?create@sizer@@SAPAXAAVscript@@@Z 0053d440 f i u_uiclass.obj
 0001:0013c4c0       ?create@tabs@@SAPAXAAVscript@@@Z 0053d4c0 f i u_uiclass.obj
 0001:0013c530       ?create@texter@@SAPAXAAVscript@@@Z 0053d530 f i u_uiclass.obj
 0001:0013c590       ?create@treeview@@SAPAXAAVscript@@@Z 0053d590 f i u_uiclass.obj
 0001:0013c5f0       ?create@uitree2d@@SAPAXAAVscript@@@Z 0053d5f0 f i u_uiclass.obj
 0001:0013c650       ?create@uitree2dbitmap@@SAPAXAAVscript@@@Z 0053d650 f i u_uiclass.obj
 0001:0013c6b0       ?create@uitree2dbitmapscale@@SAPAXAAVscript@@@Z 0053d6b0 f i u_uiclass.obj
 0001:0013c730       ?create@uitree2drect@@SAPAXAAVscript@@@Z 0053d730 f i u_uiclass.obj
 0001:0013c790       ?create@uitree@@SAPAXAAVscript@@@Z 0053d790 f i u_uiclass.obj
 0001:0013c7f0       ?create@xscroll@@SAPAXAAVscript@@@Z 0053d7f0 f i u_uiclass.obj
 0001:0013c850       ?create@xslider@@SAPAXAAVscript@@@Z 0053d850 f i u_uiclass.obj
 0001:0013c8b0       ?create@yscroll@@SAPAXAAVscript@@@Z 0053d8b0 f i u_uiclass.obj
 0001:0013c910       ?create@yslider@@SAPAXAAVscript@@@Z 0053d910 f i u_uiclass.obj
 0001:0013c970       ?draw@button@@UAEXXZ       0053d970 f   u_uiclass.obj
 0001:0013cab0       ?draw@editbox@@UAEXXZ      0053dab0 f   u_uiclass.obj
 0001:0013cc30       ?draw@listbox2d@@UAEXXZ    0053dc30 f   u_uiclass.obj
 0001:0013ce30       ?draw@texter@@UAEXXZ       0053de30 f   u_uiclass.obj
 0001:0013cf30       ?draw@uitree2d@@UAEXXZ     0053df30 f i u_uiclass.obj
 0001:0013cf30       ?draw@uitree@@UAEXXZ       0053df30 f i u_uiclass.obj
 0001:0013cf60       ?draw@uitree2dbitmap@@UAEXXZ 0053df60 f   u_uiclass.obj
 0001:0013d020       ?draw@uitree2dbitmapscale@@UAEXXZ 0053e020 f   u_uiclass.obj
 0001:0013d110       ?draw@uitree2drect@@UAEXXZ 0053e110 f   u_uiclass.obj
 0001:0013d1c0       ?focusnext@uitree@@IAEPAV1@XZ 0053e1c0 f   u_uiclass.obj
 0001:0013d3c0       ?focusprev@uitree@@IAEPAV1@XZ 0053e3c0 f   u_uiclass.obj
 0001:0013d5c0       ?focustofront@uitree@@QAE_NXZ 0053e5c0 f   u_uiclass.obj
 0001:0013d6a0       ?focustofrontenabled@uitree@@UAE_NXZ 0053e6a0 f i u_uiclass.obj
 0001:0013d6a0       __should_initialize_environment 0053e6a0 f i LIBCMT:env_mode.obj
 0001:0013d6a0       ___acrt_uninitialize_command_line 0053e6a0 f i libucrt:argv_data.obj
 0001:0013d6a0       ?do_always_noconv@?$codecvt@DDU_Mbstatet@@@std@@MBE_NXZ 0053e6a0 f i engq:m_file.obj
 0001:0013d6b0       ?getbitmap@uitree2dbitmap@@UAEPAUbitmap32@@XZ 0053e6b0 f i u_uiclass.obj
 0001:0013d6c0       ?getbitmap@uitree2dbitmapscale@@UAEPAUbitmap32@@XZ 0053e6c0 f i u_uiclass.obj
 0001:0013d6d0       ?getbuttonname@button@@UBE?AV?$basic_string@DU?$char_traits@D@std@@V?$allocator@D@2@@std@@XZ 0053e6d0 f i u_uiclass.obj
 0001:0013d6f0       ?getclassname@buttest0@@UBEPBDXZ 0053e6f0 f i u_uiclass.obj
 0001:0013d700       ?getclassname@buttest1@@UBEPBDXZ 0053e700 f i u_uiclass.obj
 0001:0013d710       ?getclassname@button@@UBEPBDXZ 0053e710 f i u_uiclass.obj
 0001:0013d720       ?getclassname@checkbox@@UBEPBDXZ 0053e720 f i u_uiclass.obj
 0001:0013d730       ?getclassname@cloner@@UBEPBDXZ 0053e730 f i u_uiclass.obj
 0001:0013d740       ?getclassname@deleter@@UBEPBDXZ 0053e740 f i u_uiclass.obj
 0001:0013d750       ?getclassname@editbox@@UBEPBDXZ 0053e750 f i u_uiclass.obj
 0001:0013d760       ?getclassname@listbox2d@@UBEPBDXZ 0053e760 f i u_uiclass.obj
 0001:0013d770       ?getclassname@mover@@UBEPBDXZ 0053e770 f i u_uiclass.obj
 0001:0013d780       ?getclassname@radiobutton@@UBEPBDXZ 0053e780 f i u_uiclass.obj
 0001:0013d790       ?getclassname@sizer@@UBEPBDXZ 0053e790 f i u_uiclass.obj
 0001:0013d7a0       ?getclassname@tabs@@UBEPBDXZ 0053e7a0 f i u_uiclass.obj
 0001:0013d7b0       ?getclassname@texter@@UBEPBDXZ 0053e7b0 f i u_uiclass.obj
 0001:0013d7c0       ?getclassname@uitree2d@@UBEPBDXZ 0053e7c0 f i u_uiclass.obj
 0001:0013d7d0       ?getclassname@uitree2dbitmap@@UBEPBDXZ 0053e7d0 f i u_uiclass.obj
 0001:0013d7e0       ?getclassname@uitree2dbitmapscale@@UBEPBDXZ 0053e7e0 f i u_uiclass.obj
 0001:0013d7f0       ?getclassname@uitree2drect@@UBEPBDXZ 0053e7f0 f i u_uiclass.obj
 0001:0013d800       ?getclassname@uitree@@UBEPBDXZ 0053e800 f i u_uiclass.obj
 0001:0013d810       ?getstringnum@@YA?AV?$basic_string@DU?$char_traits@D@std@@V?$allocator@D@2@@std@@V12@AAH@Z 0053e810 f   u_uiclass.obj
 0001:0013d900       ?isinside@uitree2d@@UBE_NABUpointf2@@@Z 0053e900 f i u_uiclass.obj
 0001:0013d910       ?isinside@uitree2drect@@UBE_NABUpointf2@@@Z 0053e910 f   u_uiclass.obj
 0001:0013d950       ?killdeaddudes@uitree@@QAE_NXZ 0053e950 f   u_uiclass.obj
 0001:0013d9a0       ?linkchild@uitree@@QAEXPAV1@@Z 0053e9a0 f   u_uiclass.obj
 0001:0013da00       ?linkchildf@uitree@@QAEXPAV1@@Z 0053ea00 f   u_uiclass.obj
 0001:0013da90       ?loaddata2fn@uitree2dbitmap@@UAEXV?$basic_string@DU?$char_traits@D@std@@V?$allocator@D@2@@std@@@Z 0053ea90 f   u_uiclass.obj
 0001:0013dbd0       ?loaddata2fn@uitree2dbitmapscale@@UAEXV?$basic_string@DU?$char_traits@D@std@@V?$allocator@D@2@@std@@@Z 0053ebd0 f i u_uiclass.obj
 0001:0013dc60       ?loadscript2fn@uitree@@UAEXV?$basic_string@DU?$char_traits@D@std@@V?$allocator@D@2@@std@@@Z 0053ec60 f   u_uiclass.obj
 0001:0013de20       ?mouseover@uitree2drect@@UAE_NXZ 0053ee20 f   u_uiclass.obj
 0001:0013e0b0       ?mouseover@uitree@@UAE_NXZ 0053f0b0 f   u_uiclass.obj
 0001:0013e100       ?parentgetstring@uitree@@UBE?AV?$basic_string@DU?$char_traits@D@std@@V?$allocator@D@2@@std@@XZ 0053f100 f   u_uiclass.obj
 0001:0013e150       ?parentloadsavestring@uitree@@UAEXV?$basic_string@DU?$char_traits@D@std@@V?$allocator@D@2@@std@@@Z 0053f150 f i u_uiclass.obj
 0001:0013e190       ?pressed@button@@UAE_NXZ   0053f190 f i u_uiclass.obj
 0001:0013e1a0       ?printindent@uitree@@IAEXPAU_iobuf@@@Z 0053f1a0 f   u_uiclass.obj
 0001:0013e1f0       ?proc@button@@UAEXXZ       0053f1f0 f   u_uiclass.obj
 0001:0013e240       ?proc@editbox@@UAEXXZ      0053f240 f   u_uiclass.obj
 0001:0013e7a0       ?proc@listbox2d@@UAEXXZ    0053f7a0 f   u_uiclass.obj
 0001:0013e970       ?proc@uitree2dbitmap@@UAEXXZ 0053f970 f   u_uiclass.obj
 0001:0013ebb0       ?proc@uitree2drect@@UAEXXZ 0053fbb0 f   u_uiclass.obj
 0001:0013ec40       ?proc@uitree@@UAEXXZ       0053fc40 f   u_uiclass.obj
 0001:0013ec80       ?save@button@@UAEXPAU_iobuf@@_N@Z 0053fc80 f   u_uiclass.obj
 0001:0013ed20       ?save@texter@@UAEXPAU_iobuf@@_N@Z 0053fd20 f   u_uiclass.obj
 0001:0013edc0       ?save@uitree2d@@UAEXPAU_iobuf@@_N@Z 0053fdc0 f   u_uiclass.obj
 0001:0013ee90       ?save@uitree2dbitmap@@UAEXPAU_iobuf@@_N@Z 0053fe90 f   u_uiclass.obj
 0001:0013ef50       ?save@uitree2drect@@UAEXPAU_iobuf@@_N@Z 0053ff50 f   u_uiclass.obj
 0001:0013f050       ?save@uitree@@UAEXPAU_iobuf@@_N@Z 00540050 f   u_uiclass.obj
 0001:0013f100       ?savedata2fn@uitree2dbitmap@@UAEXV?$basic_string@DU?$char_traits@D@std@@V?$allocator@D@2@@std@@@Z 00540100 f   u_uiclass.obj
 0001:0013f1e0       ?saverec@uitree@@IAEXPAU_iobuf@@@Z 005401e0 f   u_uiclass.obj
 0001:0013f2a0       ?savescript2fn@uitree@@UAEXV?$basic_string@DU?$char_traits@D@std@@V?$allocator@D@2@@std@@@Z 005402a0 f   u_uiclass.obj
 0001:0013f3c0       ?scriptbuildcopy@uitree2drect@@QAEXPBD@Z 005403c0 f   u_uiclass.obj
 0001:0013f510       ?setcheck@checkbox@@UAEX_N@Z 00540510 f i u_uiclass.obj
 0001:0013f520       ?setinput@uitree@@SAXXZ    00540520 f   u_uiclass.obj
 0001:0013f570       ?setsel@listbox2d@@QAEXH_N@Z 00540570 f   u_uiclass.obj
 0001:0013f6c0       ?setsize@uitree2dbitmapscale@@UAEXABUpointf2@@@Z 005406c0 f   u_uiclass.obj
 0001:0013f700       ?setsize@uitree2drect@@UAEXABUpointf2@@@Z 00540700 f i u_uiclass.obj
 0001:0013f720       ?settextname@editbox@@UAEXV?$basic_string@DU?$char_traits@D@std@@V?$allocator@D@2@@std@@@Z 00540720 f i u_uiclass.obj
 0001:0013f800       ?settextname@texter@@UAEXV?$basic_string@DU?$char_traits@D@std@@V?$allocator@D@2@@std@@@Z 00540800 f i u_uiclass.obj
 0001:0013f880       ?showoutline@uitree2drect@@UAEXHUC32@@@Z 00540880 f   u_uiclass.obj
 0001:0013f8c0       ?save@loadscriptdialog@@UAEXPAU_iobuf@@_N@Z 005408c0 f i u_uiclass2.obj
 0001:0013f8c0       ?showoutline@uitree@@MAEXHUC32@@@Z 005408c0 f i u_uiclass.obj
 0001:0013f8c0       ?save@changename@@UAEXPAU_iobuf@@_N@Z 005408c0 f i u_uiclass2.obj
 0001:0013f8c0       ?save@popup@@UAEXPAU_iobuf@@_N@Z 005408c0 f i u_uiclass2.obj
 0001:0013f8c0       ?_Destroy@?$vector@Vzee2@@V?$allocator@Vzee2@@@std@@@std@@AAEXPAVzee2@@0@Z 005408c0 f i engq:augmatz.obj
 0001:0013f8c0       ?addbitmap@texturebifl@@UAEXPBUbitmap32@@_N@Z 005408c0 f i engq:d2_texman.obj
 0001:0013f8d0       ?substr@?$basic_string@DU?$char_traits@D@std@@V?$allocator@D@2@@std@@QBE?AV12@II@Z 005408d0 f i u_uiclass.obj
 0001:0013f920       ??$_Insert_range@PBUpopup_info@@@?$vector@Upopup_info@@V?$allocator@Upopup_info@@@std@@@std@@AAEXV?$_Vector_const_iterator@V?$_Vector_val@U?$_Simple_types@Upopup_info@@@std@@@std@@@1@PBUpopup_info@@1Uforward_iterator_tag@1@@Z 00540920 f i u_uiclass2.obj
 0001:0013fb50       ??$find@Vbutton@@@uitree@@QAEPAVbutton@@PBDH@Z 00540b50 f i u_uiclass2.obj
 0001:0013fbf0       ??$find@Veditbox@@@uitree@@QAEPAVeditbox@@PBDH@Z 00540bf0 f i u_uiclass2.obj
 0001:0013fc90       ??$find@Vlistbox2d@@@uitree@@QAEPAVlistbox2d@@PBDH@Z 00540c90 f i u_uiclass2.obj
 0001:0013fd30       ??$find@Vtexter@@@uitree@@QAEPAVtexter@@PBDH@Z 00540d30 f i u_uiclass2.obj
 0001:0013fdd0       ??0changename@@QAE@PBDMMMM0@Z 00540dd0 f   u_uiclass2.obj
 0001:0013fec0       ??0loadscriptdialog@@QAE@PBD0MMMM_N1PAPBD0@Z 00540ec0 f   u_uiclass2.obj
 0001:00140080       ??0popup@@QAE@PBDMMMM@Z    00541080 f   u_uiclass2.obj
 0001:00140110       ??0treeview@@QAE@AAVscript@@@Z 00541110 f   u_uiclass2.obj
 0001:00140160       ??0treeview@@QAE@PBDMMMM@Z 00541160 f   u_uiclass2.obj
 0001:001401e0       ??0xscroll@@QAE@AAVscript@@@Z 005411e0 f   u_uiclass2.obj
 0001:00140210       ??0xscroll@@QAE@PBDMMMM@Z  00541210 f   u_uiclass2.obj
 0001:00140280       ??0xslider@@QAE@AAVscript@@@Z 00541280 f   u_uiclass2.obj
 0001:001403c0       ??0xslider@@QAE@PBDMMMMMMM@Z 005413c0 f   u_uiclass2.obj
 0001:00140470       ??0yscroll@@QAE@AAVscript@@@Z 00541470 f   u_uiclass2.obj
 0001:001404a0       ??0yscroll@@QAE@PBDMMMM@Z  005414a0 f   u_uiclass2.obj
 0001:00140510       ??0yslider@@QAE@AAVscript@@@Z 00541510 f   u_uiclass2.obj
 0001:00140540       ??0yslider@@QAE@PBDMMMMMMM@Z 00541540 f   u_uiclass2.obj
 0001:001405f0       ??1loadscriptdialog@@UAE@XZ 005415f0 f i u_uiclass2.obj
 0001:00140740       ??_Echangesliderbotval@@UAEPAXI@Z 00541740 f i u_uipopup_info.obj
 0001:00140740       ??_Gchangename@@UAEPAXI@Z  00541740 f i u_uiclass2.obj
 0001:00140740       ??_Glistbox2daddentry@@UAEPAXI@Z 00541740 f i u_uipopup_info.obj
 0001:00140740       ??_Echangebuttonname@@UAEPAXI@Z 00541740 f i u_uipopup_info.obj
 0001:00140740       ??_Gchangeslidertopval@@UAEPAXI@Z 00541740 f i u_uipopup_info.obj
 0001:00140740       ??_Elistbox2daddentry@@UAEPAXI@Z 00541740 f i u_uipopup_info.obj
 0001:00140740       ??_Gchangebuttonname@@UAEPAXI@Z 00541740 f i u_uipopup_info.obj
 0001:00140740       ??_Gchangetextname@@UAEPAXI@Z 00541740 f i u_uipopup_info.obj
 0001:00140740       ??_Echangename@@UAEPAXI@Z  00541740 f i u_uiclass2.obj
 0001:00140740       ??_Echangeslidertopval@@UAEPAXI@Z 00541740 f i u_uipopup_info.obj
 0001:00140740       ??_Gchangesliderbotval@@UAEPAXI@Z 00541740 f i u_uipopup_info.obj
 0001:00140740       ??_Echangetextname@@UAEPAXI@Z 00541740 f i u_uipopup_info.obj
 0001:001407b0       ??_Gloadscriptdialog@@UAEPAXI@Z 005417b0 f i u_uiclass2.obj
 0001:001407b0       ??_Eloadscriptdialog@@UAEPAXI@Z 005417b0 f i u_uiclass2.obj
 0001:001407b0       ??_Gsavescriptdialog@@UAEPAXI@Z 005417b0 f i u_uipopup_info.obj
 0001:001407b0       ??_Gsavebitmapdialog@@UAEPAXI@Z 005417b0 f i u_uipopup_info.obj
 0001:001407b0       ??_Eloadbitmapdialog@@UAEPAXI@Z 005417b0 f i u_uipopup_info.obj
 0001:001407b0       ??_Esavebitmapdialog@@UAEPAXI@Z 005417b0 f i u_uipopup_info.obj
 0001:001407b0       ??_Esavescriptdialog@@UAEPAXI@Z 005417b0 f i u_uipopup_info.obj
 0001:001407b0       ??_Gloadbitmapdialog@@UAEPAXI@Z 005417b0 f i u_uipopup_info.obj
 0001:001407e0       ??_Epopup@@UAEPAXI@Z       005417e0 f i u_uiclass2.obj
 0001:001407e0       ??_Gpopup@@UAEPAXI@Z       005417e0 f i u_uiclass2.obj
 0001:00140860       ??_Gtreeview@@UAEPAXI@Z    00541860 f i u_uiclass2.obj
 0001:00140860       ??_Etreeview@@UAEPAXI@Z    00541860 f i u_uiclass2.obj
 0001:001408e0       ?add_popup_options@popup@@UBEXPAV1@@Z 005418e0 f   u_uiclass2.obj
 0001:001408f0       ?add_popup_options@xslider@@UBEXPAVpopup@@@Z 005418f0 f   u_uiclass2.obj
 0001:00140910       ?add_popup_options@yslider@@UBEXPAVpopup@@@Z 00541910 f   u_uiclass2.obj
 0001:00140930       ?checkext@loadscriptdialog@@IAE_NV?$basic_string@DU?$char_traits@D@std@@V?$allocator@D@2@@std@@@Z 00541930 f   u_uiclass2.obj
 0001:00140a00       ?copy@changename@@UAEPAV1@XZ 00541a00 f i u_uiclass2.obj
 0001:00140a90       ?copy@loadscriptdialog@@UAEPAV1@XZ 00541a90 f i u_uiclass2.obj
 0001:00140b50       ?copy@popup@@UAEPAV1@XZ    00541b50 f i u_uiclass2.obj
 0001:00140c60       ?copy@treeview@@UAEPAV1@XZ 00541c60 f i u_uiclass2.obj
 0001:00140d10       ?copy@xscroll@@UAEPAV1@XZ  00541d10 f i u_uiclass2.obj
 0001:00140e00       ?copy@xslider@@UAEPAV1@XZ  00541e00 f i u_uiclass2.obj
 0001:00140f50       ?copy@yscroll@@UAEPAV1@XZ  00541f50 f i u_uiclass2.obj
 0001:00141040       ?copy@yslider@@UAEPAV1@XZ  00542040 f i u_uiclass2.obj
 0001:00141190       ?draw@checkbox@@UAEXXZ     00542190 f   u_uiclass2.obj
 0001:001413f0       ?draw@cloner@@UAEXXZ       005423f0 f   u_uiclass2.obj
 0001:001414e0       ?draw@deleter@@UAEXXZ      005424e0 f   u_uiclass2.obj
 0001:001415d0       ?draw@mover@@UAEXXZ        005425d0 f   u_uiclass2.obj
 0001:00141710       ?draw@popup@@UAEXXZ        00542710 f   u_uiclass2.obj
 0001:001417a0       ?draw@radiobutton@@UAEXXZ  005427a0 f   u_uiclass2.obj
 0001:00141940       ?draw@sizer@@UAEXXZ        00542940 f   u_uiclass2.obj
 0001:00141a30       ?draw@tabs@@UAEXXZ         00542a30 f   u_uiclass2.obj
 0001:00141e20       ?draw@treeview@@UAEXXZ     00542e20 f   u_uiclass2.obj
 0001:00141f40       ?draw@xscroll@@UAEXXZ      00542f40 f   u_uiclass2.obj
 0001:00142070       ?draw@xslider@@UAEXXZ      00543070 f   u_uiclass2.obj
 0001:00142320       ?draw@yscroll@@UAEXXZ      00543320 f   u_uiclass2.obj
 0001:00142450       ?draw@yslider@@UAEXXZ      00543450 f   u_uiclass2.obj
 0001:00142700       ?getbotval@xslider@@UBEMXZ 00543700 f i u_uiclass2.obj
 0001:00142710       ?getclassname@changename@@UBEPBDXZ 00543710 f i u_uiclass2.obj
 0001:00142720       ?getclassname@loadscriptdialog@@UBEPBDXZ 00543720 f i u_uiclass2.obj
 0001:00142730       ?getclassname@popup@@UBEPBDXZ 00543730 f i u_uiclass2.obj
 0001:00142740       ?getclassname@treeview@@UBEPBDXZ 00543740 f i u_uiclass2.obj
 0001:00142750       ?getclassname@xscroll@@UBEPBDXZ 00543750 f i u_uiclass2.obj
 0001:00142760       ?getclassname@xslider@@UBEPBDXZ 00543760 f i u_uiclass2.obj
 0001:00142770       ?getclassname@yscroll@@UBEPBDXZ 00543770 f i u_uiclass2.obj
 0001:00142780       ?getclassname@yslider@@UBEPBDXZ 00543780 f i u_uiclass2.obj
 0001:00142790       ?getselstr@listbox2d@@QBE?AV?$basic_string@DU?$char_traits@D@std@@V?$allocator@D@2@@std@@XZ 00543790 f i u_uiclass2.obj
 0001:001427e0       ?gettopval@xslider@@UBEMXZ 005437e0 f i u_uiclass2.obj
 0001:001427f0       ?getval@xslider@@UBEMXZ    005437f0 f i u_uiclass2.obj
 0001:00142820       ?parentgetstring@changebuttonname@@UBE?AV?$basic_string@DU?$char_traits@D@std@@V?$allocator@D@2@@std@@XZ 00543820 f   u_uiclass2.obj
 0001:001428a0       ?parentgetstring@changesliderbotval@@UBE?AV?$basic_string@DU?$char_traits@D@std@@V?$allocator@D@2@@std@@XZ 005438a0 f   u_uiclass2.obj
 0001:00142960       ?parentgetstring@changeslidertopval@@UBE?AV?$basic_string@DU?$char_traits@D@std@@V?$allocator@D@2@@std@@XZ 00543960 f   u_uiclass2.obj
 0001:00142a20       ?parentgetstring@changetextname@@UBE?AV?$basic_string@DU?$char_traits@D@std@@V?$allocator@D@2@@std@@XZ 00543a20 f   u_uiclass2.obj
 0001:00142aa0       ?parentgetstring@listbox2daddentry@@UBE?AV?$basic_string@DU?$char_traits@D@std@@V?$allocator@D@2@@std@@XZ 00543aa0 f   u_uiclass2.obj
 0001:00142aa0       ?parentgetstring@loadscriptdialog@@UBE?AV?$basic_string@DU?$char_traits@D@std@@V?$allocator@D@2@@std@@XZ 00543aa0 f   u_uiclass2.obj
 0001:00142ad0       ?parentgetstring@savebitmapdialog@@UBE?AV?$basic_string@DU?$char_traits@D@std@@V?$allocator@D@2@@std@@XZ 00543ad0 f   u_uiclass2.obj
 0001:00142ad0       ?parentgetstring@loadbitmapdialog@@UBE?AV?$basic_string@DU?$char_traits@D@std@@V?$allocator@D@2@@std@@XZ 00543ad0 f   u_uiclass2.obj
 0001:00142b50       ?parentloadsavestring@changebuttonname@@UAEXV?$basic_string@DU?$char_traits@D@std@@V?$allocator@D@2@@std@@@Z 00543b50 f   u_uiclass2.obj
 0001:00142c40       ?parentloadsavestring@changename@@UAEXV?$basic_string@DU?$char_traits@D@std@@V?$allocator@D@2@@std@@@Z 00543c40 f   u_uiclass2.obj
 0001:00142d20       ?parentloadsavestring@changesliderbotval@@UAEXV?$basic_string@DU?$char_traits@D@std@@V?$allocator@D@2@@std@@@Z 00543d20 f   u_uiclass2.obj
 0001:00142dd0       ?parentloadsavestring@changeslidertopval@@UAEXV?$basic_string@DU?$char_traits@D@std@@V?$allocator@D@2@@std@@@Z 00543dd0 f   u_uiclass2.obj
 0001:00142e80       ?parentloadsavestring@changetextname@@UAEXV?$basic_string@DU?$char_traits@D@std@@V?$allocator@D@2@@std@@@Z 00543e80 f   u_uiclass2.obj
 0001:00142f30       ?parentloadsavestring@listbox2daddentry@@UAEXV?$basic_string@DU?$char_traits@D@std@@V?$allocator@D@2@@std@@@Z 00543f30 f   u_uiclass2.obj
 0001:00142fe0       ?parentloadsavestring@loadbitmapdialog@@UAEXV?$basic_string@DU?$char_traits@D@std@@V?$allocator@D@2@@std@@@Z 00543fe0 f   u_uiclass2.obj
 0001:001430a0       ?parentloadsavestring@loadscriptdialog@@UAEXV?$basic_string@DU?$char_traits@D@std@@V?$allocator@D@2@@std@@@Z 005440a0 f   u_uiclass2.obj
 0001:00143130       ?parentloadsavestring@savebitmapdialog@@UAEXV?$basic_string@DU?$char_traits@D@std@@V?$allocator@D@2@@std@@@Z 00544130 f   u_uiclass2.obj
 0001:00143220       ?parentloadsavestring@savescriptdialog@@UAEXV?$basic_string@DU?$char_traits@D@std@@V?$allocator@D@2@@std@@@Z 00544220 f   u_uiclass2.obj
 0001:001432e0       ?populate@treeview@@AAEXPAVuitree@@@Z 005442e0 f   u_uiclass2.obj
 0001:001434f0       ?populateloadsavelist@loadscriptdialog@@IAEXXZ 005444f0 f   u_uiclass2.obj
 0001:00143cf0       ?proc@buttest0@@UAEXXZ     00544cf0 f   u_uiclass2.obj
 0001:00143d40       ?proc@buttest1@@UAEXXZ     00544d40 f   u_uiclass2.obj
 0001:00143d90       ?proc@changename@@UAEXXZ   00544d90 f   u_uiclass2.obj
 0001:00143fe0       ?proc@checkbox@@UAEXXZ     00544fe0 f   u_uiclass2.obj
 0001:00144040       ?proc@cloner@@UAEXXZ       00545040 f   u_uiclass2.obj
 0001:00144100       ?proc@deleter@@UAEXXZ      00545100 f   u_uiclass2.obj
 0001:00144170       ?proc@loadscriptdialog@@UAEXXZ 00545170 f   u_uiclass2.obj
 0001:00144c60       ?proc@mover@@UAEXXZ        00545c60 f   u_uiclass2.obj
 0001:00144d30       ?proc@popup@@UAEXXZ        00545d30 f   u_uiclass2.obj
 0001:00144e50       ?proc@sizer@@UAEXXZ        00545e50 f   u_uiclass2.obj
 0001:00144f60       ?proc@tabs@@UAEXXZ         00545f60 f   u_uiclass2.obj
 0001:00145790       ?proc@treeview@@UAEXXZ     00546790 f   u_uiclass2.obj
 0001:00145870       ?proc@xscroll@@UAEXXZ      00546870 f   u_uiclass2.obj
 0001:00145a00       ?proc@xslider@@UAEXXZ      00546a00 f   u_uiclass2.obj
 0001:00145ab0       ?proc@yscroll@@UAEXXZ      00546ab0 f   u_uiclass2.obj
 0001:00145c40       ?proc@yslider@@UAEXXZ      00546c40 f   u_uiclass2.obj
 0001:00145cf0       ?save@checkbox@@UAEXPAU_iobuf@@_N@Z 00546cf0 f   u_uiclass2.obj
 0001:00145d30       ?save@deleter@@UAEXPAU_iobuf@@_N@Z 00546d30 f   u_uiclass2.obj
 0001:00145d30       ?save@cloner@@UAEXPAU_iobuf@@_N@Z 00546d30 f   u_uiclass2.obj
 0001:00145d60       ?save@mover@@UAEXPAU_iobuf@@_N@Z 00546d60 f   u_uiclass2.obj
 0001:00145dc0       ?save@sizer@@UAEXPAU_iobuf@@_N@Z 00546dc0 f   u_uiclass2.obj
 0001:00145df0       ?save@xslider@@UAEXPAU_iobuf@@_N@Z 00546df0 f   u_uiclass2.obj
 0001:00145e60       ?setbotval@xslider@@UAEXM@Z 00546e60 f i u_uiclass2.obj
 0001:00145ea0       ?setcheck@radiobutton@@UAEX_N@Z 00546ea0 f   u_uiclass2.obj
 0001:00146110       ?setsize@mover@@UAEXABUpointf2@@@Z 00547110 f   u_uiclass2.obj
 0001:00146160       ?settopval@xslider@@UAEXM@Z 00547160 f i u_uiclass2.obj
 0001:001461a0       ?setup_popup@popup@@QAEXPBUpopup_info@@@Z 005471a0 f   u_uiclass2.obj
 0001:001466b0       ?setval@xslider@@UAEXM@Z   005476b0 f i u_uiclass2.obj
 0001:00146760       ?getclassname@changetextname@@UBEPBDXZ 00547760 f i u_uipopup_info.obj
 0001:00146770       ?copy@changetextname@@UAEPAV1@XZ 00547770 f i u_uipopup_info.obj
 0001:00146800       ?getclassname@changebuttonname@@UBEPBDXZ 00547800 f i u_uipopup_info.obj
 0001:00146810       ?copy@changebuttonname@@UAEPAV1@XZ 00547810 f i u_uipopup_info.obj
 0001:001468a0       ?getclassname@changeslidertopval@@UBEPBDXZ 005478a0 f i u_uipopup_info.obj
 0001:001468b0       ?copy@changeslidertopval@@UAEPAV1@XZ 005478b0 f i u_uipopup_info.obj
 0001:00146940       ?getclassname@changesliderbotval@@UBEPBDXZ 00547940 f i u_uipopup_info.obj
 0001:00146950       ?copy@changesliderbotval@@UAEPAV1@XZ 00547950 f i u_uipopup_info.obj
 0001:001469e0       ?getclassname@listbox2daddentry@@UBEPBDXZ 005479e0 f i u_uipopup_info.obj
 0001:001469f0       ?copy@listbox2daddentry@@UAEPAV1@XZ 005479f0 f i u_uipopup_info.obj
 0001:00146a80       ?getclassname@savebitmapdialog@@UBEPBDXZ 00547a80 f i u_uipopup_info.obj
 0001:00146a80       ?getclassname@savescriptdialog@@UBEPBDXZ 00547a80 f i u_uipopup_info.obj
 0001:00146a90       ?copy@savescriptdialog@@UAEPAV1@XZ 00547a90 f i u_uipopup_info.obj
 0001:00146b60       ?getclassname@loadbitmapdialog@@UBEPBDXZ 00547b60 f i u_uipopup_info.obj
 0001:00146b70       ?copy@loadbitmapdialog@@UAEPAV1@XZ 00547b70 f i u_uipopup_info.obj
 0001:00146c40       ?copy@savebitmapdialog@@UAEPAV1@XZ 00547c40 f i u_uipopup_info.obj
 0001:00148620       ??$_Fill_unchecked1@PAV?$vector@MV?$allocator@M@std@@@std@@V12@@std@@YAXPAV?$vector@MV?$allocator@M@std@@@0@0ABV10@U?$integral_constant@_N$0A@@0@@Z 00549620 f i quant3.obj
 0001:00148750       ??$_Fill_unchecked@PAMM@std@@YAXPAM0ABM@Z 00549750 f i quant3.obj
 0001:001487e0       ??0?$vector@MV?$allocator@M@std@@@std@@QAE@ABV01@@Z 005497e0 f i quant3.obj
 0001:00148840       ??0?$vector@MV?$allocator@M@std@@@std@@QAE@IABMABV?$allocator@M@1@@Z 00549840 f i quant3.obj
 0001:00148890       ?_Buy@?$vector@MV?$allocator@M@std@@@std@@AAE_NI@Z 00549890 f i quant3.obj
 0001:00148950       ?_Ufill@?$vector@V?$vector@MV?$allocator@M@std@@@std@@V?$allocator@V?$vector@MV?$allocator@M@std@@@std@@@2@@std@@AAEPAV?$vector@MV?$allocator@M@std@@@2@PAV32@IABV32@@Z 00549950 f i quant3.obj
 0001:001489d0       ?assign@?$vector@MV?$allocator@M@std@@@std@@QAEXIABM@Z 005499d0 f i quant3.obj
 0001:00148ab0       ?assign@?$vector@V?$vector@MV?$allocator@M@std@@@std@@V?$allocator@V?$vector@MV?$allocator@M@std@@@std@@@2@@std@@QAEXIABV?$vector@MV?$allocator@M@std@@@2@@Z 00549ab0 f i quant3.obj
 0001:00149290       ?quant3_draw2d@@YAXXZ      0054a290 f   quant3.obj
 0001:00149cd0       ?quant3_exit@@YAXXZ        0054acd0 f   quant3.obj
 0001:00149db0       ?quant3_init@@YAXXZ        0054adb0 f   quant3.obj
 0001:0014a380       ?quant3_proc@@YAXXZ        0054b380 f   quant3.obj
 0001:0014ac00       _printf                    0054bc00 f i quant3.obj
 0001:0014b250       ?quantsho_draw2d@@YAXXZ    0054c250 f   quant_sho.obj
 0001:0014bc90       ?quantsho_exit@@YAXXZ      0054cc90 f   quant_sho.obj
 0001:0014bd70       ?quantsho_init@@YAXXZ      0054cd70 f   quant_sho.obj
 0001:0014c510       ?quantsho_proc@@YAXXZ      0054d510 f   quant_sho.obj
 0001:0014d980       ?quant4_draw2d@@YAXXZ      0054e980 f   quant4.obj
 0001:0014e390       ?quant4_exit@@YAXXZ        0054f390 f   quant4.obj
 0001:0014e450       ?quant4_init@@YAXXZ        0054f450 f   quant4.obj
 0001:0014e9a0       ?quant4_proc@@YAXXZ        0054f9a0 f   quant4.obj
 0001:0014f250       ?collide3dboxes@@YAXXZ     00550250 f   objcollisions1.obj
 0001:0014f7a0       ?init3dbboxes@@YAXH@Z      005507a0 f   objcollisions1.obj
 0001:0014fa20       ?error@@YAXPBDZZ           00550a20 f   engq:m_err.obj
 0001:0014fa80       ?errorexit@@YAXPBDZZ       00550a80 f   engq:m_err.obj
 0001:0014fae0       _vsprintf                  00550ae0 f i engq:m_err.obj
 0001:0014fb10       ??$sqrt@M@std@@YA?AV?$complex@M@0@ABV10@@Z 00550b10 f i engq:m_numath.obj
 0001:0014fe50       ??_0?$complex@M@std@@QAEAAV01@ABV01@@Z 00550e50 f i engq:m_numath.obj
 0001:00150010       ?cross3d@@YAXPBUpointf3@@0PAU1@@Z 00551010 f   engq:m_numath.obj
 0001:00150080       ?dcos@@YAMM@Z              00551080 f   engq:m_numath.obj
 0001:001500c0       ?defaultfpucontrol@@YAXXZ  005510c0 f   engq:m_numath.obj
 0001:00150120       ?dist2d@@YAMPBUpointf2@@0@Z 00551120 f   engq:m_numath.obj
 0001:00150170       ?dist2dsq@@YAMPBUpointf2@@0@Z 00551170 f   engq:m_numath.obj
 0001:001501b0       ?dist3d@@YAMPBUpointf3@@0@Z 005511b0 f   engq:m_numath.obj
 0001:00150210       ?dist3dsq@@YAMPBUpointf3@@0@Z 00551210 f   engq:m_numath.obj
 0001:00150260       ?dot2d@@YAMPBUpointf2@@0@Z 00551260 f   engq:m_numath.obj
 0001:001502a0       ?dot3d@@YAMPBUpointf3@@0@Z 005512a0 f   engq:m_numath.obj
 0001:001502f0       ?dsin@@YAMM@Z              005512f0 f   engq:m_numath.obj
 0001:00150330       ?gcd@@YAHHH@Z              00551330 f   engq:m_numath.obj
 0001:00150380       ?ilog2@@YAHI@Z             00551380 f   engq:m_numath.obj
 0001:001503a0       ?interp3d@@YAXPBUpointf3@@0MPAU1@@Z 005513a0 f   engq:m_numath.obj
 0001:00150400       ?ipow@@YAHHH@Z             00551400 f   engq:m_numath.obj
 0001:00150420       ?isequal3d@@YAHPBUpointf3@@0@Z 00551420 f   engq:m_numath.obj
 0001:00150460       ?isqrt@@YAHH@Z             00551460 f   engq:m_numath.obj
 0001:001504b0       ?lcm@@YAHHH@Z              005514b0 f   engq:m_numath.obj
 0001:00150510       ?len3dsq@@YAMPBUpointf3@@@Z 00551510 f   engq:m_numath.obj
 0001:00150550       ?my_isnan@@YA_NM@Z         00551550 f   engq:m_numath.obj
 0001:00150580       ?nanerr@@YAXPBDM@Z         00551580 f   engq:m_numath.obj
 0001:001505c0       ?normalangrad@@YAMM@Z      005515c0 f   engq:m_numath.obj
 0001:00150650       ?normalize2d@@YAMPBUpointf2@@PAU1@@Z 00551650 f   engq:m_numath.obj
 0001:00150720       ?normalize3d@@YAMPBUpointf3@@PAU1@@Z 00551720 f   engq:m_numath.obj
 0001:00150810       ?pow2up@@YAHH@Z            00551810 f   engq:m_numath.obj
 0001:00150850       ?proj3d@@YAHPBUpointf3@@0PAU1@@Z 00551850 f   engq:m_numath.obj
 0001:001508f0       ?quadratic@@YAXABV?$complex@M@std@@00AAV12@1@Z 005518f0 f   engq:m_numath.obj
 0001:00150b10       ?quadratic@@YA_NMMMAAM0@Z  00551b10 f   engq:m_numath.obj
 0001:00150c10       ?quadratic@@YA_NMMMAAV?$complex@M@std@@0@Z 00551c10 f   engq:m_numath.obj
 0001:00150db0       ?racos@@YAMM@Z             00551db0 f   engq:m_numath.obj
 0001:00150e30       ?ratan2@@YAMMM@Z           00551e30 f   engq:m_numath.obj
 0001:00150ef0       ?setfpuroundprec@@YAXII@Z  00551ef0 f   engq:m_numath.obj
 0001:00150f10       ?snormalangrad@@YAMM@Z     00551f10 f   engq:m_numath.obj
 0001:00150fa0       ?solveLinear2@@YAXMMMMMMAAM0@Z 00551fa0 f   engq:m_numath.obj
 0001:00151010       ??$_Buynode@ABUpiecewise_construct_t@std@@V?$tuple@ABI@2@V?$tuple@$$V@2@@?$_Tree_comp_alloc@V?$_Tmap_traits@IHU?$less@I@std@@V?$allocator@U?$pair@$$CBIH@std@@@2@$0A@@std@@@std@@QAEPAU?$_Tree_node@U?$pair@$$CBIH@std@@PAX@1@ABUpiecewise_construct_t@1@$$QAV?$tuple@ABI@1@$$QAV?$tuple@$$V@1@@Z 00552010 f i engq:m_bitmap32.obj
 0001:00151040       ??$_Insert_at@AAU?$pair@$$CBIH@std@@PAU?$_Tree_node@U?$pair@$$CBIH@std@@PAX@2@@?$_Tree@V?$_Tmap_traits@IHU?$less@I@std@@V?$allocator@U?$pair@$$CBIH@std@@@2@$0A@@std@@@std@@IAE?AV?$_Tree_iterator@V?$_Tree_val@U?$_Tree_simple_types@U?$pair@$$CBIH@std@@@std@@@std@@@1@_NPAU?$_Tree_node@U?$pair@$$CBIH@std@@PAX@1@AAU?$pair@$$CBIH@1@1@Z 00552040 f i engq:m_bitmap32.obj
 0001:001511a0       ??$_Insert_hint@AAU?$pair@$$CBIH@std@@PAU?$_Tree_node@U?$pair@$$CBIH@std@@PAX@2@@?$_Tree@V?$_Tmap_traits@IHU?$less@I@std@@V?$allocator@U?$pair@$$CBIH@std@@@2@$0A@@std@@@std@@IAE?AV?$_Tree_iterator@V?$_Tree_val@U?$_Tree_simple_types@U?$pair@$$CBIH@std@@@std@@@std@@@1@V?$_Tree_const_iterator@V?$_Tree_val@U?$_Tree_simple_types@U?$pair@$$CBIH@std@@@std@@@std@@@1@AAU?$pair@$$CBIH@1@PAU?$_Tree_node@U?$pair@$$CBIH@std@@PAX@1@@Z 005521a0 f i engq:m_bitmap32.obj
 0001:001513b0       ??$_Insert_nohint@AAU?$pair@$$CBIH@std@@PAU?$_Tree_node@U?$pair@$$CBIH@std@@PAX@2@@?$_Tree@V?$_Tmap_traits@IHU?$less@I@std@@V?$allocator@U?$pair@$$CBIH@std@@@2@$0A@@std@@@std@@IAE?AU?$pair@V?$_Tree_iterator@V?$_Tree_val@U?$_Tree_simple_types@U?$pair@$$CBIH@std@@@std@@@std@@@std@@_N@1@_NAAU?$pair@$$CBIH@1@PAU?$_Tree_node@U?$pair@$$CBIH@std@@PAX@1@@Z 005523b0 f i engq:m_bitmap32.obj
 0001:001514d0       ?_Buyheadnode@?$_Tree_comp_alloc@V?$_Tmap_traits@IHU?$less@I@std@@V?$allocator@U?$pair@$$CBIH@std@@@2@$0A@@std@@@std@@QAEPAU?$_Tree_node@U?$pair@$$CBIH@std@@PAX@2@XZ 005524d0 f i engq:m_bitmap32.obj
 0001:001514f0       ?_Buynode0@?$_Tree_comp_alloc@V?$_Tmap_traits@IHU?$less@I@std@@V?$allocator@U?$pair@$$CBIH@std@@@2@$0A@@std@@@std@@QAEPAU?$_Tree_node@U?$pair@$$CBIH@std@@PAX@2@XZ 005524f0 f i engq:m_bitmap32.obj
 0001:00151510       ?_Destroy_if_node@?$_Tree@V?$_Tmap_traits@IHU?$less@I@std@@V?$allocator@U?$pair@$$CBIH@std@@@2@$0A@@std@@@std@@IAEXPAU?$_Tree_node@U?$pair@$$CBIH@std@@PAX@2@@Z 00552510 f i engq:m_bitmap32.obj
 0001:00151530       ?_Erase@?$_Tree@V?$_Tmap_traits@IHU?$less@I@std@@V?$allocator@U?$pair@$$CBIH@std@@@2@$0A@@std@@@std@@IAEXPAU?$_Tree_node@U?$pair@$$CBIH@std@@PAX@2@@Z 00552530 f i engq:m_bitmap32.obj
 0001:00151570       ?bclip32@@YA_NPBUbitmap32@@0PAH11111@Z 00552570 f   engq:m_bitmap32.obj
 0001:001516a0       ?bitmap32alloc@@YAPAUbitmap32@@HHUC32@@@Z 005526a0 f   engq:m_bitmap32.obj
 0001:00151720       ?bitmap32copy@@YAPAUbitmap32@@PBU1@@Z 00552720 f   engq:m_bitmap32.obj
 0001:00151770       ?bitmap32double@@YAPAUbitmap32@@PAU1@@Z 00552770 f   engq:m_bitmap32.obj
 0001:00151830       ?bitmap32double@@YAXPAUbitmap32@@0@Z 00552830 f   engq:m_bitmap32.obj
 0001:001518e0       ?bitmap8free@@YAXPAUbitmap8@@@Z 005528e0 f   engq:m_bitmap8.obj
 0001:001518e0       ?bitmap32free@@YAXPAUbitmap32@@@Z 005528e0 f   engq:m_bitmap32.obj
 0001:00151900       ?bitmap32reduce@@YAPAUbitmap32@@PBU1@@Z 00552900 f   engq:m_bitmap32.obj
 0001:00152000       ?clear@?$_Tree@V?$_Tmap_traits@IHU?$less@I@std@@V?$allocator@U?$pair@$$CBIH@std@@@2@$0A@@std@@@std@@QAEXXZ 00553000 f i engq:m_bitmap32.obj
 0001:00152080       ?clipblit32@@YAXPBUbitmap32@@PAU1@HHHHHH@Z 00553080 f   engq:m_bitmap32.obj
 0001:00152150       ?clipblit32alpha1@@YAXPAUbitmap32@@0HHHHHH@Z 00553150 f   engq:m_bitmap32.obj
 0001:00152240       ?clipcircle32@@YAXPBUbitmap32@@HHHUC32@@@Z 00553240 f   engq:m_bitmap32.obj
 0001:001523a0       ?clipcircleo32@@YAXPAUbitmap32@@HHHUC32@@@Z 005533a0 f   engq:m_bitmap32.obj
 0001:00152480       ?clipclear32@@YAXPAUbitmap32@@UC32@@@Z 00553480 f   engq:m_bitmap32.obj
 0001:00152500       ?clipfore32@@YAXPBUbitmap32@@0HHHHHHUC32@@@Z 00553500 f   engq:m_bitmap32.obj
 0001:001525e0       ?clipforeback32@@YAXPAUbitmap32@@0HHHHHHUC32@@1@Z 005535e0 f   engq:m_bitmap32.obj
 0001:001526e0       ?clipgetpixel32@@YA?AUC32@@PBUbitmap32@@HH@Z 005536e0 f   engq:m_bitmap32.obj
 0001:00152740       ?cliphline32@@YAXPBUbitmap32@@HHHUC32@@@Z 00553740 f   engq:m_bitmap32.obj
 0001:001527c0       ?clipline32@@YAXPBUbitmap32@@HHHHUC32@@@Z 005537c0 f   engq:m_bitmap32.obj
 0001:00152890       ?clipputpixel32@@YAXPBUbitmap32@@HHUC32@@@Z 00553890 f   engq:m_bitmap32.obj
 0001:001528e0       ?cliprect32@@YAXPBUbitmap32@@HHHHUC32@@@Z 005538e0 f   engq:m_bitmap32.obj
 0001:00152920       ?cliprecto32@@YAXPAUbitmap32@@HHHHUC32@@@Z 00553920 f   engq:m_bitmap32.obj
 0001:001529b0       ?clipscaleblit32@@YAXPBUbitmap32@@PAU1@@Z 005539b0 f   engq:m_bitmap32.obj
 0001:00152de0       ?clipvline32@@YAXPAUbitmap32@@HHHUC32@@@Z 00553de0 f   engq:m_bitmap32.obj
 0001:00152e70       ?clipxpar32@@YAXPAUbitmap32@@0HHHHHHUC32@@@Z 00553e70 f   engq:m_bitmap32.obj
 0001:00152f50       ?con32_alloc@@YAPAUcon32@@HHUC32@@0@Z 00553f50 f   engq:m_bitmap32.obj
 0001:00152fa0       ?con32_clear@@YAXPAUcon32@@@Z 00553fa0 f   engq:m_bitmap32.obj
 0001:00152fe0       ?con32_free@@YAXPAUcon32@@@Z 00553fe0 f   engq:m_bitmap32.obj
 0001:00153010       ?con32_getbitmap32@@YAPAUbitmap32@@PBUcon32@@@Z 00554010 f   engq:m_bitmap32.obj
 0001:00153030       ?con32_printf@@YAXPBUcon32@@PBDZZ 00554030 f   engq:m_bitmap32.obj
 0001:00153050       ?con32_printfvs@@YAXPBUcon32@@PBDPAD@Z 00554050 f   engq:m_bitmap32.obj
 0001:001531e0       ?fastblit32@@YAXPBUbitmap32@@PAU1@HHHHHH@Z 005541e0 f   engq:m_bitmap32.obj
 0001:00153280       ?fastclear32@@YAXPAUbitmap32@@UC32@@@Z 00554280 f   engq:m_bitmap32.obj
 0001:001532a0       ?fastgetpixel32@@YA?AUC32@@PAUbitmap32@@HH@Z 005542a0 f   engq:m_bitmap32.obj
 0001:001532c0       ?fastputpixel32@@YAXPAUbitmap32@@HHUC32@@@Z 005542c0 f   engq:m_bitmap32.obj
 0001:001532e0       ?fastrect32@@YAXPBUbitmap32@@HHHHUC32@@@Z 005542e0 f   engq:m_bitmap32.obj
 0001:00153330       ?gcon_printf@@YAXPBDZZ     00554330 f   engq:m_bitmap32.obj
 0001:001535a0       ?makeblackxpar@@YAXPAUbitmap32@@V?$basic_string@DU?$char_traits@D@std@@V?$allocator@D@2@@std@@@Z 005545a0 f   engq:m_bitmap32.obj
 0001:00153990       ?resetcliprect32@@YAXPAUbitmap32@@@Z 00554990 f   engq:m_bitmap32.obj
 0001:001539b0       ?setcliprect32@@YAXPAUbitmap32@@HHHH@Z 005549b0 f   engq:m_bitmap32.obj
 0001:00153a20       ??2@YAPAXI@Z               00554a20 f   engq:m_mem.obj
 0001:00153a40       ??3@YAXPAX@Z               00554a40 f   engq:m_mem.obj
 0001:00153b30       _memalloc                  00554b30 f   engq:m_mem.obj
 0001:00153d60       _memexit                   00554d60 f   engq:m_mem.obj
 0001:00153e70       _memfree                   00554e70 f   engq:m_mem.obj
 0001:00154130       _meminit                   00555130 f   engq:m_mem.obj
 0001:00154160       _memrealloc                00555160 f   engq:m_mem.obj
 0001:001541b0       _memzalloc                 005551b0 f   engq:m_mem.obj
 0001:001541e0       _popmemname                005551e0 f   engq:m_mem.obj
 0001:00154220       _pushmemname               00555220 f   engq:m_mem.obj
 0001:00154280       ?absdir2reldir@@YA?AV?$basic_string@DU?$char_traits@D@std@@V?$allocator@D@2@@std@@V12@@Z 00555280 f   engq:m_dir.obj
 0001:00154460       ?absdir2reldirdisplay@@YA?AV?$basic_string@DU?$char_traits@D@std@@V?$allocator@D@2@@std@@V12@@Z 00555460 f   engq:m_dir.obj
 0001:00154800       ?direxit@@YAXXZ            00555800 f   engq:m_dir.obj
 0001:00154820       ?dirinit@@YAXXZ            00555820 f   engq:m_dir.obj
 0001:001549f0       ?getcurdir@@YAPBDXZ        005559f0 f   engq:m_dir.obj
 0001:00154a00       ?popdir@@YAIXZ             00555a00 f   engq:m_dir.obj
 0001:00154a40       ?pushandsetdir@@YAIPBD@Z   00555a40 f   engq:m_dir.obj
 0001:00154a50       ?pushandsetdirdown@@YAIPBD@Z 00555a50 f   engq:m_dir.obj
 0001:00154a60       ?pushandsetdirup@@YAIXZ    00555a60 f   engq:m_dir.obj
 0001:00154af0       ?pushdir@@YAXXZ            00555af0 f   engq:m_dir.obj
 0001:00154b40       ?setdir@@YAIPBD@Z          00555b40 f   engq:m_dir.obj
 0001:00154c20       ?setdirdown@@YAIPBD@Z      00555c20 f   engq:m_dir.obj
 0001:00154de0       ?setdirup@@YAIXZ           00555de0 f   engq:m_dir.obj
 0001:00154fa0       ?_Lock@?$basic_filebuf@DU?$char_traits@D@std@@@std@@UAEXXZ 00555fa0 f i engq:m_file.obj
 0001:00154fb0       ?_Unlock@?$basic_filebuf@DU?$char_traits@D@std@@@std@@UAEXXZ 00555fb0 f i engq:m_file.obj
 0001:00154fc0       ?overflow@?$basic_filebuf@DU?$char_traits@D@std@@@std@@MAEHH@Z 00555fc0 f i engq:m_file.obj
 0001:001550f0       ?pbackfail@?$basic_filebuf@DU?$char_traits@D@std@@@std@@MAEHH@Z 005560f0 f i engq:m_file.obj
 0001:001551a0       ?underflow@?$basic_filebuf@DU?$char_traits@D@std@@@std@@MAEHXZ 005561a0 f i engq:m_file.obj
 0001:001551e0       ?uflow@?$basic_filebuf@DU?$char_traits@D@std@@@std@@MAEHXZ 005561e0 f i engq:m_file.obj
 0001:00155500       ?xsgetn@?$basic_filebuf@DU?$char_traits@D@std@@@std@@MAE_JPAD_J@Z 00556500 f i engq:m_file.obj
 0001:001555f0       ?xsputn@?$basic_filebuf@DU?$char_traits@D@std@@@std@@MAE_JPBD_J@Z 005565f0 f i engq:m_file.obj
 0001:001556d0       ?seekoff@?$basic_filebuf@DU?$char_traits@D@std@@@std@@MAE?AV?$fpos@U_Mbstatet@@@2@_JHH@Z 005566d0 f i engq:m_file.obj
 0001:001557b0       ?seekpos@?$basic_filebuf@DU?$char_traits@D@std@@@std@@MAE?AV?$fpos@U_Mbstatet@@@2@V32@H@Z 005567b0 f i engq:m_file.obj
 0001:00155880       ?setbuf@?$basic_filebuf@DU?$char_traits@D@std@@@std@@MAEPAV?$basic_streambuf@DU?$char_traits@D@std@@@2@PAD_J@Z 00556880 f i engq:m_file.obj
 0001:001558d0       ?sync@?$basic_filebuf@DU?$char_traits@D@std@@@std@@MAEHXZ 005568d0 f i engq:m_file.obj
 0001:00155900       ?imbue@?$basic_filebuf@DU?$char_traits@D@std@@@std@@MAEXABVlocale@2@@Z 00556900 f i engq:m_file.obj
 0001:00155940       ??_E?$basic_filebuf@DU?$char_traits@D@std@@@std@@UAEPAXI@Z 00556940 f i engq:m_file.obj
 0001:00155940       ??_G?$basic_filebuf@DU?$char_traits@D@std@@@std@@UAEPAXI@Z 00556940 f i engq:m_file.obj
 0001:00155963       ??_E?$basic_fstream@DU?$char_traits@D@std@@@std@@$4PPPPPPPM@A@AEPAXI@Z 00556963 f i engq:m_file.obj
 0001:00155970       ??$_Fputc@D@std@@YA_NDPAU_iobuf@@@Z 00556970 f i engq:m_file.obj
 0001:00155990       ??$use_facet@V?$codecvt@DDU_Mbstatet@@@std@@@std@@YAABV?$codecvt@DDU_Mbstatet@@@0@ABVlocale@0@@Z 00556990 f i engq:m_file.obj
 0001:00155ae0       ??0?$basic_fstream@DU?$char_traits@D@std@@@std@@QAE@XZ 00556ae0 f i engq:m_file.obj
 0001:00155cd0       ??1?$basic_filebuf@DU?$char_traits@D@std@@@std@@UAE@XZ 00556cd0 f i engq:m_file.obj
 0001:00155d70       ??_D?$basic_fstream@DU?$char_traits@D@std@@@std@@QAEXXZ 00556d70 f i engq:m_file.obj
 0001:00155e30       ??_E?$basic_fstream@DU?$char_traits@D@std@@@std@@UAEPAXI@Z 00556e30 f i engq:m_file.obj
 0001:00155e30       ??_G?$basic_fstream@DU?$char_traits@D@std@@@std@@UAEPAXI@Z 00556e30 f i engq:m_file.obj
 0001:00155e60       ?_Endwrite@?$basic_filebuf@DU?$char_traits@D@std@@@std@@IAE_NXZ 00556e60 f i engq:m_file.obj
 0001:00155ef0       ?_Init@?$basic_filebuf@DU?$char_traits@D@std@@@std@@IAEXPAU_iobuf@@W4_Initfl@12@@Z 00556ef0 f i engq:m_file.obj
 0001:00155fd0       ?_Init@?$basic_streambuf@DU?$char_traits@D@std@@@std@@IAEXXZ 00556fd0 f i engq:m_file.obj
 0001:00156030       ?_Reset_back@?$basic_filebuf@DU?$char_traits@D@std@@@std@@AAEXXZ 00557030 f i engq:m_file.obj
 0001:00156060       ?close@?$basic_filebuf@DU?$char_traits@D@std@@@std@@QAEPAV12@XZ 00557060 f i engq:m_file.obj
 0001:00156120       ?do_in@?$codecvt@DDU_Mbstatet@@@std@@MBEHAAU_Mbstatet@@PBD1AAPBDPAD3AAPAD@Z 00557120 f i engq:m_file.obj
 0001:00156120       ?do_out@?$codecvt@DDU_Mbstatet@@@std@@MBEHAAU_Mbstatet@@PBD1AAPBDPAD3AAPAD@Z 00557120 f i engq:m_file.obj
 0001:00156140       ?do_length@?$codecvt@DDU_Mbstatet@@@std@@MBEHAAU_Mbstatet@@PBD1I@Z 00557140 f i engq:m_file.obj
 0001:00156160       ?do_unshift@?$codecvt@DDU_Mbstatet@@@std@@MBEHAAU_Mbstatet@@PAD1AAPAD@Z 00557160 f i engq:m_file.obj
 0001:00156180       ?fileexist@@YAHPBD@Z       00557180 f   engq:m_file.obj
 0001:00156230       ?fileload@@YAPADPBDH@Z     00557230 f   engq:m_file.obj
 0001:001562c0       ?fileload_string@@YA?AV?$basic_string@DU?$char_traits@D@std@@V?$allocator@D@2@@std@@PBD@Z 005572c0 f   engq:m_file.obj
 0001:00156400       ?fileread@@YAIPAU_iobuf@@PAXI@Z 00557400 f   engq:m_file.obj
 0001:00156420       ?filereadU16BE@@YAIPAU_iobuf@@@Z 00557420 f   engq:m_file.obj
 0001:00156480       ?filereadU16LE@@YAIPAU_iobuf@@@Z 00557480 f   engq:m_file.obj
 0001:001564e0       ?filereadU32LE@@YAIPAU_iobuf@@@Z 005574e0 f   engq:m_file.obj
 0001:00156590       ?filereadU8@@YAIPAU_iobuf@@@Z 00557590 f   engq:m_file.obj
 0001:001565c0       ?filesave@@YAXPBD0@Z       005575c0 f   engq:m_file.obj
 0001:00156610       ?filesave_string@@YAXPBDV?$basic_string@DU?$char_traits@D@std@@V?$allocator@D@2@@std@@@Z 00557610 f   engq:m_file.obj
 0001:001566b0       ?filewrite@@YAXPAU_iobuf@@PBXI@Z 005576b0 f   engq:m_file.obj
 0001:001566d0       ?filewriteU32LE@@YAXPAU_iobuf@@I@Z 005576d0 f   engq:m_file.obj
 0001:00156740       ?filewriteU8@@YAXPAU_iobuf@@I@Z 00557740 f   engq:m_file.obj
 0001:00156760       ?flush@?$basic_ostream@DU?$char_traits@D@std@@@std@@QAEAAV12@XZ 00557760 f i engq:m_file.obj
 0001:00156860       ?fopen2@@YAPAU_iobuf@@PBD0@Z 00557860 f   engq:m_file.obj
 0001:00156920       ?getfilesize@@YAIPAU_iobuf@@@Z 00557920 f   engq:m_file.obj
 0001:00156960       ?getloggername@@YAPBDXZ    00557960 f   engq:m_file.obj
 0001:00156980       ?isfileext@@YA_NPBD0@Z     00557980 f   engq:m_file.obj
 0001:00156aa0       ?logger@@YAXPBDZZ          00557aa0 f   engq:m_file.obj
 0001:00156b20       ?logger_disableindent@@YAXXZ 00557b20 f   engq:m_file.obj
 0001:00156b40       ?logger_enableindent@@YAXXZ 00557b40 f   engq:m_file.obj
 0001:00156b50       ?logger_indent@@YAXXZ      00557b50 f   engq:m_file.obj
 0001:00156b60       ?logger_unindent@@YAXXZ    00557b60 f   engq:m_file.obj
 0001:00156b80       ?loggerexit@@YAXXZ         00557b80 f   engq:m_file.obj
 0001:00156ce0       ?loggerinit@@YAXXZ         00557ce0 f   engq:m_file.obj
 0001:00156f00       ?mbuildfilename@@YAXPBD00PAD@Z 00557f00 f   engq:m_file.obj
 0001:00156fb0       ?mgetext@@YAIPBDPADH@Z     00557fb0 f   engq:m_file.obj
 0001:00157070       ?mgetname@@YAIPBDPAD@Z     00558070 f   engq:m_file.obj
 0001:00157190       ?mgetnameext@@YAIPBDPAD@Z  00558190 f   engq:m_file.obj
 0001:00157220       ?mgetpath@@YAIPBDPAD@Z     00558220 f   engq:m_file.obj
 0001:00157320       ?my_itoa@@YAPADHPADH@Z     00558320 f   engq:m_file.obj
 0001:00157350       ?my_stricmp@@YAHPBD0@Z     00558350 f   engq:m_file.obj
 0001:001573d0       ?my_strlwr@@YAXPAD@Z       005583d0 f   engq:m_file.obj
 0001:00157400       ?my_strupr@@YAXPAD@Z       00558400 f   engq:m_file.obj
 0001:00157430       ?mystrncpy@@YAXPADPBDH@Z   00558430 f   engq:m_file.obj
 0001:00157470       ?open@?$basic_fstream@DU?$char_traits@D@std@@@std@@QAEXPBDHH@Z 00558470 f i engq:m_file.obj
 0001:00157600       ?put@?$basic_ostream@DU?$char_traits@D@std@@@std@@QAEAAV12@D@Z 00558600 f i engq:m_file.obj
 0001:001577c0       ?unique@@YAPBDXZ           005587c0 f   engq:m_file.obj
 0001:001577f0       _snprintf                  005587f0 f i engq:m_file.obj
 0001:00157830       ??$_Insertion_sort_unchecked@PAV?$basic_string@DU?$char_traits@D@std@@V?$allocator@D@2@@std@@P6A_NV12@0@Z@std@@YAPAV?$basic_string@DU?$char_traits@D@std@@V?$allocator@D@2@@0@PAV10@QAV10@P6A_NV10@2@Z@Z 00558830 f i engq:m_script.obj
 0001:00157e10       ??$_Med3_unchecked@PAV?$basic_string@DU?$char_traits@D@std@@V?$allocator@D@2@@std@@P6A_NV12@0@Z@std@@YAXPAV?$basic_string@DU?$char_traits@D@std@@V?$allocator@D@2@@0@00P6A_NV10@1@Z@Z 00558e10 f i engq:m_script.obj
 0001:00157f40       ??$_Partition_by_median_guess_unchecked@PAV?$basic_string@DU?$char_traits@D@std@@V?$allocator@D@2@@std@@P6A_NV12@0@Z@std@@YA?AU?$pair@PAV?$basic_string@DU?$char_traits@D@std@@V?$allocator@D@2@@std@@PAV12@@0@PAV?$basic_string@DU?$char_traits@D@std@@V?$allocator@D@2@@0@0P6A_NV20@1@Z@Z 00558f40 f i engq:m_script.obj
 0001:00158f90       ??$_Pop_heap_hole_by_index@PAV?$basic_string@DU?$char_traits@D@std@@V?$allocator@D@2@@std@@V12@P6A_NV12@0@Z@std@@YAXPAV?$basic_string@DU?$char_traits@D@std@@V?$allocator@D@2@@0@HH$$QAV10@P6A_NV10@2@Z@Z 00559f90 f i engq:m_script.obj
 0001:001592a0       ??$_Push_heap_by_index@PAV?$basic_string@DU?$char_traits@D@std@@V?$allocator@D@2@@std@@V12@P6A_NV12@0@Z@std@@YAXPAV?$basic_string@DU?$char_traits@D@std@@V?$allocator@D@2@@0@HH$$QAV10@P6A_NV10@2@Z@Z 0055a2a0 f i engq:m_script.obj
 0001:001595a0       ??$_Sort_heap_unchecked@PAV?$basic_string@DU?$char_traits@D@std@@V?$allocator@D@2@@std@@P6A_NV12@0@Z@std@@YAXPAV?$basic_string@DU?$char_traits@D@std@@V?$allocator@D@2@@0@0P6A_NV10@1@Z@Z 0055a5a0 f i engq:m_script.obj
 0001:00159720       ??$_Sort_unchecked@PAV?$basic_string@DU?$char_traits@D@std@@V?$allocator@D@2@@std@@P6A_NV12@0@Z@std@@YAXPAV?$basic_string@DU?$char_traits@D@std@@V?$allocator@D@2@@0@0HP6A_NV10@1@Z@Z 0055a720 f i engq:m_script.obj
 0001:00159910       ??0script@@QAE@PBD_N@Z     0055a910 f   engq:m_script.obj
 0001:00159e70       ??0scriptdir@@QAE@H@Z      0055ae70 f   engq:m_script.obj
 0001:00159fc0       ??0scriptinc@@QAE@PBD0@Z   0055afc0 f   engq:m_script.obj
 0001:0015aa60       ?addscript@script@@QAEXPBD@Z 0055ba60 f i engq:m_script.obj
 0001:0015ab40       ?clear@?$basic_string@DU?$char_traits@D@std@@V?$allocator@D@2@@std@@QAEXXZ 0055bb40 f i engq:m_script.obj
 0001:0015ab60       ?script2printc@@YA?AV?$basic_string@DU?$char_traits@D@std@@V?$allocator@D@2@@std@@V12@@Z 0055bb60 f   engq:m_script.obj
 0001:0015ae50       ?sort@script@@QAEXXZ       0055be50 f   engq:m_script.obj
 0001:0015ae80       ??0tree2@@QAE@PBD@Z        0055be80 f   engq:d2_tree.obj
 0001:0015b190       ??1?$list@PAVtree2@@V?$allocator@PAVtree2@@@std@@@std@@QAE@XZ 0055c190 f i engq:d2_tree.obj
 0001:0015b1e0       ??1tree2@@UAE@XZ           0055c1e0 f   engq:d2_tree.obj
 0001:0015b440       ??_Gtree2@@UAEPAXI@Z       0055c440 f i engq:d2_tree.obj
 0001:0015b440       ??_Etree2@@UAEPAXI@Z       0055c440 f i engq:d2_tree.obj
 0001:0015b470       ?deleterc@?$referencecount@Vmodelb@@@@QAEXPAVmodelb@@@Z 0055c470 f i engq:d2_tree.obj
 0001:0015b520       ?find@tree2@@QAEPAV1@PBD@Z 0055c520 f   engq:d2_tree.obj
 0001:0015b5a0       ?findmaterial@tree2@@QAEPAUmater2@@PBD@Z 0055c5a0 f   engq:d2_tree.obj
 0001:0015b690       ?findsome@tree2@@QAEPAV1@PBD@Z 0055c690 f   engq:d2_tree.obj
 0001:0015b800       ?getlookat@@YAXPBUpointf3@@0PAU1@@Z 0055c800 f   engq:d2_tree.obj
 0001:0015b910       ?getsuggestlightmap@@YA?AV?$basic_string@DU?$char_traits@D@std@@V?$allocator@D@2@@std@@XZ 0055c910 f   engq:d2_tree.obj
 0001:0015b930       ?linkchild@tree2@@QAEXPAV1@@Z 0055c930 f   engq:d2_tree.obj
 0001:0015ba00       ?log2@tree2@@QAEXXZ        0055ca00 f   engq:d2_tree.obj
 0001:0015bd60       ?newdup@tree2@@QAEPAV1@XZ  0055cd60 f   engq:d2_tree.obj
 0001:0015c240       ?obj2world@@YAXPBVtree2@@PBUpointf3@@PAU2@@Z 0055d240 f   engq:d2_tree.obj
 0001:0015c270       ?obj2worldn@@YAXPBVtree2@@PBUpointf3@@PAU2@I@Z 0055d270 f   engq:d2_tree.obj
 0001:0015c2a0       ?proc@tree2@@UAEXXZ        0055d2a0 f   engq:d2_tree.obj
 0001:0015c470       ?setcastshadow@@YAXPAVtree2@@@Z 0055d470 f   engq:d2_tree.obj
 0001:0015c4b0       ?setmodel@tree2@@QAEXPAVmodelb@@@Z 0055d4b0 f   engq:d2_tree.obj
 0001:0015c4e0       ?setsuggestlightmap@@YAXV?$basic_string@DU?$char_traits@D@std@@V?$allocator@D@2@@std@@@Z 0055d4e0 f   engq:d2_tree.obj
 0001:0015c610       ?unlink@tree2@@QAEXXZ      0055d610 f   engq:d2_tree.obj
 0001:0015c670       ?video_buildtreelist@@YAXPAVtree2@@@Z 0055d670 f   engq:d2_tree.obj
 0001:0015c880       ?video_buildworldmatearly@@YAXPBVtree2@@@Z 0055d880 f   engq:d2_tree.obj
 0001:0015c940       ?video_buildworldmats@@YAXPAVtree2@@@Z 0055d940 f   engq:d2_tree.obj
 0001:0015ca30       ?video_drawtreelist@@YAXXZ 0055da30 f   engq:d2_tree.obj
 0001:0015caa0       ?video_sorttreelist@@YAXXZ 0055daa0 f   engq:d2_tree.obj
 0001:0015caf0       ?getmicrosec@@YAIXZ        0055daf0 f   engq:m_tm.obj
 0001:0015cbb0       ?getmillisec@@YAIXZ        0055dbb0 f   engq:m_tm.obj
 0001:0015cbc0       ?timerinit@@YAXXZ          0055dbc0 f   engq:m_tm.obj
 0001:0015ccb0       ?changestate@@YAXH@Z       0055dcb0 f   engq:m_state.obj
 0001:0015ccd0       ?poporchangestate@@YAXH@Z  0055dcd0 f   engq:m_state.obj
 0001:0015cd10       ?popstate@@YAXXZ           0055dd10 f   engq:m_state.obj
 0001:0015cd50       ?pushchangestate@@YAXH@Z   0055dd50 f   engq:m_state.obj
 0001:0015cda0       ?statedraw2d@@YAXXZ        0055dda0 f   engq:m_state.obj
 0001:0015cdd0       ?statedraw3d@@YAXXZ        0055ddd0 f   engq:m_state.obj
 0001:0015ce00       ?statehasdraw2d@@YA_NXZ    0055de00 f   engq:m_state.obj
 0001:0015ce30       ?statehasdraw3d@@YA_NXZ    0055de30 f   engq:m_state.obj
 0001:0015ce60       ?stateproc@@YA_NXZ         0055de60 f   engq:m_state.obj
 0001:0015cfe0       ?mt_frand@@YAMXZ           0055dfe0 f   engq:m_mt_rand.obj
 0001:0015d030       ?mt_randU32@@YAIXZ         0055e030 f   engq:m_mt_rand.obj
 0001:0015d150       ?mt_random@@YAII@Z         0055e150 f   engq:m_mt_rand.obj
 0001:0015d170       ?mt_setseed@@YAXI@Z        0055e170 f   engq:m_mt_rand.obj
 0001:0015d180       ?figureoutwindowpos@@YAXH@Z 0055e180 f   engq:m_vid.obj
 0001:0015d1e0       ?figureoutwindowposxywh@@YAXHPAH000@Z 0055e1e0 f   engq:m_vid.obj
 0001:0015d370       ?video_getnmaindrivers@@YAPAVscript@@XZ 0055e370 f   engq:m_vid.obj
 0001:0015d4a0       ?video_getnsubdrivers@@YAPAVscript@@H@Z 0055e4a0 f   engq:m_vid.obj
 0001:0015d5b0       ?video_init@@YAXHH@Z       0055e5b0 f   engq:m_vid.obj
 0001:0015d810       ?video_lock@@YAXXZ         0055e810 f   engq:m_vid.obj
 0001:0015d840       ?video_paintwindow@@YAXI@Z 0055e840 f   engq:m_vid.obj
 0001:0015d8b0       ?video_reload_mat2shader@@YAXPBD@Z 0055e8b0 f   engq:m_vid.obj
 0001:0015d9d0       ?video_setupwindow@@YAXHH@Z 0055e9d0 f   engq:m_vid.obj
 0001:0015dda0       ?video_uninit@@YAXXZ       0055eda0 f   engq:m_vid.obj
 0001:0015de80       ?video_unlock@@YAXXZ       0055ee80 f   engq:m_vid.obj
 0001:0015e030       ?parsecommandline@@YAXABVscript@@@Z 0055f030 f   engq:m_win.obj
 0001:0015e270       _WinMain@16                0055f270 f   engq:m_win.obj
 0001:0015e670       ??$_Destroy_range@V?$allocator@Udebinfo@@@std@@@std@@YAXPAUdebinfo@@0AAV?$allocator@Udebinfo@@@0@@Z 0055f670 f i engq:m_debp.obj
 0001:0015e6e0       ??$_Emplace_reallocate@ABUdebinfo@@@?$vector@Udebinfo@@V?$allocator@Udebinfo@@@std@@@std@@QAEPAUdebinfo@@QAU2@ABU2@@Z 0055f6e0 f i engq:m_debp.obj
 0001:0015e900       ??$_Uninitialized_move@PAUdebinfo@@PAU1@V?$allocator@Udebinfo@@@std@@@std@@YAPAUdebinfo@@QAU1@0PAU1@AAV?$allocator@Udebinfo@@@0@@Z 0055f900 f i engq:m_debp.obj
 0001:0015e990       ?_Destroy@?$vector@Udebinfo@@V?$allocator@Udebinfo@@@std@@@std@@AAEXPAUdebinfo@@0@Z 0055f990 f i engq:m_debp.obj
 0001:0015e9b0       ?adddebvars@@YAXV?$basic_string@DU?$char_traits@D@std@@V?$allocator@D@2@@std@@PAUmenuvar@@H_N@Z 0055f9b0 f   engq:m_debp.obj
 0001:0015ebb0       ?debp_exit@@YAXXZ          0055fbb0 f   engq:m_debp.obj
 0001:0015ec20       ?debp_init@@YAXXZ          0055fc20 f   engq:m_debp.obj
 0001:0015eca0       ?debprocesskey@@YAXXZ      0055fca0 f   engq:m_debp.obj
 0001:0015ef90       ?doscriptline@@YAXV?$basic_string@DU?$char_traits@D@std@@V?$allocator@D@2@@std@@0@Z 0055ff90 f   engq:m_debp.obj
 0001:0015f310       ?drawdebline@@YAXPBUmenuvar@@HHAAUpointf3@@@Z 00560310 f   engq:m_debp.obj
 0001:0015f680       ?drawdebprint@@YAXXZ       00560680 f   engq:m_debp.obj
 0001:0015f800       ?extradebvars@@YAXPAUmenuvar@@H@Z 00560800 f   engq:m_debp.obj
 0001:0015f930       ?loadconfigfile@@YAXPBDPAUmenuvar@@H@Z 00560930 f   engq:m_debp.obj
 0001:0015fb50       ?loadconfigscript@@YAXABVscript@@PAUmenuvar@@H@Z 00560b50 f   engq:m_debp.obj
 0001:0015fe90       ?removedebvars@@YAXV?$basic_string@DU?$char_traits@D@std@@V?$allocator@D@2@@std@@@Z 00560e90 f   engq:m_debp.obj
 0001:00160110       ??0softfont@@QAE@PADHHHH@Z 00561110 f   engq:m_txt32.obj
 0001:00160210       ??1softfont@@QAE@XZ        00561210 f   engq:m_txt32.obj
 0001:00160290       ?outchar32@@YAXPBUbitmap32@@HHUC32@@I@Z 00561290 f   engq:m_txt32.obj
 0001:001602d0       ?outtextxy32@@YAXPBUbitmap32@@HHUC32@@PBD@Z 005612d0 f   engq:m_txt32.obj
 0001:00160360       ?outtextxy32@softfont@@QBEXPBUbitmap32@@HHUC32@@PBD@Z 00561360 f   engq:m_txt32.obj
 0001:00160410       ?outtextxyb32@@YAXPAUbitmap32@@HHUC32@@1PBD@Z 00561410 f   engq:m_txt32.obj
 0001:00160470       ?outtextxybf32@@YAXPAUbitmap32@@HHUC32@@1PBDZZ 00561470 f   engq:m_txt32.obj
 0001:00160510       ?outtextxybfc32@@YAXPAUbitmap32@@HHUC32@@1PBDZZ 00561510 f   engq:m_txt32.obj
 0001:001605c0       ?outtextxyc32@@YAXPAUbitmap32@@HHUC32@@PBD@Z 005615c0 f   engq:m_txt32.obj
 0001:00160610       ?outtextxyf32@@YAXPAUbitmap32@@HHUC32@@PBDZZ 00561610 f   engq:m_txt32.obj
 0001:00160670       ?outtextxyfc32@@YAXPAUbitmap32@@HHUC32@@PBDZZ 00561670 f   engq:m_txt32.obj
 0001:001606f0       ?gfxread32@@YAPAUbitmap32@@PBD@Z 005616f0 f   engq:m_gfx.obj
 0001:00160890       ?gfxread8@@YAPAUbitmap8@@PBDPAUC32@@@Z 00561890 f   engq:m_gfx.obj
 0001:00160940       ?gfxwrite32@@YAXPBDPBUbitmap32@@@Z 00561940 f   engq:m_gfx.obj
 0001:001609c0       ?doflycam@@YAXPAUviewport2@@@Z 005619c0 f   engq:d2_viewport.obj
 0001:00160e20       ?calcviewportmats@@YAXPAUviewport2@@_N@Z 00561e20 f   engq:d2_vid3d.obj
 0001:00161080       ?d2_3d_init@@YAXXZ         00562080 f   engq:d2_vid3d.obj
 0001:00161130       ?d2_3d_uninit@@YAXXZ       00562130 f   engq:d2_vid3d.obj
 0001:001612b0       ?free_envv2tex@@YAXXZ      005622b0 f   engq:d2_vid3d.obj
 0001:001612d0       ?get_envv2tex@@YAPAVtextureb@@XZ 005622d0 f   engq:d2_vid3d.obj
 0001:001612e0       ?logrc@@YAXXZ              005622e0 f   engq:d2_vid3d.obj
 0001:00161410       ?make_envv2tex@@YAXPBD@Z   00562410 f   engq:d2_vid3d.obj
 0001:00161470       ?model_create@@YAPAVmodelb@@PBD@Z 00562470 f   engq:d2_vid3d.obj
 0001:001614a0       ?model_getrc@@YAHPAVmodelb@@@Z 005624a0 f   engq:d2_vid3d.obj
 0001:001614c0       ?texture_create@@YAPAVtextureb@@PBD@Z 005624c0 f   engq:d2_vid3d.obj
 0001:00161520       ?texture_getrc@@YAHPAVtextureb@@@Z 00562520 f   engq:d2_vid3d.obj
 0001:00161540       ?video_beginscene@@YAXXZ   00562540 f   engq:d2_vid3d.obj
 0001:00161560       ?video_drawscene@@YAXPAVtree2@@@Z 00562560 f   engq:d2_vid3d.obj
 0001:00161590       ?video_endscene@@YAX_N@Z   00562590 f   engq:d2_vid3d.obj
 0001:001615b0       ?video_rendertargetmain@@YAXXZ 005625b0 f   engq:d2_vid3d.obj
 0001:001615d0       ?video_rendertargetshadowmap@@YA_NXZ 005625d0 f   engq:d2_vid3d.obj
 0001:001615f0       ?video_setviewport@@YAXPAUviewport2@@@Z 005625f0 f   engq:d2_vid3d.obj
 0001:00161880       ?addlighttolist@@YAXPAVtree2@@@Z 00562880 f   engq:d2_light.obj
 0001:00161970       ?dolights@@YAXXZ           00562970 f   engq:d2_light.obj
 0001:00161b60       ?removelightfromlist@@YAXPAVtree2@@@Z 00562b60 f   engq:d2_light.obj
 0001:00161bc0       ?buildrot3d@@YAXPBUpointf3@@PAUmat4@@@Z 00562bc0 f   engq:m_matrix.obj
 0001:00161d80       ?buildrottrans3d@@YAXPBUpointf3@@0PAUmat4@@@Z 00562d80 f   engq:m_matrix.obj
 0001:00161db0       ?buildscalerottrans3d@@YAXPBUpointf3@@00PAUmat4@@@Z 00562db0 f   engq:m_matrix.obj
 0001:00161e80       ?comatrix4to3@@YAXPBUmat4@@PAUmat3@@HH@Z 00562e80 f   engq:m_matrix.obj
 0001:00161f10       ?detmat4@@YAMPBUmat4@@@Z   00562f10 f   engq:m_matrix.obj
 0001:001620d0       ?identmat3@@YAXPAUmat3@@@Z 005630d0 f   engq:m_matrix.obj
 0001:00162120       ?identmat4@@YAXPAUmat4@@@Z 00563120 f   engq:m_matrix.obj
 0001:001621a0       ?inversemat2@@YAIPBUmat2@@PAU1@@Z 005631a0 f   engq:m_matrix.obj
 0001:00162230       ?inversemat3@@YAIPBUmat3@@PAU1@@Z 00563230 f   engq:m_matrix.obj
 0001:001623d0       ?inversemat3d@@YAHPBUmat4@@PAU1@@Z 005633d0 f   engq:m_matrix.obj
 0001:001623d0       ?inversemat4@@YAIPBUmat4@@PAU1@@Z 005633d0 f   engq:m_matrix.obj
 0001:001625b0       ?mulmat2@@YAXPBUmat2@@0PAU1@@Z 005635b0 f   engq:m_matrix.obj
 0001:00162640       ?mulmat3@@YAXPBUmat3@@0PAU1@@Z 00563640 f   engq:m_matrix.obj
 0001:001627e0       ?mulmat3d@@YAXPBUmat4@@0PAU1@@Z 005637e0 f   engq:m_matrix.obj
 0001:00162a20       ?mulmat4@@YAXPBUmat4@@0PAU1@@Z 00563a20 f   engq:m_matrix.obj
 0001:00162db0       ?mulmatvec2@@YAXPBUmat2@@PBUpointf2@@PAU2@@Z 00563db0 f   engq:m_matrix.obj
 0001:00162e00       ?mulmatvec3@@YAXPBUmat3@@PBUpointf3@@PAU2@@Z 00563e00 f   engq:m_matrix.obj
 0001:00162ea0       ?mulmatvec4@@YAXPBUmat4@@PBUpointf3@@PAU2@@Z 00563ea0 f   engq:m_matrix.obj
 0001:00162fa0       ?premulscale3d@@YAXPBUpointf3@@PBUmat4@@PAU2@@Z 00563fa0 f   engq:m_matrix.obj
 0001:00163050       ?transposemat3@@YAXPBUmat3@@PAU1@@Z 00564050 f   engq:m_matrix.obj
 0001:001630d0       ?xformdir@@YAXPBUmat4@@PBUpointf3@@PAU2@@Z 005640d0 f   engq:m_matrix.obj
 0001:00163170       ?xformdirinv@@YAXPBUmat4@@PBUpointf3@@PAU2@@Z 00564170 f   engq:m_matrix.obj
 0001:00163210       ?xformvec@@YAXPBUmat4@@PBUpointf3@@PAU2@@Z 00564210 f   engq:m_matrix.obj
 0001:001632f0       ?xformvecs@@YAXPBUmat4@@PBUpointf3@@PAU2@H@Z 005642f0 f   engq:m_matrix.obj
 0001:001633f0       ??$_Destroy_range@V?$allocator@Umater2@@@std@@@std@@YAXPAUmater2@@0AAV?$allocator@Umater2@@@0@@Z 005643f0 f i engq:d2_model.obj
 0001:00163460       ??$_Emplace_reallocate@ABUmater2@@@?$vector@Umater2@@V?$allocator@Umater2@@@std@@@std@@QAEPAUmater2@@QAU2@ABU2@@Z 00564460 f i engq:d2_model.obj
 0001:001636a0       ??$_Uninitialized_move@PAUmater2@@PAU1@V?$allocator@Umater2@@@std@@@std@@YAPAUmater2@@QAU1@0PAU1@AAV?$allocator@Umater2@@@0@@Z 005646a0 f i engq:d2_model.obj
 0001:00163750       ??$assign@PBUpointf3@@X@?$vector@Upointf3@@V?$allocator@Upointf3@@@std@@@std@@QAEXPBUpointf3@@0@Z 00564750 f i engq:d2_model.obj
 0001:00163840       ??0modelb@@QAE@V?$basic_string@DU?$char_traits@D@std@@V?$allocator@D@2@@std@@@Z 00564840 f   engq:d2_model.obj
 0001:00163a20       ??1?$vector@Umater2@@V?$allocator@Umater2@@@std@@@std@@QAE@XZ 00564a20 f i engq:d2_model.obj
 0001:00163aa0       ??1mater2@@QAE@XZ          00564aa0 f i engq:d2_model.obj
 0001:00163af0       ??1modelb@@UAE@XZ          00564af0 f   engq:d2_model.obj
 0001:00163ec0       ??_Emodel2@@UAEPAXI@Z      00564ec0 f i engq:d2_software.obj
 0001:00163ec0       ??_Gmodel2@@UAEPAXI@Z      00564ec0 f i engq:d2_software.obj
 0001:00163ec0       ??_Emodelb@@UAEPAXI@Z      00564ec0 f i engq:d2_model.obj
 0001:00163ec0       ??_Gmodelb@@UAEPAXI@Z      00564ec0 f i engq:d2_model.obj
 0001:00163ef0       ?_Destroy@?$vector@Umater2@@V?$allocator@Umater2@@@std@@@std@@AAEXPAUmater2@@0@Z 00564ef0 f i engq:d2_model.obj
 0001:00163f10       ?addface@modelb@@QAEXHHH_N@Z 00564f10 f   engq:d2_model.obj
 0001:00163fa0       ?addfaces@modelb@@QAEXPBUface@@HH_N1@Z 00564fa0 f   engq:d2_model.obj
 0001:00164120       ?addfaces@modelb@@QAEXV?$vector@Uface@@V?$allocator@Uface@@@std@@@std@@H_N1@Z 00565120 f   engq:d2_model.obj
 0001:00164330       ?addmat2c@modelb@@QAEXPBDHPAVtextureb@@PBUpointf3@@2MHH@Z 00565330 f   engq:d2_model.obj
 0001:001644a0       ?addmat2t@modelb@@QAEXPBDHPAVtextureb@@1PBUpointf3@@MHHM@Z 005654a0 f   engq:d2_model.obj
 0001:00164610       ?addmat@modelb@@QAEXPBDHPAVtextureb@@PBUpointf3@@MHHMM@Z 00565610 f   engq:d2_model.obj
 0001:00164780       ?addmatn@modelb@@QAEXPBDH0PBUpointf3@@MHH@Z 00565780 f   engq:d2_model.obj
 0001:00164910       ?calcnorms@modelb@@QAEXXZ  00565910 f   engq:d2_model.obj
 0001:00164b60       ?changetex@modelb@@QAEXPAVtextureb@@II@Z 00565b60 f   engq:d2_model.obj
 0001:00164be0       ?checkbbox@modelb@@QAE?AW4clipresult@@PAUmat4@@@Z 00565be0 f   engq:d2_model.obj
 0001:00164d60       ?copybinorms@modelb@@QAEXPBUpointf3@@H@Z 00565d60 f   engq:d2_model.obj
 0001:00164d80       ?copycverts@modelb@@QAEXPBUpointf3@@H@Z 00565d80 f   engq:d2_model.obj
 0001:00164dd0       ?copyfaces@modelb@@QAEXPBUface@@H_N@Z 00565dd0 f   engq:d2_model.obj
 0001:00164ed0       ?copynorms@modelb@@QAEXABV?$vector@Upointf3@@V?$allocator@Upointf3@@@std@@@std@@@Z 00565ed0 f   engq:d2_model.obj
 0001:00164ee0       ?copynorms@modelb@@QAEXPBUpointf3@@H@Z 00565ee0 f   engq:d2_model.obj
 0001:00164f00       ?copytangents@modelb@@QAEXPBUpointf3@@H@Z 00565f00 f   engq:d2_model.obj
 0001:00164f20       ?copyuvs0@modelb@@QAEXABV?$vector@Uuv@@V?$allocator@Uuv@@@std@@@std@@@Z 00565f20 f   engq:d2_model.obj
 0001:00164f80       ?copyuvs0@modelb@@QAEXPBUuv@@H@Z 00565f80 f   engq:d2_model.obj
 0001:00164fe0       ?copyuvs1@modelb@@QAEXPBUuv@@H@Z 00565fe0 f   engq:d2_model.obj
 0001:00165050       ?copyverts2@modelb@@QAEXABV?$vector@Upointf3@@V?$allocator@Upointf3@@@std@@@std@@@Z 00566050 f   engq:d2_model.obj
 0001:00165060       ?copyverts@modelb@@QAEXABV?$vector@Upointf3@@V?$allocator@Upointf3@@@std@@@std@@_N@Z 00566060 f   engq:d2_model.obj
 0001:001650d0       ?copyverts@modelb@@QAEXPBUpointf3@@H_N@Z 005660d0 f   engq:d2_model.obj
 0001:00165140       ?deallocate@?$allocator@Umater2@@@std@@QAEXQAUmater2@@I@Z 00566140 f i engq:d2_model.obj
 0001:00165180       ?genindifaces@modelb@@QAEX_N@Z 00566180 f   engq:d2_model.obj
 0001:00165220       ?push_back@?$vector@Umater2@@V?$allocator@Umater2@@@std@@@std@@QAEXABUmater2@@@Z 00566220 f i engq:d2_model.obj
 0001:00165290       ?setbbox@modelb@@QAEXXZ    00566290 f   engq:d2_model.obj
 0001:00165470       ?showline@modelb@@UAEXXZ   00566470 f   engq:d2_model.obj
 0001:00165630       ?deflate_decompress@@YAPAEPAEHH@Z 00566630 f   engq:n_deflate.obj
 0001:00165e60       ?deflate_decompress_mask@@YAPAUbitmap8@@PAEHHH@Z 00566e60 f   engq:n_deflate.obj
 0001:00166030       ?bitmap8alloc@@YAPAUbitmap8@@HHH@Z 00567030 f   engq:m_bitmap8.obj
 0001:00166090       ?clipfloodfill8@@YAXPAUbitmap8@@HHH@Z 00567090 f   engq:m_bitmap8.obj
 0001:00166460       ?clipgetpixel8@@YAEPAUbitmap8@@HH@Z 00567460 f   engq:m_bitmap8.obj
 0001:001664b0       ?clipline8@@YAXPAUbitmap8@@HHHHH@Z 005674b0 f   engq:m_bitmap8.obj
 0001:00166580       ?clipmask8@@YAXPAUbitmap8@@0PAE@Z 00567580 f   engq:m_bitmap8.obj
 0001:001665f0       ?clipputpixel8@@YAXPAUbitmap8@@HHH@Z 005675f0 f   engq:m_bitmap8.obj
 0001:00166630       ?cliprect8@@YAXPAUbitmap8@@HHHHH@Z 00567630 f   engq:m_bitmap8.obj
 0001:00166750       ?clipscaleblit8@@YAXPBUbitmap8@@PAU1@@Z 00567750 f   engq:m_bitmap8.obj
 0001:001667d0       ?fastgetpixel8@@YAEPAUbitmap8@@HH@Z 005677d0 f   engq:m_bitmap8.obj
 0001:001667f0       ?fastputpixel8@@YAXPAUbitmap8@@HHE@Z 005677f0 f   engq:m_bitmap8.obj
 0001:00166810       ?fastrect8@@YAXPAUbitmap8@@HHHHH@Z 00567810 f   engq:m_bitmap8.obj
 0001:001670d0       ?gfxread32_jpg@@YAPAUbitmap32@@PBD@Z 005680d0 f   engq:m_gfx_jpg.obj
 0001:00167df0       ?jpegread@@YAPAUbitmap32@@PAU_iobuf@@@Z 00568df0 f   engq:m_gfx_jpg.obj
 0001:00168d20       ??$_Emplace_reallocate@ABU?$referencecountelement@Vtextureb@@@@@?$vector@U?$referencecountelement@Vtextureb@@@@V?$allocator@U?$referencecountelement@Vtextureb@@@@@std@@@std@@QAEPAU?$referencecountelement@Vtextureb@@@@QAU2@ABU2@@Z 00569d20 f i engq:d2_texman.obj
 0001:00168d20       ??$_Emplace_reallocate@ABU?$referencecountelement@Vmodelb@@@@@?$vector@U?$referencecountelement@Vmodelb@@@@V?$allocator@U?$referencecountelement@Vmodelb@@@@@std@@@std@@QAEPAU?$referencecountelement@Vmodelb@@@@QAU2@ABU2@@Z 00569d20 f i engq:d2_dx9effectshaders.obj
 0001:00168ec0       ??$newrc@Vtexturebifl@@@?$referencecount@Vtextureb@@@@QAEPAVtextureb@@PBD@Z 00569ec0 f i engq:d2_texman.obj
 0001:00169130       ??0textureb@@QAE@V?$basic_string@DU?$char_traits@D@std@@V?$allocator@D@2@@std@@@Z 0056a130 f   engq:d2_texman.obj
 0001:001691f0       ??1texturebifl@@UAE@XZ     0056a1f0 f   engq:d2_texman.obj
 0001:001693e0       ??_Etextureb@@UAEPAXI@Z    0056a3e0 f i engq:d2_texman.obj
 0001:001693e0       ??_Gtextureb@@UAEPAXI@Z    0056a3e0 f i engq:d2_texman.obj
 0001:00169450       ??_Gtexturebifl@@UAEPAXI@Z 0056a450 f i engq:d2_texman.obj
 0001:00169450       ??_Etexturebifl@@UAEPAXI@Z 0056a450 f i engq:d2_texman.obj
 0001:00169480       ?animtex@textureb@@SAXXZ   0056a480 f   engq:d2_texman.obj
 0001:001695a0       ?build@textureb@@QAEXHH@Z  0056a5a0 f   engq:d2_texman.obj
 0001:001695f0       ?checkname@textureb@@QAE_NV?$basic_string@DU?$char_traits@D@std@@V?$allocator@D@2@@std@@AAV23@AA_N2@Z 0056a5f0 f   engq:d2_texman.obj
 0001:001699a0       ?gfxread32c@textureb@@QAEPAUbitmap32@@PBD_N@Z 0056a9a0 f   engq:d2_texman.obj
 0001:00169af0       ?ifl_createtexture@@YAPAVtextureb@@PBD@Z 0056aaf0 f   engq:d2_texman.obj
 0001:00169b10       ?load@texturebifl@@UAEXXZ  0056ab10 f   engq:d2_texman.obj
 0001:00169ce0       ?rfind@?$basic_string@DU?$char_traits@D@std@@V?$allocator@D@2@@std@@QBEIDI@Z 0056ace0 f i engq:d2_texman.obj
 0001:00169d20       ?showline@textureb@@UAEXXZ 0056ad20 f i engq:d2_texman.obj
 0001:00169d50       ?showline@texturebifl@@UAEXXZ 0056ad50 f   engq:d2_texman.obj
 0001:00169de0       ?snapshot@texturebifl@@UAEPAVtextureb@@XZ 0056ade0 f   engq:d2_texman.obj
 0001:00169e00       ?normal2quat@@YAXPBUpointf3@@0PAU1@@Z 0056ae00 f   engq:m_quat.obj
 0001:00169eb0       ?quat2rotaxis@@YAXPBUpointf3@@PAU1@@Z 0056aeb0 f   engq:m_quat.obj
 0001:0016a060       ?quat2rpy@@YAXPBUpointf3@@PAU1@@Z 0056b060 f   engq:m_quat.obj
 0001:0016a290       ?quat2xform@@YAXPBUpointf3@@PAUmat4@@@Z 0056b290 f   engq:m_quat.obj
 0001:0016a3d0       ?quat2xformnotrans@@YAXPBUpointf3@@PAUmat4@@@Z 0056b3d0 f   engq:m_quat.obj
 0001:0016a500       ?quatinterp2@@YAXPBUpointf3@@0MPAU1@@Z 0056b500 f   engq:m_quat.obj
 0001:0016a760       ?quatinterp@@YAXPBUpointf3@@0MPAU1@@Z 0056b760 f   engq:m_quat.obj
 0001:0016abe0       ?quatinverse@@YAXPBUpointf3@@PAU1@@Z 0056bbe0 f   engq:m_quat.obj
 0001:0016ac20       ?quatnormalize@@YAXPBUpointf3@@PAU1@@Z 0056bc20 f   engq:m_quat.obj
 0001:0016ace0       ?quatrot@@YAXPBUpointf3@@0PAU1@@Z 0056bce0 f   engq:m_quat.obj
 0001:0016af00       ?quatrots@@YAXPBUpointf3@@0PAU1@I@Z 0056bf00 f   engq:m_quat.obj
 0001:0016b130       ?quatscalerottrans3d@@YAXPBUpointf3@@00PAUmat4@@@Z 0056c130 f   engq:m_quat.obj
 0001:0016b170       ?quattimes@@YAXPBUpointf3@@0PAU1@@Z 0056c170 f   engq:m_quat.obj
 0001:0016b260       ?quattrans2xform@@YAXPBUpointf3@@0PAUmat4@@@Z 0056c260 f   engq:m_quat.obj
 0001:0016b3a0       ?rotaxis2quat@@YAXPAUpointf3@@0@Z 0056c3a0 f   engq:m_quat.obj
 0001:0016b4b0       ?rpy2quat@@YAXPBUpointf3@@PAU1@@Z 0056c4b0 f   engq:m_quat.obj
 0001:0016b6f0       ?bezcalcallcoeffs@@YAXPAUkeyframe@@@Z 0056c6f0 f   engq:d2_keyf.obj
 0001:0016ba40       ?seq_dostep@@YAXPAVtree2@@@Z 0056ca40 f   engq:d2_keyf.obj
 0001:0016bf00       ?seq_setframe@@YAXPAVtree2@@M@Z 0056cf00 f   engq:d2_keyf.obj
 0001:0016bf50       ?seq_start@@YAXPAVtree2@@@Z 0056cf50 f   engq:d2_keyf.obj
 0001:0016bfd0       ?seq_stop@@YAXPAVtree2@@@Z 0056cfd0 f   engq:d2_keyf.obj
 0001:0016c010       ?tcbcalcallcoeffs@@YAXPAUkeyframe@@@Z 0056d010 f   engq:d2_keyf.obj
 0001:0016ca20       ?C32topointf3@@YA?AUpointf3@@UC32@@M@Z 0056da20 f   engq:m_stdcolors.obj
 0001:0016cac0       ?convert8to32@@YAPAUbitmap32@@PAUbitmap8@@PAUC32@@@Z 0056dac0 f   engq:m_stdcolors.obj
 0001:0016cba0       ?convert8to32@@YAXPAUbitmap8@@PAUC32@@PAUbitmap32@@@Z 0056dba0 f   engq:m_stdcolors.obj
 0001:0016cc30       ?findstdcoloridx@@YAHPBD@Z 0056dc30 f   engq:m_stdcolors.obj
 0001:0016cc90       ?pointf3toC32@@YA?AUC32@@PBUpointf3@@@Z 0056dc90 f   engq:m_stdcolors.obj
 0001:0016cd10       ?argcvexit@@YAXXZ          0056dd10 f   engq:m_wh.obj
 0001:0016cd80       ?avgfree@@YAXXZ            0056dd80 f   engq:m_wh.obj
 0001:0016cde0       ?avginit@@YAXXZ            0056dde0 f   engq:m_wh.obj
 0001:0016d170       ?setusermessage@@YAXIP6AXIIH@Z@Z 0056e170 f   engq:m_wh.obj
 0001:0016d1b0       ?showcursor@@YAXH@Z        0056e1b0 f   engq:m_wh.obj
 0001:0016d1c0       ?useoscursor@@YAXH@Z       0056e1c0 f   engq:m_wh.obj
 0001:0016d1d0       ?waitframe@@YAXXZ          0056e1d0 f   engq:m_wh.obj
 0001:0016d4f0       ?winexit@@YAXXZ            0056e4f0 f   engq:m_wh.obj
 0001:0016d500       ?wininit@@YAIXZ            0056e500 f   engq:m_wh.obj
 0001:0016d8d0       ?winproc@@YAXXZ            0056e8d0 f   engq:m_wh.obj
 0001:0016dae0       ?changeglobalxyres@@YAIH@Z 0056eae0 f   engq:m_device.obj
 0001:0016db20       ?load_device@@YAXXZ        0056eb20 f   engq:m_device.obj
 0001:0016de10       ?save_device@@YAXXZ        0056ee10 f   engq:m_device.obj
 0001:0016def0       ?set_device@@YAXXZ         0056eef0 f   engq:m_device.obj
 0001:0016df30       ??6?$basic_ostream@DU?$char_traits@D@std@@@std@@QAEAAV01@_K@Z 0056ef30 f i engq:m_floatconv.obj
 0001:0016e7f0       ?float2str@@YA?AV?$basic_string@DU?$char_traits@D@std@@V?$allocator@D@2@@std@@M@Z 0056f7f0 f   engq:m_floatconv.obj
 0001:0016ecb0       ?str2float@@YAMPBD@Z       0056fcb0 f   engq:m_floatconv.obj
 0001:0016ee70       ?video_sprite_begin@@YAXIIIUC32@@@Z 0056fe70 f   engq:d2_sprite.obj
 0001:0016f2f0       ?video_sprite_draw@@YAXPAVtextureb@@ABUpointf3@@MMMMMMMMMMM@Z 005702f0 f   engq:d2_sprite.obj
 0001:0016f620       ?video_sprite_end@@YAXXZ   00570620 f   engq:d2_sprite.obj
 0001:0016f730       ?video_sprite_setaddmode@@YAX_N@Z 00570730 f   engq:d2_sprite.obj
 0001:0016f740       ?video_tri_draw@@YAXPAVtextureb@@ABUpointf3@@PBUpointf2@@PBUuv@@@Z 00570740 f   engq:d2_sprite.obj
 0001:0016f850       ??0fontq@@QAE@PBD@Z        00570850 f   engq:d2_fontq.obj
 0001:0016f990       ??1fontq@@QAE@XZ           00570990 f   engq:d2_fontq.obj
 0001:0016fa80       ?print@fontq@@QAAXMMMMABUpointf3@@PBDZZ 00570a80 f   engq:d2_fontq.obj
 0001:0016ff30       ?setfixedwidth@fontq@@QAEXM@Z 00570f30 f   engq:d2_fontq.obj
 0001:0016ff70       ?dx9_fs_setupwindow@@YAHHH@Z 00570f70 f   engq:m_vid_dx9.obj
 0001:0016ff90       ?dx9_getnsubdrivers@@YAPAVscript@@XZ 00570f90 f   engq:m_vid_dx9.obj
 0001:001700a0       ?dx9_lock@@YAXXZ           005710a0 f   engq:m_vid_dx9.obj
 0001:001701c0       ?dx9_paintwindow@@YAXI@Z   005711c0 f   engq:m_vid_dx9.obj
 0001:00170680       ?dx9_unlock@@YAXXZ         00571680 f   engq:m_vid_dx9.obj
 0001:00170700       ?dx9_video_uninit@@YAXXZ   00571700 f   engq:m_vid_dx9.obj
 0001:001707b0       ?dx9_wnd_setupwindow@@YAHHH@Z 005717b0 f   engq:m_vid_dx9.obj
 0001:00171570       ?ds_ndrv@@YAPAVscript@@XZ  00572570 f   engq:m_audio.obj
 0001:001715f0       ?ds_mic_ndrv@@YAPAVscript@@XZ 005725f0 f   engq:m_audio.obj
 0001:00171670       ?ds_fifo_playvol@@YAPAUsoundhandle@@HHHP6AXPAEH@ZM@Z 00572670 f   engq:m_audio.obj
 0001:00172340       ?wp_ndrv@@YAPAVscript@@XZ  00573340 f   engq:m_audio.obj
 0001:001723b0       ?wp_mic_ndrv@@YAPAVscript@@XZ 005733b0 f   engq:m_audio.obj
 0001:001724f0       ?wp_fifo_playvol@@YAPAUsoundhandle@@HHHP6AXPAEH@ZM@Z 005734f0 f   engq:m_audio.obj
 0001:00172be0       ?audio_babysit@@YAXXZ      00573be0 f   engq:m_audio.obj
 0001:00172c00       ?audio_getnmaindrivers@@YAPAVscript@@XZ 00573c00 f   engq:m_audio.obj
 0001:00172c80       ?audio_getnsubdrivers@@YAPAVscript@@H@Z 00573c80 f   engq:m_audio.obj
 0001:00172dd0       ?audio_init@@YAXHHH@Z      00573dd0 f   engq:m_audio.obj
 0001:00172ed0       ?audio_uninit@@YAXXZ       00573ed0 f   engq:m_audio.obj
 0001:00173150       ?getsfxfreq@@YAMPAUsoundhandle@@@Z 00574150 f   engq:m_audio.obj
 0001:001736d0       ?mic_getnsubdrivers@@YAPAVscript@@H@Z 005746d0 f   engq:m_audio.obj
 0001:001738c0       ?playasound@@YAXPAUwavehandle@@@Z 005748c0 f   engq:m_audio.obj
 0001:001738f0       ?playasoundvol@@YAXPAUwavehandle@@M@Z 005748f0 f   engq:m_audio.obj
 0001:00173920       ?setsfxfreq@@YAXPAUsoundhandle@@M@Z 00574920 f   engq:m_audio.obj
 0001:00173950       ?setsfxpan@@YAXPAUsoundhandle@@M@Z 00574950 f   engq:m_audio.obj
 0001:00173980       ?setsfxvolume@@YAXPAUsoundhandle@@M@Z 00574980 f   engq:m_audio.obj
 0001:001739b0       ?sound_free@@YAXPAUsoundhandle@@@Z 005749b0 f   engq:m_audio.obj
 0001:001739d0       ?sound_status@@YAHPAUsoundhandle@@@Z 005749d0 f   engq:m_audio.obj
 0001:001739f0       ?wave_build@@YAPAUwavehandle@@PBDHHHH@Z 005749f0 f   engq:m_audio.obj
 0001:00173a50       ?wave_load@@YAPAUwavehandle@@PBDH@Z 00574a50 f   engq:m_audio.obj
 0001:00173a70       ?wave_play@@YAPAUsoundhandle@@PAUwavehandle@@H@Z 00574a70 f   engq:m_audio.obj
 0001:00173ab0       ?wave_playvol@@YAPAUsoundhandle@@PAUwavehandle@@HM@Z 00574ab0 f   engq:m_audio.obj
 0001:00173af0       ?wave_unload@@YAXPAUwavehandle@@@Z 00574af0 f   engq:m_audio.obj
 0001:00173e10       ?vag_load@@YAPAUwavehandle@@PBD@Z 00574e10 f   engq:m_sagger.obj
 0001:00173e70       ?vagload@@YAPAEPBDPAH111@Z 00574e70 f   engq:m_sagger.obj
 0001:00174180       ??$_Emplace_reallocate@ABV?$vector@Vzee2@@V?$allocator@Vzee2@@@std@@@std@@@?$vector@V?$vector@Vzee2@@V?$allocator@Vzee2@@@std@@@std@@V?$allocator@V?$vector@Vzee2@@V?$allocator@Vzee2@@@std@@@std@@@2@@std@@QAEPAV?$vector@Vzee2@@V?$allocator@Vzee2@@@std@@@1@QAV21@ABV21@@Z 00575180 f i engq:augmatz.obj
 0001:001742d0       ??$_Resize@V<lambda_09af55c1ad9dea701dc786708c7eeefe>@@@?$vector@Vzee2@@V?$allocator@Vzee2@@@std@@@std@@AAEXIV<lambda_09af55c1ad9dea701dc786708c7eeefe>@@@Z 005752d0 f i engq:augmatz.obj
 0001:00174450       ??$_Resize@V<lambda_e7f7a5a142f7e876a90509edf3ad1e1e>@@@?$vector@V?$vector@Vzee2@@V?$allocator@Vzee2@@@std@@@std@@V?$allocator@V?$vector@Vzee2@@V?$allocator@Vzee2@@@std@@@std@@@2@@std@@AAEXIV<lambda_e7f7a5a142f7e876a90509edf3ad1e1e>@@@Z 00575450 f i engq:augmatz.obj
 0001:00174550       ??0?$vector@Vzee2@@V?$allocator@Vzee2@@@std@@@std@@QAE@ABV01@@Z 00575550 f i engq:augmatz.obj
 0001:001745d0       ??0?$vector@Vzee2@@V?$allocator@Vzee2@@@std@@@std@@QAE@IABV?$allocator@Vzee2@@@1@@Z 005755d0 f i engq:augmatz.obj
 0001:00174690       ??0augmatz@@QAE@HHH@Z      00575690 f   engq:augmatz.obj
 0001:001747d0       ??R<lambda_09af55c1ad9dea701dc786708c7eeefe>@@QBEPAVzee2@@PAV1@I@Z 005757d0 f i engq:augmatz.obj
 0001:00174840       ?_Change_array@?$vector@V?$vector@Vzee2@@V?$allocator@Vzee2@@@std@@@std@@V?$allocator@V?$vector@Vzee2@@V?$allocator@Vzee2@@@std@@@std@@@2@@std@@AAEXQAV?$vector@Vzee2@@V?$allocator@Vzee2@@@std@@@2@II@Z 00575840 f i engq:augmatz.obj
 0001:001748d0       ?add@augmatz@@AAEXHHVzee2@@@Z 005758d0 f   engq:augmatz.obj
 0001:00174950       ?calc@augmatz@@QAEXXZ      00575950 f   engq:augmatz.obj
